LIBRARY gtest_ed2deb40
EXPORTS 
	?$TSS0@?1??GetThreadLocalsMapLocked@ThreadLocalRegistryImpl@internal@testing@@CAPEAV?$map@KV?$map@PEBVThreadLocalBase@internal@testing@@V?$shared_ptr@VThreadLocalValueHolderBase@internal@testing@@@std@@U?$less@PEBVThreadLocalBase@internal@testing@@@5@V?$allocator@U?$pair@QEBVThreadLocalBase@internal@testing@@V?$shared_ptr@VThreadLocalValueHolderBase@internal@testing@@@std@@@std@@@5@@std@@U?$less@K@2@V?$allocator@U?$pair@$$CBKV?$map@PEBVThreadLocalBase@internal@testing@@V?$shared_ptr@VThreadLocalValueHolderBase@internal@testing@@@std@@U?$less@PEBVThreadLocalBase@internal@testing@@@5@V?$allocator@U?$pair@QEBVThreadLocalBase@internal@testing@@V?$shared_ptr@VThreadLocalValueHolderBase@internal@testing@@@std@@@std@@@5@@std@@@std@@@2@@std@@XZ@4HA 	 DATA
	??_R0?AU_Crt_new_delete@std@@@8 	 DATA
	??_R0?AUwchar_codecvt@?1??FOpen@posix@internal@testing@@YAPEAU_iobuf@@PEBD0@Z@@8 	 DATA
	??_R0?AV?$Matcher@AEBV?$basic_string@DU?$char_traits@D@std@@V?$allocator@D@2@@std@@@testing@@@8 	 DATA
	??_R0?AV?$Matcher@AEBV?$basic_string_view@DU?$char_traits@D@std@@@std@@@testing@@@8 	 DATA
	??_R0?AV?$Matcher@V?$basic_string@DU?$char_traits@D@std@@V?$allocator@D@2@@std@@@testing@@@8 	 DATA
	??_R0?AV?$Matcher@V?$basic_string_view@DU?$char_traits@D@std@@@std@@@testing@@@8 	 DATA
	??_R0?AV?$MatcherBase@AEBV?$basic_string@DU?$char_traits@D@std@@V?$allocator@D@2@@std@@@internal@testing@@@8 	 DATA
	??_R0?AV?$MatcherBase@AEBV?$basic_string_view@DU?$char_traits@D@std@@@std@@@internal@testing@@@8 	 DATA
	??_R0?AV?$MatcherBase@V?$basic_string@DU?$char_traits@D@std@@V?$allocator@D@2@@std@@@internal@testing@@@8 	 DATA
	??_R0?AV?$MatcherBase@V?$basic_string_view@DU?$char_traits@D@std@@@std@@@internal@testing@@@8 	 DATA
	??_R0?AV?$ThreadLocal@PEAVSequence@testing@@@internal@testing@@@8 	 DATA
	??_R0?AV?$ThreadLocal@PEAVTestPartResultReporterInterface@testing@@@internal@testing@@@8 	 DATA
	??_R0?AV?$ThreadLocal@V?$vector@UTraceInfo@internal@testing@@V?$allocator@UTraceInfo@internal@testing@@@std@@@std@@@internal@testing@@@8 	 DATA
	??_R0?AV?$_Iosb@H@std@@@8 	 DATA
	??_R0?AV?$_Ref_count@$$CBVCardinalityInterface@testing@@@std@@@8 	 DATA
	??_R0?AV?$_Ref_count@VExpectation@testing@@@std@@@8 	 DATA
	??_R0?AV?$_Ref_count@VThreadLocalValueHolderBase@internal@testing@@@std@@@8 	 DATA
	??_R0?AV?$basic_ios@DU?$char_traits@D@std@@@std@@@8 	 DATA
	??_R0?AV?$basic_iostream@DU?$char_traits@D@std@@@std@@@8 	 DATA
	??_R0?AV?$basic_istream@DU?$char_traits@D@std@@@std@@@8 	 DATA
	??_R0?AV?$basic_ostream@DU?$char_traits@D@std@@@std@@@8 	 DATA
	??_R0?AV?$basic_ostringstream@DU?$char_traits@D@std@@V?$allocator@D@2@@std@@@8 	 DATA
	??_R0?AV?$basic_streambuf@DU?$char_traits@D@std@@@std@@@8 	 DATA
	??_R0?AV?$basic_stringbuf@DU?$char_traits@D@std@@V?$allocator@D@2@@std@@@8 	 DATA
	??_R0?AV?$basic_stringstream@DU?$char_traits@D@std@@V?$allocator@D@2@@std@@@8 	 DATA
	??_R0?AV?$codecvt@_WDU_Mbstatet@@@std@@@8 	 DATA
	??_R0?AV?$wstring_convert@Uwchar_codecvt@?1??FOpen@posix@internal@testing@@YAPEAU_iobuf@@PEBD0@Z@_WV?$allocator@_W@std@@V?$allocator@D@8@@std@@@8 	 DATA
	??_R0?AVAssertionException@testing@@@8 	 DATA
	??_R0?AVBriefUnitTestResultPrinter@internal@testing@@@8 	 DATA
	??_R0?AVCardinalityInterface@testing@@@8 	 DATA
	??_R0?AVDeathTest@internal@testing@@@8 	 DATA
	??_R0?AVDeathTestFactory@internal@testing@@@8 	 DATA
	??_R0?AVDeathTestImpl@internal@testing@@@8 	 DATA
	??_R0?AVDefaultDeathTestFactory@internal@testing@@@8 	 DATA
	??_R0?AVDefaultGlobalTestPartResultReporter@internal@testing@@@8 	 DATA
	??_R0?AVDefaultPerThreadTestPartResultReporter@internal@testing@@@8 	 DATA
	??_R0?AVDefaultValueHolderFactory@?$ThreadLocal@PEAVSequence@testing@@@internal@testing@@@8 	 DATA
	??_R0?AVDefaultValueHolderFactory@?$ThreadLocal@V?$vector@UTraceInfo@internal@testing@@V?$allocator@UTraceInfo@internal@testing@@@std@@@std@@@internal@testing@@@8 	 DATA
	??_R0?AVDummyMatchResultListener@internal@testing@@@8 	 DATA
	??_R0?AVEmptyTestEventListener@testing@@@8 	 DATA
	??_R0?AVExpectationBase@internal@testing@@@8 	 DATA
	??_R0?AVFailureReporterInterface@internal@testing@@@8 	 DATA
	??_R0?AVGoogleTestFailureException@internal@testing@@@8 	 DATA
	??_R0?AVGoogleTestFailureReporter@internal@testing@@@8 	 DATA
	??_R0?AVHasNewFatalFailureHelper@internal@testing@@@8 	 DATA
	??_R0?AVInstanceValueHolderFactory@?$ThreadLocal@PEAVTestPartResultReporterInterface@testing@@@internal@testing@@@8 	 DATA
	??_R0?AVJsonUnitTestResultPrinter@internal@testing@@@8 	 DATA
	??_R0?AVMatchResultListener@testing@@@8 	 DATA
	??_R0?AVMatcherDescriberInterface@testing@@@8 	 DATA
	??_R0?AVOsStackTraceGetter@internal@testing@@@8 	 DATA
	??_R0?AVOsStackTraceGetterInterface@internal@testing@@@8 	 DATA
	??_R0?AVPrettyUnitTestResultPrinter@internal@testing@@@8 	 DATA
	??_R0?AVScopedFakeTestPartResultReporter@testing@@@8 	 DATA
	??_R0?AVTest@testing@@@8 	 DATA
	??_R0?AVTestEventListener@testing@@@8 	 DATA
	??_R0?AVTestEventRepeater@internal@testing@@@8 	 DATA
	??_R0?AVTestFactoryBase@internal@testing@@@8 	 DATA
	??_R0?AVTestPartResultReporterInterface@testing@@@8 	 DATA
	??_R0?AVTestSuite@testing@@@8 	 DATA
	??_R0?AVThreadLocalBase@internal@testing@@@8 	 DATA
	??_R0?AVThreadLocalValueHolderBase@internal@testing@@@8 	 DATA
	??_R0?AVThreadWithParamBase@internal@testing@@@8 	 DATA
	??_R0?AVUnitTest@testing@@@8 	 DATA
	??_R0?AVUnitTestImpl@internal@testing@@@8 	 DATA
	??_R0?AVUntypedFunctionMockerBase@internal@testing@@@8 	 DATA
	??_R0?AVValueHolder@?$ThreadLocal@PEAVSequence@testing@@@internal@testing@@@8 	 DATA
	??_R0?AVValueHolder@?$ThreadLocal@PEAVTestPartResultReporterInterface@testing@@@internal@testing@@@8 	 DATA
	??_R0?AVValueHolder@?$ThreadLocal@V?$vector@UTraceInfo@internal@testing@@V?$allocator@UTraceInfo@internal@testing@@@std@@@std@@@internal@testing@@@8 	 DATA
	??_R0?AVValueHolderFactory@?$ThreadLocal@PEAVSequence@testing@@@internal@testing@@@8 	 DATA
	??_R0?AVValueHolderFactory@?$ThreadLocal@PEAVTestPartResultReporterInterface@testing@@@internal@testing@@@8 	 DATA
	??_R0?AVValueHolderFactory@?$ThreadLocal@V?$vector@UTraceInfo@internal@testing@@V?$allocator@UTraceInfo@internal@testing@@@std@@@std@@@internal@testing@@@8 	 DATA
	??_R0?AVWindowsDeathTest@internal@testing@@@8 	 DATA
	??_R0?AVXmlUnitTestResultPrinter@internal@testing@@@8 	 DATA
	??_R0?AV_Facet_base@std@@@8 	 DATA
	??_R0?AV_Ref_count_base@std@@@8 	 DATA
	??_R0?AVbad_alloc@std@@@8 	 DATA
	??_R0?AVbad_array_new_length@std@@@8 	 DATA
	??_R0?AVcodecvt_base@std@@@8 	 DATA
	??_R0?AVexception@std@@@8 	 DATA
	??_R0?AVfacet@locale@std@@@8 	 DATA
	??_R0?AVios_base@std@@@8 	 DATA
	??_R0?AVrange_error@std@@@8 	 DATA
	??_R0?AVruntime_error@std@@@8 	 DATA
	?FLAGS_gmock_catch_leaked_mocks@testing@@3_NA 	 DATA
	?FLAGS_gmock_default_mock_behavior@testing@@3HA 	 DATA
	?FLAGS_gmock_verbose@testing@@3V?$basic_string@DU?$char_traits@D@std@@V?$allocator@D@2@@std@@A 	 DATA
	?FLAGS_gtest_also_run_disabled_tests@testing@@3_NA 	 DATA
	?FLAGS_gtest_break_on_failure@testing@@3_NA 	 DATA
	?FLAGS_gtest_brief@testing@@3_NA 	 DATA
	?FLAGS_gtest_catch_exceptions@testing@@3_NA 	 DATA
	?FLAGS_gtest_color@testing@@3V?$basic_string@DU?$char_traits@D@std@@V?$allocator@D@2@@std@@A 	 DATA
	?FLAGS_gtest_death_test_style@testing@@3V?$basic_string@DU?$char_traits@D@std@@V?$allocator@D@2@@std@@A 	 DATA
	?FLAGS_gtest_death_test_use_fork@testing@@3_NA 	 DATA
	?FLAGS_gtest_fail_fast@testing@@3_NA 	 DATA
	?FLAGS_gtest_fail_if_no_test_linked@testing@@3_NA 	 DATA
	?FLAGS_gtest_filter@testing@@3V?$basic_string@DU?$char_traits@D@std@@V?$allocator@D@2@@std@@A 	 DATA
	?FLAGS_gtest_flagfile@testing@@3V?$basic_string@DU?$char_traits@D@std@@V?$allocator@D@2@@std@@A 	 DATA
	?FLAGS_gtest_install_failure_signal_handler@testing@@3_NA 	 DATA
	?FLAGS_gtest_internal_run_death_test@testing@@3V?$basic_string@DU?$char_traits@D@std@@V?$allocator@D@2@@std@@A 	 DATA
	?FLAGS_gtest_list_tests@testing@@3_NA 	 DATA
	?FLAGS_gtest_output@testing@@3V?$basic_string@DU?$char_traits@D@std@@V?$allocator@D@2@@std@@A 	 DATA
	?FLAGS_gtest_print_time@testing@@3_NA 	 DATA
	?FLAGS_gtest_print_utf8@testing@@3_NA 	 DATA
	?FLAGS_gtest_random_seed@testing@@3HA 	 DATA
	?FLAGS_gtest_recreate_environments_when_repeating@testing@@3_NA 	 DATA
	?FLAGS_gtest_repeat@testing@@3HA 	 DATA
	?FLAGS_gtest_show_internal_stack_frames@testing@@3_NA 	 DATA
	?FLAGS_gtest_shuffle@testing@@3_NA 	 DATA
	?FLAGS_gtest_stack_trace_depth@testing@@3HA 	 DATA
	?FLAGS_gtest_stream_result_to@testing@@3V?$basic_string@DU?$char_traits@D@std@@V?$allocator@D@2@@std@@A 	 DATA
	?FLAGS_gtest_throw_on_failure@testing@@3_NA 	 DATA
	?_OptionsStorage@?1??__local_stdio_printf_options@@9@4_KA 	 DATA
	?dummy_@?$TypeIdHelper@VTest@testing@@@internal@testing@@2_NA 	 DATA
	?g_gmock_implicit_sequence@internal@testing@@3V?$ThreadLocal@PEAVSequence@testing@@@12@A 	 DATA
	?g_gmock_mutex@internal@testing@@3VMutex@12@A 	 DATA
	?g_help_flag@internal@testing@@3_NA 	 DATA
	?kTestTypeIdInGoogleTest@internal@testing@@3QEBXEB 	 DATA
	?last_death_test_message_@DeathTest@internal@testing@@0V?$basic_string@DU?$char_traits@D@std@@V?$allocator@D@2@@std@@A 	 DATA
	?map@?1??GetThreadLocalsMapLocked@ThreadLocalRegistryImpl@internal@testing@@CAPEAV?$map@KV?$map@PEBVThreadLocalBase@internal@testing@@V?$shared_ptr@VThreadLocalValueHolderBase@internal@testing@@@std@@U?$less@PEBVThreadLocalBase@internal@testing@@@5@V?$allocator@U?$pair@QEBVThreadLocalBase@internal@testing@@V?$shared_ptr@VThreadLocalValueHolderBase@internal@testing@@@std@@@std@@@5@@std@@U?$less@K@2@V?$allocator@U?$pair@$$CBKV?$map@PEBVThreadLocalBase@internal@testing@@V?$shared_ptr@VThreadLocalValueHolderBase@internal@testing@@@std@@U?$less@PEBVThreadLocalBase@internal@testing@@@5@V?$allocator@U?$pair@QEBVThreadLocalBase@internal@testing@@V?$shared_ptr@VThreadLocalValueHolderBase@internal@testing@@@std@@@std@@@5@@std@@@std@@@2@@std@@XZ@4PEAV56@EA 	 DATA
	?mutex_@ThreadLocalRegistryImpl@internal@testing@@0VMutex@23@A 	 DATA
	?thread_map_mutex_@ThreadLocalRegistryImpl@internal@testing@@0VMutex@23@A 	 DATA
	_Avx2WmemEnabledWeakValue 	 DATA
	??$?0$$CBV?$basic_string@DU?$char_traits@D@std@@V?$allocator@D@2@@std@@PEAVTestSuite@testing@@$0A@@?$pair@$$CBV?$basic_string@DU?$char_traits@D@std@@V?$allocator@D@2@@std@@PEAVTestSuite@testing@@@std@@QEAA@AEBV?$basic_string@DU?$char_traits@D@std@@V?$allocator@D@2@@1@AEBQEAVTestSuite@testing@@@Z
	??$?0$$CBVCardinalityInterface@testing@@$0A@@?$shared_ptr@$$CBVCardinalityInterface@testing@@@std@@QEAA@PEBVCardinalityInterface@testing@@@Z
	??$?0$$QEA_K$$Z$$V@?$pair@$$CB_KW4CallReaction@internal@testing@@@std@@QEAA@Upiecewise_construct_t@1@V?$tuple@$$QEA_K@1@V?$tuple@$$V@1@@Z
	??$?0$$TH$0A@@?$pair@PEAPEAVTestInfo@testing@@_J@std@@QEAA@$$QEA$$T$$QEAH@Z
	??$?0$$V@?$_Compressed_pair@U?$default_delete@V?$basic_string@DU?$char_traits@D@std@@V?$allocator@D@2@@std@@@std@@PEAV?$basic_string@DU?$char_traits@D@std@@V?$allocator@D@2@@2@$00@std@@QEAA@U_Zero_then_variadic_args_t@1@@Z
	??$?0$$V@?$_Compressed_pair@U?$default_delete@VInternalRunDeathTestFlag@internal@testing@@@std@@PEAVInternalRunDeathTestFlag@internal@testing@@$00@std@@QEAA@U_Zero_then_variadic_args_t@1@@Z
	??$?0$$V@?$_Compressed_pair@V?$allocator@D@std@@V?$_String_val@U?$_Simple_types@D@std@@@2@$00@std@@QEAA@U_Zero_then_variadic_args_t@1@@Z
	??$?0$$V@?$_Compressed_pair@V?$allocator@D@std@@V?$_Vector_val@U?$_Simple_types@D@std@@@2@$00@std@@QEAA@U_Zero_then_variadic_args_t@1@@Z
	??$?0$$V@?$_Compressed_pair@V?$allocator@H@std@@V?$_Vector_val@U?$_Simple_types@H@std@@@2@$00@std@@QEAA@U_Zero_then_variadic_args_t@1@@Z
	??$?0$$V@?$_Compressed_pair@V?$allocator@PEAVEnvironment@testing@@@std@@V?$_Vector_val@U?$_Simple_types@PEAVEnvironment@testing@@@std@@@2@$00@std@@QEAA@U_Zero_then_variadic_args_t@1@@Z
	??$?0$$V@?$_Compressed_pair@V?$allocator@PEAVParameterizedTestSuiteInfoBase@internal@testing@@@std@@V?$_Vector_val@U?$_Simple_types@PEAVParameterizedTestSuiteInfoBase@internal@testing@@@std@@@2@$00@std@@QEAA@U_Zero_then_variadic_args_t@1@@Z
	??$?0$$V@?$_Compressed_pair@V?$allocator@PEAVTestEventListener@testing@@@std@@V?$_Vector_val@U?$_Simple_types@PEAVTestEventListener@testing@@@std@@@2@$00@std@@QEAA@U_Zero_then_variadic_args_t@1@@Z
	??$?0$$V@?$_Compressed_pair@V?$allocator@PEAVTestInfo@testing@@@std@@V?$_Vector_val@U?$_Simple_types@PEAVTestInfo@testing@@@std@@@2@$00@std@@QEAA@U_Zero_then_variadic_args_t@1@@Z
	??$?0$$V@?$_Compressed_pair@V?$allocator@PEAVTestSuite@testing@@@std@@V?$_Vector_val@U?$_Simple_types@PEAVTestSuite@testing@@@std@@@2@$00@std@@QEAA@U_Zero_then_variadic_args_t@1@@Z
	??$?0$$V@?$_Compressed_pair@V?$allocator@PEBX@std@@V?$_Vector_val@U?$_Simple_types@PEBX@std@@@2@$00@std@@QEAA@U_Zero_then_variadic_args_t@1@@Z
	??$?0$$V@?$_Compressed_pair@V?$allocator@U?$_List_node@U?$pair@DPEBD@std@@PEAX@std@@@std@@V?$_List_val@U?$_List_simple_types@U?$pair@DPEBD@std@@@std@@@2@$00@std@@QEAA@U_Zero_then_variadic_args_t@1@@Z
	??$?0$$V@?$_Compressed_pair@V?$allocator@U?$_Tree_node@PEAVUntypedFunctionMockerBase@internal@testing@@PEAX@std@@@std@@V?$_Tree_val@U?$_Tree_simple_types@PEAVUntypedFunctionMockerBase@internal@testing@@@std@@@2@$00@std@@QEAA@U_Zero_then_variadic_args_t@1@@Z
	??$?0$$V@?$_Compressed_pair@V?$allocator@U?$_Tree_node@U?$pair@$$CBKV?$map@PEBVThreadLocalBase@internal@testing@@V?$shared_ptr@VThreadLocalValueHolderBase@internal@testing@@@std@@U?$less@PEBVThreadLocalBase@internal@testing@@@5@V?$allocator@U?$pair@QEBVThreadLocalBase@internal@testing@@V?$shared_ptr@VThreadLocalValueHolderBase@internal@testing@@@std@@@std@@@5@@std@@@std@@PEAX@std@@@std@@V?$_Tree_val@U?$_Tree_simple_types@U?$pair@$$CBKV?$map@PEBVThreadLocalBase@internal@testing@@V?$shared_ptr@VThreadLocalValueHolderBase@internal@testing@@@std@@U?$less@PEBVThreadLocalBase@internal@testing@@@5@V?$allocator@U?$pair@QEBVThreadLocalBase@internal@testing@@V?$shared_ptr@VThreadLocalValueHolderBase@internal@testing@@@std@@@std@@@5@@std@@@std@@@std@@@2@$00@std@@QEAA@U_Zero_then_variadic_args_t@1@@Z
	??$?0$$V@?$_Compressed_pair@V?$allocator@U?$_Tree_node@U?$pair@$$CBV?$basic_string@DU?$char_traits@D@std@@V?$allocator@D@2@@std@@UTypeParameterizedTestSuiteInfo@TypeParameterizedTestSuiteRegistry@internal@testing@@@std@@PEAX@std@@@std@@V?$_Tree_val@U?$_Tree_simple_types@U?$pair@$$CBV?$basic_string@DU?$char_traits@D@std@@V?$allocator@D@2@@std@@UTypeParameterizedTestSuiteInfo@TypeParameterizedTestSuiteRegistry@internal@testing@@@std@@@std@@@2@$00@std@@QEAA@U_Zero_then_variadic_args_t@1@@Z
	??$?0$$V@?$_Compressed_pair@V?$allocator@U?$_Tree_node@U?$pair@$$CBV?$basic_string@DU?$char_traits@D@std@@V?$allocator@D@2@@std@@_K@std@@PEAX@std@@@std@@V?$_Tree_val@U?$_Tree_simple_types@U?$pair@$$CBV?$basic_string@DU?$char_traits@D@std@@V?$allocator@D@2@@std@@_K@std@@@std@@@2@$00@std@@QEAA@U_Zero_then_variadic_args_t@1@@Z
	??$?0$$V@?$_Compressed_pair@V?$allocator@U?$_Tree_node@U?$pair@QEBVThreadLocalBase@internal@testing@@V?$shared_ptr@VThreadLocalValueHolderBase@internal@testing@@@std@@@std@@PEAX@std@@@std@@V?$_Tree_val@U?$_Tree_simple_types@U?$pair@QEBVThreadLocalBase@internal@testing@@V?$shared_ptr@VThreadLocalValueHolderBase@internal@testing@@@std@@@std@@@std@@@2@$00@std@@QEAA@U_Zero_then_variadic_args_t@1@@Z
	??$?0$$V@?$_Compressed_pair@V?$allocator@U?$_Tree_node@V?$basic_string@DU?$char_traits@D@std@@V?$allocator@D@2@@std@@PEAX@std@@@std@@V?$_Tree_val@U?$_Tree_simple_types@V?$basic_string@DU?$char_traits@D@std@@V?$allocator@D@2@@std@@@std@@@2@$00@std@@QEAA@U_Zero_then_variadic_args_t@1@@Z
	??$?0$$V@?$_Compressed_pair@V?$allocator@U?$_Tree_node@VExpectation@testing@@PEAX@std@@@std@@V?$_Tree_val@U?$_Tree_simple_types@VExpectation@testing@@@std@@@2@$00@std@@QEAA@U_Zero_then_variadic_args_t@1@@Z
	??$?0$$V@?$_Compressed_pair@V?$allocator@U?$pair@_K_K@std@@@std@@V?$_Vector_val@U?$_Simple_types@U?$pair@_K_K@std@@@std@@@2@$00@std@@QEAA@U_Zero_then_variadic_args_t@1@@Z
	??$?0$$V@?$_Compressed_pair@V?$allocator@UTraceInfo@internal@testing@@@std@@V?$_Vector_val@U?$_Simple_types@UTraceInfo@internal@testing@@@std@@@2@$00@std@@QEAA@U_Zero_then_variadic_args_t@1@@Z
	??$?0$$V@?$_Compressed_pair@V?$allocator@V?$basic_string@DU?$char_traits@D@std@@V?$allocator@D@2@@std@@@std@@V?$_Vector_val@U?$_Simple_types@V?$basic_string@DU?$char_traits@D@std@@V?$allocator@D@2@@std@@@std@@@2@$00@std@@QEAA@U_Zero_then_variadic_args_t@1@@Z
	??$?0$$V@?$_Compressed_pair@V?$allocator@V?$shared_ptr@VExpectationBase@internal@testing@@@std@@@std@@V?$_Vector_val@U?$_Simple_types@V?$shared_ptr@VExpectationBase@internal@testing@@@std@@@std@@@2@$00@std@@QEAA@U_Zero_then_variadic_args_t@1@@Z
	??$?0$$V@?$_Compressed_pair@V?$allocator@V?$shared_ptr@VThreadLocalValueHolderBase@internal@testing@@@std@@@std@@V?$_Vector_val@U?$_Simple_types@V?$shared_ptr@VThreadLocalValueHolderBase@internal@testing@@@std@@@std@@@2@$00@std@@QEAA@U_Zero_then_variadic_args_t@1@@Z
	??$?0$$V@?$_Compressed_pair@V?$allocator@VTestPartResult@testing@@@std@@V?$_Vector_val@U?$_Simple_types@VTestPartResult@testing@@@std@@@2@$00@std@@QEAA@U_Zero_then_variadic_args_t@1@@Z
	??$?0$$V@?$_Compressed_pair@V?$allocator@VTestProperty@testing@@@std@@V?$_Vector_val@U?$_Simple_types@VTestProperty@testing@@@std@@@2@$00@std@@QEAA@U_Zero_then_variadic_args_t@1@@Z
	??$?0$$V@?$_Compressed_pair@V?$allocator@W4EditType@edit_distance@internal@testing@@@std@@V?$_Vector_val@U?$_Simple_types@W4EditType@edit_distance@internal@testing@@@std@@@2@$00@std@@QEAA@U_Zero_then_variadic_args_t@1@@Z
	??$?0$$V@?$_Compressed_pair@V?$allocator@_K@std@@V?$_Vector_val@U?$_Simple_types@_K@std@@@2@$00@std@@QEAA@U_Zero_then_variadic_args_t@1@@Z
	??$?0$$V@?$_Compressed_pair@V?$allocator@_W@std@@V?$_String_val@U?$_Simple_types@_W@std@@@2@$00@std@@QEAA@U_Zero_then_variadic_args_t@1@@Z
	??$?0AEAKV?$map@PEBVThreadLocalBase@internal@testing@@V?$shared_ptr@VThreadLocalValueHolderBase@internal@testing@@@std@@U?$less@PEBVThreadLocalBase@internal@testing@@@5@V?$allocator@U?$pair@QEBVThreadLocalBase@internal@testing@@V?$shared_ptr@VThreadLocalValueHolderBase@internal@testing@@@std@@@std@@@5@@std@@$0A@@?$pair@KV?$map@PEBVThreadLocalBase@internal@testing@@V?$shared_ptr@VThreadLocalValueHolderBase@internal@testing@@@std@@U?$less@PEBVThreadLocalBase@internal@testing@@@5@V?$allocator@U?$pair@QEBVThreadLocalBase@internal@testing@@V?$shared_ptr@VThreadLocalValueHolderBase@internal@testing@@@std@@@std@@@5@@std@@@std@@QEAA@AEAK$$QEAV?$map@PEBVThreadLocalBase@internal@testing@@V?$shared_ptr@VThreadLocalValueHolderBase@internal@testing@@@std@@U?$less@PEBVThreadLocalBase@internal@testing@@@5@V?$allocator@U?$pair@QEBVThreadLocalBase@internal@testing@@V?$shared_ptr@VThreadLocalValueHolderBase@internal@testing@@@std@@@std@@@5@@1@@Z
	??$?0AEAPEAU?$_List_node@U?$pair@$$CB_KW4CallReaction@internal@testing@@@std@@PEAX@std@@_N$0A@@?$pair@PEAU?$_List_node@U?$pair@$$CB_KW4CallReaction@internal@testing@@@std@@PEAX@std@@_N@std@@QEAA@AEAPEAU?$_List_node@U?$pair@$$CB_KW4CallReaction@internal@testing@@@std@@PEAX@1@$$QEA_N@Z
	??$?0AEAPEAU?$_Tree_node@PEAVUntypedFunctionMockerBase@internal@testing@@PEAX@std@@AEAPEAU01@$0A@@?$pair@PEAU?$_Tree_node@PEAVUntypedFunctionMockerBase@internal@testing@@PEAX@std@@PEAU12@@std@@QEAA@AEAPEAU?$_Tree_node@PEAVUntypedFunctionMockerBase@internal@testing@@PEAX@1@0@Z
	??$?0AEAPEAU?$_Tree_node@PEAVUntypedFunctionMockerBase@internal@testing@@PEAX@std@@_N$0A@@?$pair@PEAU?$_Tree_node@PEAVUntypedFunctionMockerBase@internal@testing@@PEAX@std@@_N@std@@QEAA@AEAPEAU?$_Tree_node@PEAVUntypedFunctionMockerBase@internal@testing@@PEAX@1@$$QEA_N@Z
	??$?0AEAPEAU?$_Tree_node@U?$pair@$$CBKV?$map@PEBVThreadLocalBase@internal@testing@@V?$shared_ptr@VThreadLocalValueHolderBase@internal@testing@@@std@@U?$less@PEBVThreadLocalBase@internal@testing@@@5@V?$allocator@U?$pair@QEBVThreadLocalBase@internal@testing@@V?$shared_ptr@VThreadLocalValueHolderBase@internal@testing@@@std@@@std@@@5@@std@@@std@@PEAX@std@@_N$0A@@?$pair@PEAU?$_Tree_node@U?$pair@$$CBKV?$map@PEBVThreadLocalBase@internal@testing@@V?$shared_ptr@VThreadLocalValueHolderBase@internal@testing@@@std@@U?$less@PEBVThreadLocalBase@internal@testing@@@5@V?$allocator@U?$pair@QEBVThreadLocalBase@internal@testing@@V?$shared_ptr@VThreadLocalValueHolderBase@internal@testing@@@std@@@std@@@5@@std@@@std@@PEAX@std@@_N@std@@QEAA@AEAPEAU?$_Tree_node@U?$pair@$$CBKV?$map@PEBVThreadLocalBase@internal@testing@@V?$shared_ptr@VThreadLocalValueHolderBase@internal@testing@@@std@@U?$less@PEBVThreadLocalBase@internal@testing@@@5@V?$allocator@U?$pair@QEBVThreadLocalBase@internal@testing@@V?$shared_ptr@VThreadLocalValueHolderBase@internal@testing@@@std@@@std@@@5@@std@@@std@@PEAX@1@$$QEA_N@Z
	??$?0AEAPEAU?$_Tree_node@U?$pair@$$CBV?$basic_string@DU?$char_traits@D@std@@V?$allocator@D@2@@std@@UTypeParameterizedTestSuiteInfo@TypeParameterizedTestSuiteRegistry@internal@testing@@@std@@PEAX@std@@_N$0A@@?$pair@PEAU?$_Tree_node@U?$pair@$$CBV?$basic_string@DU?$char_traits@D@std@@V?$allocator@D@2@@std@@UTypeParameterizedTestSuiteInfo@TypeParameterizedTestSuiteRegistry@internal@testing@@@std@@PEAX@std@@_N@std@@QEAA@AEAPEAU?$_Tree_node@U?$pair@$$CBV?$basic_string@DU?$char_traits@D@std@@V?$allocator@D@2@@std@@UTypeParameterizedTestSuiteInfo@TypeParameterizedTestSuiteRegistry@internal@testing@@@std@@PEAX@1@$$QEA_N@Z
	??$?0AEAPEAU?$_Tree_node@U?$pair@QEBVThreadLocalBase@internal@testing@@V?$shared_ptr@VThreadLocalValueHolderBase@internal@testing@@@std@@@std@@PEAX@std@@_N$0A@@?$pair@PEAU?$_Tree_node@U?$pair@QEBVThreadLocalBase@internal@testing@@V?$shared_ptr@VThreadLocalValueHolderBase@internal@testing@@@std@@@std@@PEAX@std@@_N@std@@QEAA@AEAPEAU?$_Tree_node@U?$pair@QEBVThreadLocalBase@internal@testing@@V?$shared_ptr@VThreadLocalValueHolderBase@internal@testing@@@std@@@std@@PEAX@1@$$QEA_N@Z
	??$?0AEAPEAU?$_Tree_node@V?$basic_string@DU?$char_traits@D@std@@V?$allocator@D@2@@std@@PEAX@std@@_N$0A@@?$pair@PEAU?$_Tree_node@V?$basic_string@DU?$char_traits@D@std@@V?$allocator@D@2@@std@@PEAX@std@@_N@std@@QEAA@AEAPEAU?$_Tree_node@V?$basic_string@DU?$char_traits@D@std@@V?$allocator@D@2@@std@@PEAX@1@$$QEA_N@Z
	??$?0AEAPEAU?$_Tree_node@VExpectation@testing@@PEAX@std@@_N$0A@@?$pair@PEAU?$_Tree_node@VExpectation@testing@@PEAX@std@@_N@std@@QEAA@AEAPEAU?$_Tree_node@VExpectation@testing@@PEAX@1@$$QEA_N@Z
	??$?0AEAPEAV?$basic_string@DU?$char_traits@D@std@@V?$allocator@D@2@@std@@@?$_Compressed_pair@U?$default_delete@V?$basic_string@DU?$char_traits@D@std@@V?$allocator@D@2@@std@@@std@@PEAV?$basic_string@DU?$char_traits@D@std@@V?$allocator@D@2@@2@$00@std@@QEAA@U_Zero_then_variadic_args_t@1@AEAPEAV?$basic_string@DU?$char_traits@D@std@@V?$allocator@D@2@@1@@Z
	??$?0AEAPEAV?$basic_stringstream@DU?$char_traits@D@std@@V?$allocator@D@2@@std@@@?$_Compressed_pair@U?$default_delete@V?$basic_stringstream@DU?$char_traits@D@std@@V?$allocator@D@2@@std@@@std@@PEAV?$basic_stringstream@DU?$char_traits@D@std@@V?$allocator@D@2@@2@$00@std@@QEAA@U_Zero_then_variadic_args_t@1@AEAPEAV?$basic_stringstream@DU?$char_traits@D@std@@V?$allocator@D@2@@1@@Z
	??$?0AEAPEAVDeathTestFactory@internal@testing@@@?$_Compressed_pair@U?$default_delete@VDeathTestFactory@internal@testing@@@std@@PEAVDeathTestFactory@internal@testing@@$00@std@@QEAA@U_Zero_then_variadic_args_t@1@AEAPEAVDeathTestFactory@internal@testing@@@Z
	??$?0AEAPEAVGTestFlagSaver@internal@testing@@@?$_Compressed_pair@U?$default_delete@VGTestFlagSaver@internal@testing@@@std@@PEAVGTestFlagSaver@internal@testing@@$00@std@@QEAA@U_Zero_then_variadic_args_t@1@AEAPEAVGTestFlagSaver@internal@testing@@@Z
	??$?0AEAPEAVRunnable@ThreadWithParamBase@internal@testing@@@?$_Compressed_pair@U?$default_delete@VRunnable@ThreadWithParamBase@internal@testing@@@std@@PEAVRunnable@ThreadWithParamBase@internal@testing@@$00@std@@QEAA@U_Zero_then_variadic_args_t@1@AEAPEAVRunnable@ThreadWithParamBase@internal@testing@@@Z
	??$?0AEAPEAVValueHolderFactory@?$ThreadLocal@PEAVSequence@testing@@@internal@testing@@@?$_Compressed_pair@U?$default_delete@VValueHolderFactory@?$ThreadLocal@PEAVSequence@testing@@@internal@testing@@@std@@PEAVValueHolderFactory@?$ThreadLocal@PEAVSequence@testing@@@internal@testing@@$00@std@@QEAA@U_Zero_then_variadic_args_t@1@AEAPEAVValueHolderFactory@?$ThreadLocal@PEAVSequence@testing@@@internal@testing@@@Z
	??$?0AEAPEAVValueHolderFactory@?$ThreadLocal@PEAVTestPartResultReporterInterface@testing@@@internal@testing@@@?$_Compressed_pair@U?$default_delete@VValueHolderFactory@?$ThreadLocal@PEAVTestPartResultReporterInterface@testing@@@internal@testing@@@std@@PEAVValueHolderFactory@?$ThreadLocal@PEAVTestPartResultReporterInterface@testing@@@internal@testing@@$00@std@@QEAA@U_Zero_then_variadic_args_t@1@AEAPEAVValueHolderFactory@?$ThreadLocal@PEAVTestPartResultReporterInterface@testing@@@internal@testing@@@Z
	??$?0AEAPEAVValueHolderFactory@?$ThreadLocal@V?$vector@UTraceInfo@internal@testing@@V?$allocator@UTraceInfo@internal@testing@@@std@@@std@@@internal@testing@@@?$_Compressed_pair@U?$default_delete@VValueHolderFactory@?$ThreadLocal@V?$vector@UTraceInfo@internal@testing@@V?$allocator@UTraceInfo@internal@testing@@@std@@@std@@@internal@testing@@@std@@PEAVValueHolderFactory@?$ThreadLocal@V?$vector@UTraceInfo@internal@testing@@V?$allocator@UTraceInfo@internal@testing@@@std@@@std@@@internal@testing@@$00@std@@QEAA@U_Zero_then_variadic_args_t@1@AEAPEAVValueHolderFactory@?$ThreadLocal@V?$vector@UTraceInfo@internal@testing@@V?$allocator@UTraceInfo@internal@testing@@@std@@@std@@@internal@testing@@@Z
	??$?0AEAPEBV?$basic_string@DU?$char_traits@D@std@@V?$allocator@D@2@@std@@@?$_Compressed_pair@U?$default_delete@$$CBV?$basic_string@DU?$char_traits@D@std@@V?$allocator@D@2@@std@@@std@@PEBV?$basic_string@DU?$char_traits@D@std@@V?$allocator@D@2@@2@$00@std@@QEAA@U_Zero_then_variadic_args_t@1@AEAPEBV?$basic_string@DU?$char_traits@D@std@@V?$allocator@D@2@@1@@Z
	??$?0AEAPEBVThreadLocalBase@internal@testing@@V?$shared_ptr@VThreadLocalValueHolderBase@internal@testing@@@std@@$0A@@?$pair@PEBVThreadLocalBase@internal@testing@@V?$shared_ptr@VThreadLocalValueHolderBase@internal@testing@@@std@@@std@@QEAA@AEAPEBVThreadLocalBase@internal@testing@@$$QEAV?$shared_ptr@VThreadLocalValueHolderBase@internal@testing@@@1@@Z
	??$?0AEAV?$allocator@D@std@@$$V@?$_Compressed_pair@V?$allocator@D@std@@V?$_String_val@U?$_Simple_types@D@std@@@2@$00@std@@QEAA@U_One_then_variadic_args_t@1@AEAV?$allocator@D@1@@Z
	??$?0AEA_KAEA_K$0A@@?$pair@_K_K@std@@QEAA@AEA_K0@Z
	??$?0AEBQEAU?$_Tree_node@U?$pair@$$CBV?$basic_string@DU?$char_traits@D@std@@V?$allocator@D@2@@std@@_K@std@@PEAX@std@@_N$0A@@?$pair@PEAU?$_Tree_node@U?$pair@$$CBV?$basic_string@DU?$char_traits@D@std@@V?$allocator@D@2@@std@@_K@std@@PEAX@std@@_N@std@@QEAA@AEBQEAU?$_Tree_node@U?$pair@$$CBV?$basic_string@DU?$char_traits@D@std@@V?$allocator@D@2@@std@@_K@std@@PEAX@1@$$QEA_N@Z
	??$?0AEBQEAVTestSuite@testing@@@?$_Alloc_temporary2@V?$allocator@PEAVTestSuite@testing@@@std@@@std@@QEAA@AEAV?$allocator@PEAVTestSuite@testing@@@1@AEBQEAVTestSuite@testing@@@Z
	??$?0AEBQEAVUntypedFunctionMockerBase@internal@testing@@@?$_Tree_temp_node@V?$allocator@U?$_Tree_node@PEAVUntypedFunctionMockerBase@internal@testing@@PEAX@std@@@std@@@std@@QEAA@AEAV?$allocator@U?$_Tree_node@PEAVUntypedFunctionMockerBase@internal@testing@@PEAX@std@@@1@PEAU?$_Tree_node@PEAVUntypedFunctionMockerBase@internal@testing@@PEAX@1@AEBQEAVUntypedFunctionMockerBase@internal@testing@@@Z
	??$?0AEBQEBX$0A@@?$tuple@AEBQEBX@std@@QEAA@AEBQEBX@Z
	??$?0AEBQEBX@?$_Tuple_val@AEBQEBX@std@@QEAA@AEBQEBX@Z
	??$?0AEBU?$less@K@std@@U_Zero_then_variadic_args_t@1@@?$_Compressed_pair@U?$less@K@std@@V?$_Compressed_pair@V?$allocator@U?$_Tree_node@U?$pair@$$CBKV?$map@PEBVThreadLocalBase@internal@testing@@V?$shared_ptr@VThreadLocalValueHolderBase@internal@testing@@@std@@U?$less@PEBVThreadLocalBase@internal@testing@@@5@V?$allocator@U?$pair@QEBVThreadLocalBase@internal@testing@@V?$shared_ptr@VThreadLocalValueHolderBase@internal@testing@@@std@@@std@@@5@@std@@@std@@PEAX@std@@@std@@V?$_Tree_val@U?$_Tree_simple_types@U?$pair@$$CBKV?$map@PEBVThreadLocalBase@internal@testing@@V?$shared_ptr@VThreadLocalValueHolderBase@internal@testing@@@std@@U?$less@PEBVThreadLocalBase@internal@testing@@@5@V?$allocator@U?$pair@QEBVThreadLocalBase@internal@testing@@V?$shared_ptr@VThreadLocalValueHolderBase@internal@testing@@@std@@@std@@@5@@std@@@std@@@std@@@2@$00@2@$00@std@@QEAA@U_One_then_variadic_args_t@1@AEBU?$less@K@1@$$QEAU_Zero_then_variadic_args_t@1@@Z
	??$?0AEBU?$less@PEAVUntypedFunctionMockerBase@internal@testing@@@std@@U_Zero_then_variadic_args_t@1@@?$_Compressed_pair@U?$less@PEAVUntypedFunctionMockerBase@internal@testing@@@std@@V?$_Compressed_pair@V?$allocator@U?$_Tree_node@PEAVUntypedFunctionMockerBase@internal@testing@@PEAX@std@@@std@@V?$_Tree_val@U?$_Tree_simple_types@PEAVUntypedFunctionMockerBase@internal@testing@@@std@@@2@$00@2@$00@std@@QEAA@U_One_then_variadic_args_t@1@AEBU?$less@PEAVUntypedFunctionMockerBase@internal@testing@@@1@$$QEAU_Zero_then_variadic_args_t@1@@Z
	??$?0AEBU?$less@PEBVThreadLocalBase@internal@testing@@@std@@U_Zero_then_variadic_args_t@1@@?$_Compressed_pair@U?$less@PEBVThreadLocalBase@internal@testing@@@std@@V?$_Compressed_pair@V?$allocator@U?$_Tree_node@U?$pair@QEBVThreadLocalBase@internal@testing@@V?$shared_ptr@VThreadLocalValueHolderBase@internal@testing@@@std@@@std@@PEAX@std@@@std@@V?$_Tree_val@U?$_Tree_simple_types@U?$pair@QEBVThreadLocalBase@internal@testing@@V?$shared_ptr@VThreadLocalValueHolderBase@internal@testing@@@std@@@std@@@std@@@2@$00@2@$00@std@@QEAA@U_One_then_variadic_args_t@1@AEBU?$less@PEBVThreadLocalBase@internal@testing@@@1@$$QEAU_Zero_then_variadic_args_t@1@@Z
	??$?0AEBU?$less@V?$basic_string@DU?$char_traits@D@std@@V?$allocator@D@2@@std@@@std@@U_Zero_then_variadic_args_t@1@@?$_Compressed_pair@U?$less@V?$basic_string@DU?$char_traits@D@std@@V?$allocator@D@2@@std@@@std@@V?$_Compressed_pair@V?$allocator@U?$_Tree_node@U?$pair@$$CBV?$basic_string@DU?$char_traits@D@std@@V?$allocator@D@2@@std@@UTypeParameterizedTestSuiteInfo@TypeParameterizedTestSuiteRegistry@internal@testing@@@std@@PEAX@std@@@std@@V?$_Tree_val@U?$_Tree_simple_types@U?$pair@$$CBV?$basic_string@DU?$char_traits@D@std@@V?$allocator@D@2@@std@@UTypeParameterizedTestSuiteInfo@TypeParameterizedTestSuiteRegistry@internal@testing@@@std@@@std@@@2@$00@2@$00@std@@QEAA@U_One_then_variadic_args_t@1@AEBU?$less@V?$basic_string@DU?$char_traits@D@std@@V?$allocator@D@2@@std@@@1@$$QEAU_Zero_then_variadic_args_t@1@@Z
	??$?0AEBU?$less@V?$basic_string@DU?$char_traits@D@std@@V?$allocator@D@2@@std@@@std@@U_Zero_then_variadic_args_t@1@@?$_Compressed_pair@U?$less@V?$basic_string@DU?$char_traits@D@std@@V?$allocator@D@2@@std@@@std@@V?$_Compressed_pair@V?$allocator@U?$_Tree_node@U?$pair@$$CBV?$basic_string@DU?$char_traits@D@std@@V?$allocator@D@2@@std@@_K@std@@PEAX@std@@@std@@V?$_Tree_val@U?$_Tree_simple_types@U?$pair@$$CBV?$basic_string@DU?$char_traits@D@std@@V?$allocator@D@2@@std@@_K@std@@@std@@@2@$00@2@$00@std@@QEAA@U_One_then_variadic_args_t@1@AEBU?$less@V?$basic_string@DU?$char_traits@D@std@@V?$allocator@D@2@@std@@@1@$$QEAU_Zero_then_variadic_args_t@1@@Z
	??$?0AEBU?$less@V?$basic_string@DU?$char_traits@D@std@@V?$allocator@D@2@@std@@@std@@U_Zero_then_variadic_args_t@1@@?$_Compressed_pair@U?$less@V?$basic_string@DU?$char_traits@D@std@@V?$allocator@D@2@@std@@@std@@V?$_Compressed_pair@V?$allocator@U?$_Tree_node@V?$basic_string@DU?$char_traits@D@std@@V?$allocator@D@2@@std@@PEAX@std@@@std@@V?$_Tree_val@U?$_Tree_simple_types@V?$basic_string@DU?$char_traits@D@std@@V?$allocator@D@2@@std@@@std@@@2@$00@2@$00@std@@QEAA@U_One_then_variadic_args_t@1@AEBU?$less@V?$basic_string@DU?$char_traits@D@std@@V?$allocator@D@2@@std@@@1@$$QEAU_Zero_then_variadic_args_t@1@@Z
	??$?0AEBUpiecewise_construct_t@std@@V?$tuple@$$QEA_K@1@V?$tuple@$$V@1@@?$_List_node_emplace_op2@V?$allocator@U?$_List_node@U?$pair@$$CB_KW4CallReaction@internal@testing@@@std@@PEAX@std@@@std@@@std@@QEAA@AEAV?$allocator@U?$_List_node@U?$pair@$$CB_KW4CallReaction@internal@testing@@@std@@PEAX@std@@@1@AEBUpiecewise_construct_t@1@$$QEAV?$tuple@$$QEA_K@1@$$QEAV?$tuple@$$V@1@@Z
	??$?0AEBUpiecewise_construct_t@std@@V?$tuple@AEBV?$basic_string@DU?$char_traits@D@std@@V?$allocator@D@2@@std@@@1@V?$tuple@$$V@1@@?$_Tree_temp_node@V?$allocator@U?$_Tree_node@U?$pair@$$CBV?$basic_string@DU?$char_traits@D@std@@V?$allocator@D@2@@std@@_K@std@@PEAX@std@@@std@@@std@@QEAA@AEAV?$allocator@U?$_Tree_node@U?$pair@$$CBV?$basic_string@DU?$char_traits@D@std@@V?$allocator@D@2@@std@@_K@std@@PEAX@std@@@1@PEAU?$_Tree_node@U?$pair@$$CBV?$basic_string@DU?$char_traits@D@std@@V?$allocator@D@2@@std@@_K@std@@PEAX@1@AEBUpiecewise_construct_t@1@$$QEAV?$tuple@AEBV?$basic_string@DU?$char_traits@D@std@@V?$allocator@D@2@@std@@@1@$$QEAV?$tuple@$$V@1@@Z
	??$?0AEBUpiecewise_construct_t@std@@V?$tuple@AEB_K@1@V?$tuple@$$V@1@@?$_List_node_emplace_op2@V?$allocator@U?$_List_node@U?$pair@$$CB_KW4CallReaction@internal@testing@@@std@@PEAX@std@@@std@@@std@@QEAA@AEAV?$allocator@U?$_List_node@U?$pair@$$CB_KW4CallReaction@internal@testing@@@std@@PEAX@std@@@1@AEBUpiecewise_construct_t@1@$$QEAV?$tuple@AEB_K@1@$$QEAV?$tuple@$$V@1@@Z
	??$?0AEBV?$allocator@D@std@@$$V@?$_Compressed_pair@V?$allocator@D@std@@V?$_String_val@U?$_Simple_types@D@std@@@2@$00@std@@QEAA@U_One_then_variadic_args_t@1@AEBV?$allocator@D@1@@Z
	??$?0AEBV?$allocator@D@std@@$$V@?$_Compressed_pair@V?$allocator@D@std@@V?$_Vector_val@U?$_Simple_types@D@std@@@2@$00@std@@QEAA@U_One_then_variadic_args_t@1@AEBV?$allocator@D@1@@Z
	??$?0AEBV?$allocator@N@std@@$$V@?$_Compressed_pair@V?$allocator@N@std@@V?$_Vector_val@U?$_Simple_types@N@std@@@2@$00@std@@QEAA@U_One_then_variadic_args_t@1@AEBV?$allocator@N@1@@Z
	??$?0AEBV?$allocator@PEAVExpectationBase@internal@testing@@@std@@$$V@?$_Compressed_pair@V?$allocator@PEAVExpectationBase@internal@testing@@@std@@V?$_Vector_val@U?$_Simple_types@PEAVExpectationBase@internal@testing@@@std@@@2@$00@std@@QEAA@U_One_then_variadic_args_t@1@AEBV?$allocator@PEAVExpectationBase@internal@testing@@@1@@Z
	??$?0AEBV?$allocator@PEBVExpectationBase@internal@testing@@@std@@$$V@?$_Compressed_pair@V?$allocator@PEBVExpectationBase@internal@testing@@@std@@V?$_Vector_val@U?$_Simple_types@PEBVExpectationBase@internal@testing@@@std@@@2@$00@std@@QEAA@U_One_then_variadic_args_t@1@AEBV?$allocator@PEBVExpectationBase@internal@testing@@@1@@Z
	??$?0AEBV?$allocator@U?$pair@$$CBV?$basic_string@DU?$char_traits@D@std@@V?$allocator@D@2@@std@@PEAVTestSuite@testing@@@std@@@std@@$$V@?$_Compressed_pair@V?$allocator@U?$_List_node@U?$pair@$$CBV?$basic_string@DU?$char_traits@D@std@@V?$allocator@D@2@@std@@PEAVTestSuite@testing@@@std@@PEAX@std@@@std@@V?$_List_val@U?$_List_simple_types@U?$pair@$$CBV?$basic_string@DU?$char_traits@D@std@@V?$allocator@D@2@@std@@PEAVTestSuite@testing@@@std@@@std@@@2@$00@std@@QEAA@U_One_then_variadic_args_t@1@AEBV?$allocator@U?$pair@$$CBV?$basic_string@DU?$char_traits@D@std@@V?$allocator@D@2@@std@@PEAVTestSuite@testing@@@std@@@1@@Z
	??$?0AEBV?$allocator@U?$pair@$$CBV?$basic_string@DU?$char_traits@D@std@@V?$allocator@D@2@@std@@PEAVTestSuite@testing@@@std@@@std@@$$V@?$_Compressed_pair@V?$allocator@V?$_List_unchecked_iterator@V?$_List_val@U?$_List_simple_types@U?$pair@$$CBV?$basic_string@DU?$char_traits@D@std@@V?$allocator@D@2@@std@@PEAVTestSuite@testing@@@std@@@std@@@std@@@std@@@std@@V?$_Vector_val@U?$_Simple_types@V?$_List_unchecked_iterator@V?$_List_val@U?$_List_simple_types@U?$pair@$$CBV?$basic_string@DU?$char_traits@D@std@@V?$allocator@D@2@@std@@PEAVTestSuite@testing@@@std@@@std@@@std@@@std@@@std@@@2@$00@std@@QEAA@U_One_then_variadic_args_t@1@AEBV?$allocator@U?$pair@$$CBV?$basic_string@DU?$char_traits@D@std@@V?$allocator@D@2@@std@@PEAVTestSuite@testing@@@std@@@1@@Z
	??$?0AEBV?$allocator@U?$pair@$$CBV?$basic_string@DU?$char_traits@D@std@@V?$allocator@D@2@@std@@PEAVTestSuite@testing@@@std@@@std@@$0A@@?$_Hash_vec@V?$allocator@V?$_List_unchecked_iterator@V?$_List_val@U?$_List_simple_types@U?$pair@$$CBV?$basic_string@DU?$char_traits@D@std@@V?$allocator@D@2@@std@@PEAVTestSuite@testing@@@std@@@std@@@std@@@std@@@std@@@std@@QEAA@AEBV?$allocator@U?$pair@$$CBV?$basic_string@DU?$char_traits@D@std@@V?$allocator@D@2@@std@@PEAVTestSuite@testing@@@std@@@1@@Z
	??$?0AEBV?$allocator@U?$pair@$$CBV?$basic_string@DU?$char_traits@D@std@@V?$allocator@D@2@@std@@_K@std@@@std@@$$V@?$_Compressed_pair@V?$allocator@U?$_List_node@U?$pair@$$CBV?$basic_string@DU?$char_traits@D@std@@V?$allocator@D@2@@std@@_K@std@@PEAX@std@@@std@@V?$_List_val@U?$_List_simple_types@U?$pair@$$CBV?$basic_string@DU?$char_traits@D@std@@V?$allocator@D@2@@std@@_K@std@@@std@@@2@$00@std@@QEAA@U_One_then_variadic_args_t@1@AEBV?$allocator@U?$pair@$$CBV?$basic_string@DU?$char_traits@D@std@@V?$allocator@D@2@@std@@_K@std@@@1@@Z
	??$?0AEBV?$allocator@U?$pair@$$CBV?$basic_string@DU?$char_traits@D@std@@V?$allocator@D@2@@std@@_K@std@@@std@@$$V@?$_Compressed_pair@V?$allocator@V?$_List_unchecked_iterator@V?$_List_val@U?$_List_simple_types@U?$pair@$$CBV?$basic_string@DU?$char_traits@D@std@@V?$allocator@D@2@@std@@_K@std@@@std@@@std@@@std@@@std@@V?$_Vector_val@U?$_Simple_types@V?$_List_unchecked_iterator@V?$_List_val@U?$_List_simple_types@U?$pair@$$CBV?$basic_string@DU?$char_traits@D@std@@V?$allocator@D@2@@std@@_K@std@@@std@@@std@@@std@@@std@@@2@$00@std@@QEAA@U_One_then_variadic_args_t@1@AEBV?$allocator@U?$pair@$$CBV?$basic_string@DU?$char_traits@D@std@@V?$allocator@D@2@@std@@_K@std@@@1@@Z
	??$?0AEBV?$allocator@U?$pair@$$CBV?$basic_string@DU?$char_traits@D@std@@V?$allocator@D@2@@std@@_K@std@@@std@@$0A@@?$_Hash_vec@V?$allocator@V?$_List_unchecked_iterator@V?$_List_val@U?$_List_simple_types@U?$pair@$$CBV?$basic_string@DU?$char_traits@D@std@@V?$allocator@D@2@@std@@_K@std@@@std@@@std@@@std@@@std@@@std@@QEAA@AEBV?$allocator@U?$pair@$$CBV?$basic_string@DU?$char_traits@D@std@@V?$allocator@D@2@@std@@_K@std@@@1@@Z
	??$?0AEBV?$allocator@U?$pair@$$CB_KW4CallReaction@internal@testing@@@std@@@std@@$$V@?$_Compressed_pair@V?$allocator@U?$_List_node@U?$pair@$$CB_KW4CallReaction@internal@testing@@@std@@PEAX@std@@@std@@V?$_List_val@U?$_List_simple_types@U?$pair@$$CB_KW4CallReaction@internal@testing@@@std@@@std@@@2@$00@std@@QEAA@U_One_then_variadic_args_t@1@AEBV?$allocator@U?$pair@$$CB_KW4CallReaction@internal@testing@@@std@@@1@@Z
	??$?0AEBV?$allocator@U?$pair@$$CB_KW4CallReaction@internal@testing@@@std@@@std@@$$V@?$_Compressed_pair@V?$allocator@V?$_List_unchecked_iterator@V?$_List_val@U?$_List_simple_types@U?$pair@$$CB_KW4CallReaction@internal@testing@@@std@@@std@@@std@@@std@@@std@@V?$_Vector_val@U?$_Simple_types@V?$_List_unchecked_iterator@V?$_List_val@U?$_List_simple_types@U?$pair@$$CB_KW4CallReaction@internal@testing@@@std@@@std@@@std@@@std@@@std@@@2@$00@std@@QEAA@U_One_then_variadic_args_t@1@AEBV?$allocator@U?$pair@$$CB_KW4CallReaction@internal@testing@@@std@@@1@@Z
	??$?0AEBV?$allocator@U?$pair@$$CB_KW4CallReaction@internal@testing@@@std@@@std@@$0A@@?$_Hash_vec@V?$allocator@V?$_List_unchecked_iterator@V?$_List_val@U?$_List_simple_types@U?$pair@$$CB_KW4CallReaction@internal@testing@@@std@@@std@@@std@@@std@@@std@@@std@@QEAA@AEBV?$allocator@U?$pair@$$CB_KW4CallReaction@internal@testing@@@std@@@1@@Z
	??$?0AEBV?$allocator@V?$basic_string@DU?$char_traits@D@std@@V?$allocator@D@2@@std@@@std@@$$V@?$_Compressed_pair@V?$allocator@U?$_List_node@V?$basic_string@DU?$char_traits@D@std@@V?$allocator@D@2@@std@@PEAX@std@@@std@@V?$_List_val@U?$_List_simple_types@V?$basic_string@DU?$char_traits@D@std@@V?$allocator@D@2@@std@@@std@@@2@$00@std@@QEAA@U_One_then_variadic_args_t@1@AEBV?$allocator@V?$basic_string@DU?$char_traits@D@std@@V?$allocator@D@2@@std@@@1@@Z
	??$?0AEBV?$allocator@V?$basic_string@DU?$char_traits@D@std@@V?$allocator@D@2@@std@@@std@@$$V@?$_Compressed_pair@V?$allocator@V?$_List_unchecked_const_iterator@V?$_List_val@U?$_List_simple_types@V?$basic_string@DU?$char_traits@D@std@@V?$allocator@D@2@@std@@@std@@@std@@U_Iterator_base0@2@@std@@@std@@V?$_Vector_val@U?$_Simple_types@V?$_List_unchecked_const_iterator@V?$_List_val@U?$_List_simple_types@V?$basic_string@DU?$char_traits@D@std@@V?$allocator@D@2@@std@@@std@@@std@@U_Iterator_base0@2@@std@@@std@@@2@$00@std@@QEAA@U_One_then_variadic_args_t@1@AEBV?$allocator@V?$basic_string@DU?$char_traits@D@std@@V?$allocator@D@2@@std@@@1@@Z
	??$?0AEBV?$allocator@V?$basic_string@DU?$char_traits@D@std@@V?$allocator@D@2@@std@@@std@@$$V@?$_Compressed_pair@V?$allocator@V?$basic_string@DU?$char_traits@D@std@@V?$allocator@D@2@@std@@@std@@V?$_Vector_val@U?$_Simple_types@V?$basic_string@DU?$char_traits@D@std@@V?$allocator@D@2@@std@@@std@@@2@$00@std@@QEAA@U_One_then_variadic_args_t@1@AEBV?$allocator@V?$basic_string@DU?$char_traits@D@std@@V?$allocator@D@2@@std@@@1@@Z
	??$?0AEBV?$allocator@V?$basic_string@DU?$char_traits@D@std@@V?$allocator@D@2@@std@@@std@@$0A@@?$_Hash_vec@V?$allocator@V?$_List_unchecked_const_iterator@V?$_List_val@U?$_List_simple_types@V?$basic_string@DU?$char_traits@D@std@@V?$allocator@D@2@@std@@@std@@@std@@U_Iterator_base0@2@@std@@@std@@@std@@QEAA@AEBV?$allocator@V?$basic_string@DU?$char_traits@D@std@@V?$allocator@D@2@@std@@@1@@Z
	??$?0AEBV?$allocator@V?$vector@NV?$allocator@N@std@@@std@@@std@@$$V@?$_Compressed_pair@V?$allocator@V?$vector@NV?$allocator@N@std@@@std@@@std@@V?$_Vector_val@U?$_Simple_types@V?$vector@NV?$allocator@N@std@@@std@@@std@@@2@$00@std@@QEAA@U_One_then_variadic_args_t@1@AEBV?$allocator@V?$vector@NV?$allocator@N@std@@@std@@@1@@Z
	??$?0AEBV?$allocator@V?$vector@W4EditType@edit_distance@internal@testing@@V?$allocator@W4EditType@edit_distance@internal@testing@@@std@@@std@@@std@@$$V@?$_Compressed_pair@V?$allocator@V?$vector@W4EditType@edit_distance@internal@testing@@V?$allocator@W4EditType@edit_distance@internal@testing@@@std@@@std@@@std@@V?$_Vector_val@U?$_Simple_types@V?$vector@W4EditType@edit_distance@internal@testing@@V?$allocator@W4EditType@edit_distance@internal@testing@@@std@@@std@@@std@@@2@$00@std@@QEAA@U_One_then_variadic_args_t@1@AEBV?$allocator@V?$vector@W4EditType@edit_distance@internal@testing@@V?$allocator@W4EditType@edit_distance@internal@testing@@@std@@@std@@@1@@Z
	??$?0AEBV?$allocator@W4EditType@edit_distance@internal@testing@@@std@@$$V@?$_Compressed_pair@V?$allocator@W4EditType@edit_distance@internal@testing@@@std@@V?$_Vector_val@U?$_Simple_types@W4EditType@edit_distance@internal@testing@@@std@@@2@$00@std@@QEAA@U_One_then_variadic_args_t@1@AEBV?$allocator@W4EditType@edit_distance@internal@testing@@@1@@Z
	??$?0AEBV?$allocator@_K@std@@$$V@?$_Compressed_pair@V?$allocator@_K@std@@V?$_Vector_val@U?$_Simple_types@_K@std@@@2@$00@std@@QEAA@U_One_then_variadic_args_t@1@AEBV?$allocator@_K@1@@Z
	??$?0AEBV?$basic_string@DU?$char_traits@D@std@@V?$allocator@D@2@@std@@$$Z$$V@?$pair@$$CBV?$basic_string@DU?$char_traits@D@std@@V?$allocator@D@2@@std@@_K@std@@QEAA@Upiecewise_construct_t@1@V?$tuple@AEBV?$basic_string@DU?$char_traits@D@std@@V?$allocator@D@2@@std@@@1@V?$tuple@$$V@1@@Z
	??$?0AEBV?$basic_string@DU?$char_traits@D@std@@V?$allocator@D@2@@std@@$0A@@?$tuple@AEBV?$basic_string@DU?$char_traits@D@std@@V?$allocator@D@2@@std@@@std@@QEAA@AEBV?$basic_string@DU?$char_traits@D@std@@V?$allocator@D@2@@1@@Z
	??$?0AEBV?$basic_string@DU?$char_traits@D@std@@V?$allocator@D@2@@std@@@?$_Tree_temp_node@V?$allocator@U?$_Tree_node@V?$basic_string@DU?$char_traits@D@std@@V?$allocator@D@2@@std@@PEAX@std@@@std@@@std@@QEAA@AEAV?$allocator@U?$_Tree_node@V?$basic_string@DU?$char_traits@D@std@@V?$allocator@D@2@@std@@PEAX@std@@@1@PEAU?$_Tree_node@V?$basic_string@DU?$char_traits@D@std@@V?$allocator@D@2@@std@@PEAX@1@AEBV?$basic_string@DU?$char_traits@D@std@@V?$allocator@D@2@@1@@Z
	??$?0AEBV?$basic_string@DU?$char_traits@D@std@@V?$allocator@D@2@@std@@@?$_Tuple_val@AEBV?$basic_string@DU?$char_traits@D@std@@V?$allocator@D@2@@std@@@std@@QEAA@AEBV?$basic_string@DU?$char_traits@D@std@@V?$allocator@D@2@@1@@Z
	??$?0AEBV?$basic_string@DU?$char_traits@D@std@@V?$allocator@D@2@@std@@AEBQEAVTestSuite@testing@@@?$_List_node_emplace_op2@V?$allocator@U?$_List_node@U?$pair@$$CBV?$basic_string@DU?$char_traits@D@std@@V?$allocator@D@2@@std@@PEAVTestSuite@testing@@@std@@PEAX@std@@@std@@@std@@QEAA@AEAV?$allocator@U?$_List_node@U?$pair@$$CBV?$basic_string@DU?$char_traits@D@std@@V?$allocator@D@2@@std@@PEAVTestSuite@testing@@@std@@PEAX@std@@@1@AEBV?$basic_string@DU?$char_traits@D@std@@V?$allocator@D@2@@1@AEBQEAVTestSuite@testing@@@Z
	??$?0AEBVExpectation@testing@@@?$_Tree_temp_node@V?$allocator@U?$_Tree_node@VExpectation@testing@@PEAX@std@@@std@@@std@@QEAA@AEAV?$allocator@U?$_Tree_node@VExpectation@testing@@PEAX@std@@@1@PEAU?$_Tree_node@VExpectation@testing@@PEAX@1@AEBVExpectation@testing@@@Z
	??$?0AEBVLess@Expectation@testing@@U_Zero_then_variadic_args_t@std@@@?$_Compressed_pair@VLess@Expectation@testing@@V?$_Compressed_pair@V?$allocator@U?$_Tree_node@VExpectation@testing@@PEAX@std@@@std@@V?$_Tree_val@U?$_Tree_simple_types@VExpectation@testing@@@std@@@2@$00@std@@$00@std@@QEAA@U_One_then_variadic_args_t@1@AEBVLess@Expectation@testing@@$$QEAU_Zero_then_variadic_args_t@1@@Z
	??$?0AEB_K$$Z$$V@?$pair@$$CB_KW4CallReaction@internal@testing@@@std@@QEAA@Upiecewise_construct_t@1@V?$tuple@AEB_K@1@V?$tuple@$$V@1@@Z
	??$?0AEB_K$0A@@?$tuple@AEB_K@std@@QEAA@AEB_K@Z
	??$?0AEB_K@?$_Tuple_val@AEB_K@std@@QEAA@AEB_K@Z
	??$?0DAEAPEBD$0A@@?$pair@DPEBD@std@@QEAA@$$QEADAEAPEBD@Z
	??$?0KV?$map@PEBVThreadLocalBase@internal@testing@@V?$shared_ptr@VThreadLocalValueHolderBase@internal@testing@@@std@@U?$less@PEBVThreadLocalBase@internal@testing@@@5@V?$allocator@U?$pair@QEBVThreadLocalBase@internal@testing@@V?$shared_ptr@VThreadLocalValueHolderBase@internal@testing@@@std@@@std@@@5@@std@@$0A@@?$pair@$$CBKV?$map@PEBVThreadLocalBase@internal@testing@@V?$shared_ptr@VThreadLocalValueHolderBase@internal@testing@@@std@@U?$less@PEBVThreadLocalBase@internal@testing@@@5@V?$allocator@U?$pair@QEBVThreadLocalBase@internal@testing@@V?$shared_ptr@VThreadLocalValueHolderBase@internal@testing@@@std@@@std@@@5@@std@@@std@@QEAA@$$QEAU?$pair@KV?$map@PEBVThreadLocalBase@internal@testing@@V?$shared_ptr@VThreadLocalValueHolderBase@internal@testing@@@std@@U?$less@PEBVThreadLocalBase@internal@testing@@@5@V?$allocator@U?$pair@QEBVThreadLocalBase@internal@testing@@V?$shared_ptr@VThreadLocalValueHolderBase@internal@testing@@@std@@@std@@@5@@std@@@1@@Z
	??$?0M@?$_Compressed_pair@U?$equal_to@V?$basic_string@DU?$char_traits@D@std@@V?$allocator@D@2@@std@@@std@@M$00@std@@QEAA@U_Zero_then_variadic_args_t@1@$$QEAM@Z
	??$?0M@?$_Compressed_pair@U?$equal_to@_K@std@@M$00@std@@QEAA@U_Zero_then_variadic_args_t@1@$$QEAM@Z
	??$?0PEAPEAVTestInfo@testing@@AEA_J$0A@@?$pair@PEAPEAVTestInfo@testing@@_J@std@@QEAA@$$QEAPEAPEAVTestInfo@testing@@AEA_J@Z
	??$?0PEAU?$_List_node@U?$pair@$$CB_KW4CallReaction@internal@testing@@@std@@PEAX@std@@_N$0A@@?$pair@PEAU?$_List_node@U?$pair@$$CB_KW4CallReaction@internal@testing@@@std@@PEAX@std@@_N@std@@QEAA@$$QEAPEAU?$_List_node@U?$pair@$$CB_KW4CallReaction@internal@testing@@@std@@PEAX@1@$$QEA_N@Z
	??$?0PEAU?$_Tree_node@PEAVUntypedFunctionMockerBase@internal@testing@@PEAX@std@@_N$0A@@?$pair@PEAU?$_Tree_node@PEAVUntypedFunctionMockerBase@internal@testing@@PEAX@std@@_N@std@@QEAA@$$QEAPEAU?$_Tree_node@PEAVUntypedFunctionMockerBase@internal@testing@@PEAX@1@$$QEA_N@Z
	??$?0PEAU?$_Tree_node@U?$pair@$$CBKV?$map@PEBVThreadLocalBase@internal@testing@@V?$shared_ptr@VThreadLocalValueHolderBase@internal@testing@@@std@@U?$less@PEBVThreadLocalBase@internal@testing@@@5@V?$allocator@U?$pair@QEBVThreadLocalBase@internal@testing@@V?$shared_ptr@VThreadLocalValueHolderBase@internal@testing@@@std@@@std@@@5@@std@@@std@@PEAX@std@@_N$0A@@?$pair@PEAU?$_Tree_node@U?$pair@$$CBKV?$map@PEBVThreadLocalBase@internal@testing@@V?$shared_ptr@VThreadLocalValueHolderBase@internal@testing@@@std@@U?$less@PEBVThreadLocalBase@internal@testing@@@5@V?$allocator@U?$pair@QEBVThreadLocalBase@internal@testing@@V?$shared_ptr@VThreadLocalValueHolderBase@internal@testing@@@std@@@std@@@5@@std@@@std@@PEAX@std@@_N@std@@QEAA@$$QEAPEAU?$_Tree_node@U?$pair@$$CBKV?$map@PEBVThreadLocalBase@internal@testing@@V?$shared_ptr@VThreadLocalValueHolderBase@internal@testing@@@std@@U?$less@PEBVThreadLocalBase@internal@testing@@@5@V?$allocator@U?$pair@QEBVThreadLocalBase@internal@testing@@V?$shared_ptr@VThreadLocalValueHolderBase@internal@testing@@@std@@@std@@@5@@std@@@std@@PEAX@1@$$QEA_N@Z
	??$?0PEAU?$_Tree_node@U?$pair@$$CBV?$basic_string@DU?$char_traits@D@std@@V?$allocator@D@2@@std@@UTypeParameterizedTestSuiteInfo@TypeParameterizedTestSuiteRegistry@internal@testing@@@std@@PEAX@std@@_N$0A@@?$pair@PEAU?$_Tree_node@U?$pair@$$CBV?$basic_string@DU?$char_traits@D@std@@V?$allocator@D@2@@std@@UTypeParameterizedTestSuiteInfo@TypeParameterizedTestSuiteRegistry@internal@testing@@@std@@PEAX@std@@_N@std@@QEAA@$$QEAPEAU?$_Tree_node@U?$pair@$$CBV?$basic_string@DU?$char_traits@D@std@@V?$allocator@D@2@@std@@UTypeParameterizedTestSuiteInfo@TypeParameterizedTestSuiteRegistry@internal@testing@@@std@@PEAX@1@$$QEA_N@Z
	??$?0PEAU?$_Tree_node@U?$pair@$$CBV?$basic_string@DU?$char_traits@D@std@@V?$allocator@D@2@@std@@_K@std@@PEAX@std@@_N$0A@@?$pair@PEAU?$_Tree_node@U?$pair@$$CBV?$basic_string@DU?$char_traits@D@std@@V?$allocator@D@2@@std@@_K@std@@PEAX@std@@_N@std@@QEAA@$$QEAPEAU?$_Tree_node@U?$pair@$$CBV?$basic_string@DU?$char_traits@D@std@@V?$allocator@D@2@@std@@_K@std@@PEAX@1@$$QEA_N@Z
	??$?0PEAU?$_Tree_node@U?$pair@QEBVThreadLocalBase@internal@testing@@V?$shared_ptr@VThreadLocalValueHolderBase@internal@testing@@@std@@@std@@PEAX@std@@_N$0A@@?$pair@PEAU?$_Tree_node@U?$pair@QEBVThreadLocalBase@internal@testing@@V?$shared_ptr@VThreadLocalValueHolderBase@internal@testing@@@std@@@std@@PEAX@std@@_N@std@@QEAA@$$QEAPEAU?$_Tree_node@U?$pair@QEBVThreadLocalBase@internal@testing@@V?$shared_ptr@VThreadLocalValueHolderBase@internal@testing@@@std@@@std@@PEAX@1@$$QEA_N@Z
	??$?0PEAU?$_Tree_node@V?$basic_string@DU?$char_traits@D@std@@V?$allocator@D@2@@std@@PEAX@std@@_N$0A@@?$pair@PEAU?$_Tree_node@V?$basic_string@DU?$char_traits@D@std@@V?$allocator@D@2@@std@@PEAX@std@@_N@std@@QEAA@$$QEAPEAU?$_Tree_node@V?$basic_string@DU?$char_traits@D@std@@V?$allocator@D@2@@std@@PEAX@1@$$QEA_N@Z
	??$?0PEAU?$_Tree_node@VExpectation@testing@@PEAX@std@@_N$0A@@?$pair@PEAU?$_Tree_node@VExpectation@testing@@PEAX@std@@_N@std@@QEAA@$$QEAPEAU?$_Tree_node@VExpectation@testing@@PEAX@1@$$QEA_N@Z
	??$?0PEBD$0A@@?$basic_string@DU?$char_traits@D@std@@V?$allocator@D@2@@std@@QEAA@PEBD0AEBV?$allocator@D@1@@Z
	??$?0PEBQEBD$0A@@?$vector@V?$basic_string@DU?$char_traits@D@std@@V?$allocator@D@2@@std@@V?$allocator@V?$basic_string@DU?$char_traits@D@std@@V?$allocator@D@2@@std@@@2@@std@@QEAA@PEBQEBD0AEBV?$allocator@V?$basic_string@DU?$char_traits@D@std@@V?$allocator@D@2@@std@@@1@@Z
	??$?0PEBV?$EqMatcher@V?$basic_string@DU?$char_traits@D@std@@V?$allocator@D@2@@std@@@internal@testing@@@?$_Tuple_val@PEBV?$EqMatcher@V?$basic_string@DU?$char_traits@D@std@@V?$allocator@D@2@@std@@@internal@testing@@@std@@QEAA@$$QEAPEBV?$EqMatcher@V?$basic_string@DU?$char_traits@D@std@@V?$allocator@D@2@@std@@@internal@testing@@@Z
	??$?0PEBV?$MatcherBase@AEBV?$basic_string@DU?$char_traits@D@std@@V?$allocator@D@2@@std@@@internal@testing@@@?$_Tuple_val@PEBV?$MatcherBase@AEBV?$basic_string@DU?$char_traits@D@std@@V?$allocator@D@2@@std@@@internal@testing@@@std@@QEAA@$$QEAPEBV?$MatcherBase@AEBV?$basic_string@DU?$char_traits@D@std@@V?$allocator@D@2@@std@@@internal@testing@@@Z
	??$?0PEBV?$MatcherBase@AEBV?$basic_string@DU?$char_traits@D@std@@V?$allocator@D@2@@std@@@internal@testing@@PEBV?$EqMatcher@V?$basic_string@DU?$char_traits@D@std@@V?$allocator@D@2@@std@@@12@$0A@@?$tuple@PEBV?$MatcherBase@AEBV?$basic_string@DU?$char_traits@D@std@@V?$allocator@D@2@@std@@@internal@testing@@PEBV?$EqMatcher@V?$basic_string@DU?$char_traits@D@std@@V?$allocator@D@2@@std@@@23@@std@@QEAA@$$QEAPEBV?$MatcherBase@AEBV?$basic_string@DU?$char_traits@D@std@@V?$allocator@D@2@@std@@@internal@testing@@$$QEAPEBV?$EqMatcher@V?$basic_string@DU?$char_traits@D@std@@V?$allocator@D@2@@std@@@34@@Z
	??$?0PEBV?$MatcherBase@AEBV?$basic_string_view@DU?$char_traits@D@std@@@std@@@internal@testing@@@?$_Tuple_val@PEBV?$MatcherBase@AEBV?$basic_string_view@DU?$char_traits@D@std@@@std@@@internal@testing@@@std@@QEAA@$$QEAPEBV?$MatcherBase@AEBV?$basic_string_view@DU?$char_traits@D@std@@@std@@@internal@testing@@@Z
	??$?0PEBV?$MatcherBase@AEBV?$basic_string_view@DU?$char_traits@D@std@@@std@@@internal@testing@@PEBV?$EqMatcher@V?$basic_string@DU?$char_traits@D@std@@V?$allocator@D@2@@std@@@12@$0A@@?$tuple@PEBV?$MatcherBase@AEBV?$basic_string_view@DU?$char_traits@D@std@@@std@@@internal@testing@@PEBV?$EqMatcher@V?$basic_string@DU?$char_traits@D@std@@V?$allocator@D@2@@std@@@23@@std@@QEAA@$$QEAPEBV?$MatcherBase@AEBV?$basic_string_view@DU?$char_traits@D@std@@@std@@@internal@testing@@$$QEAPEBV?$EqMatcher@V?$basic_string@DU?$char_traits@D@std@@V?$allocator@D@2@@std@@@34@@Z
	??$?0PEBV?$MatcherBase@V?$basic_string@DU?$char_traits@D@std@@V?$allocator@D@2@@std@@@internal@testing@@@?$_Tuple_val@PEBV?$MatcherBase@V?$basic_string@DU?$char_traits@D@std@@V?$allocator@D@2@@std@@@internal@testing@@@std@@QEAA@$$QEAPEBV?$MatcherBase@V?$basic_string@DU?$char_traits@D@std@@V?$allocator@D@2@@std@@@internal@testing@@@Z
	??$?0PEBV?$MatcherBase@V?$basic_string@DU?$char_traits@D@std@@V?$allocator@D@2@@std@@@internal@testing@@PEBV?$EqMatcher@V?$basic_string@DU?$char_traits@D@std@@V?$allocator@D@2@@std@@@12@$0A@@?$tuple@PEBV?$MatcherBase@V?$basic_string@DU?$char_traits@D@std@@V?$allocator@D@2@@std@@@internal@testing@@PEBV?$EqMatcher@V?$basic_string@DU?$char_traits@D@std@@V?$allocator@D@2@@std@@@23@@std@@QEAA@$$QEAPEBV?$MatcherBase@V?$basic_string@DU?$char_traits@D@std@@V?$allocator@D@2@@std@@@internal@testing@@$$QEAPEBV?$EqMatcher@V?$basic_string@DU?$char_traits@D@std@@V?$allocator@D@2@@std@@@34@@Z
	??$?0PEBV?$MatcherBase@V?$basic_string_view@DU?$char_traits@D@std@@@std@@@internal@testing@@@?$_Tuple_val@PEBV?$MatcherBase@V?$basic_string_view@DU?$char_traits@D@std@@@std@@@internal@testing@@@std@@QEAA@$$QEAPEBV?$MatcherBase@V?$basic_string_view@DU?$char_traits@D@std@@@std@@@internal@testing@@@Z
	??$?0PEBV?$MatcherBase@V?$basic_string_view@DU?$char_traits@D@std@@@std@@@internal@testing@@PEBV?$EqMatcher@V?$basic_string@DU?$char_traits@D@std@@V?$allocator@D@2@@std@@@12@$0A@@?$tuple@PEBV?$MatcherBase@V?$basic_string_view@DU?$char_traits@D@std@@@std@@@internal@testing@@PEBV?$EqMatcher@V?$basic_string@DU?$char_traits@D@std@@V?$allocator@D@2@@std@@@23@@std@@QEAA@$$QEAPEBV?$MatcherBase@V?$basic_string_view@DU?$char_traits@D@std@@@std@@@internal@testing@@$$QEAPEBV?$EqMatcher@V?$basic_string@DU?$char_traits@D@std@@V?$allocator@D@2@@std@@@34@@Z
	??$?0PEBVThreadLocalBase@internal@testing@@V?$shared_ptr@VThreadLocalValueHolderBase@internal@testing@@@std@@$0A@@?$pair@QEBVThreadLocalBase@internal@testing@@V?$shared_ptr@VThreadLocalValueHolderBase@internal@testing@@@std@@@std@@QEAA@$$QEAU?$pair@PEBVThreadLocalBase@internal@testing@@V?$shared_ptr@VThreadLocalValueHolderBase@internal@testing@@@std@@@1@@Z
	??$?0U?$default_delete@$$CBV?$basic_string@DU?$char_traits@D@std@@V?$allocator@D@2@@std@@@std@@$0A@@?$unique_ptr@$$CBV?$basic_string@DU?$char_traits@D@std@@V?$allocator@D@2@@std@@U?$default_delete@$$CBV?$basic_string@DU?$char_traits@D@std@@V?$allocator@D@2@@std@@@2@@std@@QEAA@PEBV?$basic_string@DU?$char_traits@D@std@@V?$allocator@D@2@@1@@Z
	??$?0U?$default_delete@V?$basic_string@DU?$char_traits@D@std@@V?$allocator@D@2@@std@@@std@@$0A@@?$unique_ptr@V?$basic_string@DU?$char_traits@D@std@@V?$allocator@D@2@@std@@U?$default_delete@V?$basic_string@DU?$char_traits@D@std@@V?$allocator@D@2@@std@@@2@@std@@QEAA@PEAV?$basic_string@DU?$char_traits@D@std@@V?$allocator@D@2@@1@@Z
	??$?0U?$default_delete@V?$basic_string@DU?$char_traits@D@std@@V?$allocator@D@2@@std@@@std@@$0A@@?$unique_ptr@V?$basic_string@DU?$char_traits@D@std@@V?$allocator@D@2@@std@@U?$default_delete@V?$basic_string@DU?$char_traits@D@std@@V?$allocator@D@2@@std@@@2@@std@@QEAA@XZ
	??$?0U?$default_delete@V?$basic_stringstream@DU?$char_traits@D@std@@V?$allocator@D@2@@std@@@std@@$0A@@?$unique_ptr@V?$basic_stringstream@DU?$char_traits@D@std@@V?$allocator@D@2@@std@@U?$default_delete@V?$basic_stringstream@DU?$char_traits@D@std@@V?$allocator@D@2@@std@@@2@@std@@QEAA@PEAV?$basic_stringstream@DU?$char_traits@D@std@@V?$allocator@D@2@@1@@Z
	??$?0U?$default_delete@VDeathTestFactory@internal@testing@@@std@@$0A@@?$unique_ptr@VDeathTestFactory@internal@testing@@U?$default_delete@VDeathTestFactory@internal@testing@@@std@@@std@@QEAA@PEAVDeathTestFactory@internal@testing@@@Z
	??$?0U?$default_delete@VGTestFlagSaver@internal@testing@@@std@@$0A@@?$unique_ptr@VGTestFlagSaver@internal@testing@@U?$default_delete@VGTestFlagSaver@internal@testing@@@std@@@std@@QEAA@PEAVGTestFlagSaver@internal@testing@@@Z
	??$?0U?$default_delete@VInternalRunDeathTestFlag@internal@testing@@@std@@$0A@@?$unique_ptr@VInternalRunDeathTestFlag@internal@testing@@U?$default_delete@VInternalRunDeathTestFlag@internal@testing@@@std@@@std@@QEAA@XZ
	??$?0U?$default_delete@VRunnable@ThreadWithParamBase@internal@testing@@@std@@$0A@@?$unique_ptr@VRunnable@ThreadWithParamBase@internal@testing@@U?$default_delete@VRunnable@ThreadWithParamBase@internal@testing@@@std@@@std@@QEAA@PEAVRunnable@ThreadWithParamBase@internal@testing@@@Z
	??$?0U?$default_delete@VValueHolderFactory@?$ThreadLocal@PEAVSequence@testing@@@internal@testing@@@std@@$0A@@?$unique_ptr@VValueHolderFactory@?$ThreadLocal@PEAVSequence@testing@@@internal@testing@@U?$default_delete@VValueHolderFactory@?$ThreadLocal@PEAVSequence@testing@@@internal@testing@@@std@@@std@@QEAA@PEAVValueHolderFactory@?$ThreadLocal@PEAVSequence@testing@@@internal@testing@@@Z
	??$?0U?$default_delete@VValueHolderFactory@?$ThreadLocal@PEAVTestPartResultReporterInterface@testing@@@internal@testing@@@std@@$0A@@?$unique_ptr@VValueHolderFactory@?$ThreadLocal@PEAVTestPartResultReporterInterface@testing@@@internal@testing@@U?$default_delete@VValueHolderFactory@?$ThreadLocal@PEAVTestPartResultReporterInterface@testing@@@internal@testing@@@std@@@std@@QEAA@PEAVValueHolderFactory@?$ThreadLocal@PEAVTestPartResultReporterInterface@testing@@@internal@testing@@@Z
	??$?0U?$default_delete@VValueHolderFactory@?$ThreadLocal@V?$vector@UTraceInfo@internal@testing@@V?$allocator@UTraceInfo@internal@testing@@@std@@@std@@@internal@testing@@@std@@$0A@@?$unique_ptr@VValueHolderFactory@?$ThreadLocal@V?$vector@UTraceInfo@internal@testing@@V?$allocator@UTraceInfo@internal@testing@@@std@@@std@@@internal@testing@@U?$default_delete@VValueHolderFactory@?$ThreadLocal@V?$vector@UTraceInfo@internal@testing@@V?$allocator@UTraceInfo@internal@testing@@@std@@@std@@@internal@testing@@@std@@@std@@QEAA@PEAVValueHolderFactory@?$ThreadLocal@V?$vector@UTraceInfo@internal@testing@@V?$allocator@UTraceInfo@internal@testing@@@std@@@std@@@internal@testing@@@Z
	??$?0U?$less@PEBVThreadLocalBase@internal@testing@@@std@@U_One_then_variadic_args_t@1@V?$allocator@U?$_Tree_node@U?$pair@QEBVThreadLocalBase@internal@testing@@V?$shared_ptr@VThreadLocalValueHolderBase@internal@testing@@@std@@@std@@PEAX@std@@@1@@?$_Compressed_pair@U?$less@PEBVThreadLocalBase@internal@testing@@@std@@V?$_Compressed_pair@V?$allocator@U?$_Tree_node@U?$pair@QEBVThreadLocalBase@internal@testing@@V?$shared_ptr@VThreadLocalValueHolderBase@internal@testing@@@std@@@std@@PEAX@std@@@std@@V?$_Tree_val@U?$_Tree_simple_types@U?$pair@QEBVThreadLocalBase@internal@testing@@V?$shared_ptr@VThreadLocalValueHolderBase@internal@testing@@@std@@@std@@@std@@@2@$00@2@$00@std@@QEAA@U_One_then_variadic_args_t@1@$$QEAU?$less@PEBVThreadLocalBase@internal@testing@@@1@$$QEAU21@$$QEAV?$allocator@U?$_Tree_node@U?$pair@QEBVThreadLocalBase@internal@testing@@V?$shared_ptr@VThreadLocalValueHolderBase@internal@testing@@@std@@@std@@PEAX@std@@@1@@Z
	??$?0U?$pair@$$CBV?$basic_string@DU?$char_traits@D@std@@V?$allocator@D@2@@std@@PEAVTestSuite@testing@@@std@@@?$allocator@U?$_List_node@U?$pair@$$CBV?$basic_string@DU?$char_traits@D@std@@V?$allocator@D@2@@std@@PEAVTestSuite@testing@@@std@@PEAX@std@@@std@@QEAA@AEBV?$allocator@U?$pair@$$CBV?$basic_string@DU?$char_traits@D@std@@V?$allocator@D@2@@std@@PEAVTestSuite@testing@@@std@@@1@@Z
	??$?0U?$pair@$$CBV?$basic_string@DU?$char_traits@D@std@@V?$allocator@D@2@@std@@PEAVTestSuite@testing@@@std@@@?$allocator@V?$_List_unchecked_iterator@V?$_List_val@U?$_List_simple_types@U?$pair@$$CBV?$basic_string@DU?$char_traits@D@std@@V?$allocator@D@2@@std@@PEAVTestSuite@testing@@@std@@@std@@@std@@@std@@@std@@QEAA@AEBV?$allocator@U?$pair@$$CBV?$basic_string@DU?$char_traits@D@std@@V?$allocator@D@2@@std@@PEAVTestSuite@testing@@@std@@@1@@Z
	??$?0U?$pair@$$CBV?$basic_string@DU?$char_traits@D@std@@V?$allocator@D@2@@std@@_K@std@@@?$allocator@U?$_List_node@U?$pair@$$CBV?$basic_string@DU?$char_traits@D@std@@V?$allocator@D@2@@std@@_K@std@@PEAX@std@@@std@@QEAA@AEBV?$allocator@U?$pair@$$CBV?$basic_string@DU?$char_traits@D@std@@V?$allocator@D@2@@std@@_K@std@@@1@@Z
	??$?0U?$pair@$$CBV?$basic_string@DU?$char_traits@D@std@@V?$allocator@D@2@@std@@_K@std@@@?$allocator@V?$_List_unchecked_iterator@V?$_List_val@U?$_List_simple_types@U?$pair@$$CBV?$basic_string@DU?$char_traits@D@std@@V?$allocator@D@2@@std@@_K@std@@@std@@@std@@@std@@@std@@QEAA@AEBV?$allocator@U?$pair@$$CBV?$basic_string@DU?$char_traits@D@std@@V?$allocator@D@2@@std@@_K@std@@@1@@Z
	??$?0U?$pair@$$CB_KW4CallReaction@internal@testing@@@std@@@?$allocator@U?$_List_node@U?$pair@$$CB_KW4CallReaction@internal@testing@@@std@@PEAX@std@@@std@@QEAA@AEBV?$allocator@U?$pair@$$CB_KW4CallReaction@internal@testing@@@std@@@1@@Z
	??$?0U?$pair@$$CB_KW4CallReaction@internal@testing@@@std@@@?$allocator@V?$_List_unchecked_iterator@V?$_List_val@U?$_List_simple_types@U?$pair@$$CB_KW4CallReaction@internal@testing@@@std@@@std@@@std@@@std@@@std@@QEAA@AEBV?$allocator@U?$pair@$$CB_KW4CallReaction@internal@testing@@@std@@@1@@Z
	??$?0U?$pair@DPEBD@std@@@?$_List_node_emplace_op2@V?$allocator@U?$_List_node@U?$pair@DPEBD@std@@PEAX@std@@@std@@@std@@QEAA@AEAV?$allocator@U?$_List_node@U?$pair@DPEBD@std@@PEAX@std@@@1@$$QEAU?$pair@DPEBD@1@@Z
	??$?0U?$pair@KV?$map@PEBVThreadLocalBase@internal@testing@@V?$shared_ptr@VThreadLocalValueHolderBase@internal@testing@@@std@@U?$less@PEBVThreadLocalBase@internal@testing@@@5@V?$allocator@U?$pair@QEBVThreadLocalBase@internal@testing@@V?$shared_ptr@VThreadLocalValueHolderBase@internal@testing@@@std@@@std@@@5@@std@@@std@@@?$_Tree_temp_node@V?$allocator@U?$_Tree_node@U?$pair@$$CBKV?$map@PEBVThreadLocalBase@internal@testing@@V?$shared_ptr@VThreadLocalValueHolderBase@internal@testing@@@std@@U?$less@PEBVThreadLocalBase@internal@testing@@@5@V?$allocator@U?$pair@QEBVThreadLocalBase@internal@testing@@V?$shared_ptr@VThreadLocalValueHolderBase@internal@testing@@@std@@@std@@@5@@std@@@std@@PEAX@std@@@std@@@std@@QEAA@AEAV?$allocator@U?$_Tree_node@U?$pair@$$CBKV?$map@PEBVThreadLocalBase@internal@testing@@V?$shared_ptr@VThreadLocalValueHolderBase@internal@testing@@@std@@U?$less@PEBVThreadLocalBase@internal@testing@@@5@V?$allocator@U?$pair@QEBVThreadLocalBase@internal@testing@@V?$shared_ptr@VThreadLocalValueHolderBase@internal@testing@@@std@@@std@@@5@@std@@@std@@PEAX@std@@@1@PEAU?$_Tree_node@U?$pair@$$CBKV?$map@PEBVThreadLocalBase@internal@testing@@V?$shared_ptr@VThreadLocalValueHolderBase@internal@testing@@@std@@U?$less@PEBVThreadLocalBase@internal@testing@@@5@V?$allocator@U?$pair@QEBVThreadLocalBase@internal@testing@@V?$shared_ptr@VThreadLocalValueHolderBase@internal@testing@@@std@@@std@@@5@@std@@@std@@PEAX@1@$$QEAU?$pair@KV?$map@PEBVThreadLocalBase@internal@testing@@V?$shared_ptr@VThreadLocalValueHolderBase@internal@testing@@@std@@U?$less@PEBVThreadLocalBase@internal@testing@@@5@V?$allocator@U?$pair@QEBVThreadLocalBase@internal@testing@@V?$shared_ptr@VThreadLocalValueHolderBase@internal@testing@@@std@@@std@@@5@@std@@@1@@Z
	??$?0U?$pair@PEBVThreadLocalBase@internal@testing@@V?$shared_ptr@VThreadLocalValueHolderBase@internal@testing@@@std@@@std@@@?$_Tree_temp_node@V?$allocator@U?$_Tree_node@U?$pair@QEBVThreadLocalBase@internal@testing@@V?$shared_ptr@VThreadLocalValueHolderBase@internal@testing@@@std@@@std@@PEAX@std@@@std@@@std@@QEAA@AEAV?$allocator@U?$_Tree_node@U?$pair@QEBVThreadLocalBase@internal@testing@@V?$shared_ptr@VThreadLocalValueHolderBase@internal@testing@@@std@@@std@@PEAX@std@@@1@PEAU?$_Tree_node@U?$pair@QEBVThreadLocalBase@internal@testing@@V?$shared_ptr@VThreadLocalValueHolderBase@internal@testing@@@std@@@std@@PEAX@1@$$QEAU?$pair@PEBVThreadLocalBase@internal@testing@@V?$shared_ptr@VThreadLocalValueHolderBase@internal@testing@@@std@@@1@@Z
	??$?0U_Exact_args_t@std@@$0A@@?$tuple@$$V@std@@QEAA@U_Exact_args_t@1@@Z
	??$?0U_Exact_args_t@std@@AEBQEBX$$V$0A@@?$tuple@AEBQEBX@std@@QEAA@U_Exact_args_t@1@AEBQEBX@Z
	??$?0U_Exact_args_t@std@@AEBV?$basic_string@DU?$char_traits@D@std@@V?$allocator@D@2@@1@$$V$0A@@?$tuple@AEBV?$basic_string@DU?$char_traits@D@std@@V?$allocator@D@2@@std@@@std@@QEAA@U_Exact_args_t@1@AEBV?$basic_string@DU?$char_traits@D@std@@V?$allocator@D@2@@1@@Z
	??$?0U_Exact_args_t@std@@AEB_K$$V$0A@@?$tuple@AEB_K@std@@QEAA@U_Exact_args_t@1@AEB_K@Z
	??$?0U_Exact_args_t@std@@PEBV?$EqMatcher@V?$basic_string@DU?$char_traits@D@std@@V?$allocator@D@2@@std@@@internal@testing@@$$V$0A@@?$tuple@PEBV?$EqMatcher@V?$basic_string@DU?$char_traits@D@std@@V?$allocator@D@2@@std@@@internal@testing@@@std@@QEAA@U_Exact_args_t@1@$$QEAPEBV?$EqMatcher@V?$basic_string@DU?$char_traits@D@std@@V?$allocator@D@2@@std@@@internal@testing@@@Z
	??$?0U_Exact_args_t@std@@PEBV?$MatcherBase@AEBV?$basic_string@DU?$char_traits@D@std@@V?$allocator@D@2@@std@@@internal@testing@@PEBV?$EqMatcher@V?$basic_string@DU?$char_traits@D@std@@V?$allocator@D@2@@std@@@34@$0A@@?$tuple@PEBV?$MatcherBase@AEBV?$basic_string@DU?$char_traits@D@std@@V?$allocator@D@2@@std@@@internal@testing@@PEBV?$EqMatcher@V?$basic_string@DU?$char_traits@D@std@@V?$allocator@D@2@@std@@@23@@std@@QEAA@U_Exact_args_t@1@$$QEAPEBV?$MatcherBase@AEBV?$basic_string@DU?$char_traits@D@std@@V?$allocator@D@2@@std@@@internal@testing@@$$QEAPEBV?$EqMatcher@V?$basic_string@DU?$char_traits@D@std@@V?$allocator@D@2@@std@@@45@@Z
	??$?0U_Exact_args_t@std@@PEBV?$MatcherBase@AEBV?$basic_string_view@DU?$char_traits@D@std@@@std@@@internal@testing@@PEBV?$EqMatcher@V?$basic_string@DU?$char_traits@D@std@@V?$allocator@D@2@@std@@@34@$0A@@?$tuple@PEBV?$MatcherBase@AEBV?$basic_string_view@DU?$char_traits@D@std@@@std@@@internal@testing@@PEBV?$EqMatcher@V?$basic_string@DU?$char_traits@D@std@@V?$allocator@D@2@@std@@@23@@std@@QEAA@U_Exact_args_t@1@$$QEAPEBV?$MatcherBase@AEBV?$basic_string_view@DU?$char_traits@D@std@@@std@@@internal@testing@@$$QEAPEBV?$EqMatcher@V?$basic_string@DU?$char_traits@D@std@@V?$allocator@D@2@@std@@@45@@Z
	??$?0U_Exact_args_t@std@@PEBV?$MatcherBase@V?$basic_string@DU?$char_traits@D@std@@V?$allocator@D@2@@std@@@internal@testing@@PEBV?$EqMatcher@V?$basic_string@DU?$char_traits@D@std@@V?$allocator@D@2@@std@@@34@$0A@@?$tuple@PEBV?$MatcherBase@V?$basic_string@DU?$char_traits@D@std@@V?$allocator@D@2@@std@@@internal@testing@@PEBV?$EqMatcher@V?$basic_string@DU?$char_traits@D@std@@V?$allocator@D@2@@std@@@23@@std@@QEAA@U_Exact_args_t@1@$$QEAPEBV?$MatcherBase@V?$basic_string@DU?$char_traits@D@std@@V?$allocator@D@2@@std@@@internal@testing@@$$QEAPEBV?$EqMatcher@V?$basic_string@DU?$char_traits@D@std@@V?$allocator@D@2@@std@@@45@@Z
	??$?0U_Exact_args_t@std@@PEBV?$MatcherBase@V?$basic_string_view@DU?$char_traits@D@std@@@std@@@internal@testing@@PEBV?$EqMatcher@V?$basic_string@DU?$char_traits@D@std@@V?$allocator@D@2@@std@@@34@$0A@@?$tuple@PEBV?$MatcherBase@V?$basic_string_view@DU?$char_traits@D@std@@@std@@@internal@testing@@PEBV?$EqMatcher@V?$basic_string@DU?$char_traits@D@std@@V?$allocator@D@2@@std@@@23@@std@@QEAA@U_Exact_args_t@1@$$QEAPEBV?$MatcherBase@V?$basic_string_view@DU?$char_traits@D@std@@@std@@@internal@testing@@$$QEAPEBV?$EqMatcher@V?$basic_string@DU?$char_traits@D@std@@V?$allocator@D@2@@std@@@45@@Z
	??$?0U_Exact_args_t@std@@_K$$V$0A@@?$tuple@$$QEA_K@std@@QEAA@U_Exact_args_t@1@$$QEA_K@Z
	??$?0U_Zero_then_variadic_args_t@std@@M@?$_Compressed_pair@U?$hash@V?$basic_string@DU?$char_traits@D@std@@V?$allocator@D@2@@std@@@std@@V?$_Compressed_pair@U?$equal_to@V?$basic_string@DU?$char_traits@D@std@@V?$allocator@D@2@@std@@@std@@M$00@2@$00@std@@QEAA@U_Zero_then_variadic_args_t@1@$$QEAU21@$$QEAM@Z
	??$?0U_Zero_then_variadic_args_t@std@@M@?$_Compressed_pair@U?$hash@_K@std@@V?$_Compressed_pair@U?$equal_to@_K@std@@M$00@2@$00@std@@QEAA@U_Zero_then_variadic_args_t@1@$$QEAU21@$$QEAM@Z
	??$?0Uwchar_codecvt@?1??FOpen@posix@internal@testing@@YAPEAU_iobuf@@PEBD0@Z@@locale@std@@QEAA@AEBV01@PEBUwchar_codecvt@?1??FOpen@posix@internal@testing@@YAPEAU_iobuf@@PEBD1@Z@@Z
	??$?0V?$EqMatcher@V?$basic_string@DU?$char_traits@D@std@@V?$allocator@D@2@@std@@@internal@testing@@X@?$Matcher@AEBV?$basic_string@DU?$char_traits@D@std@@V?$allocator@D@2@@std@@@testing@@QEAA@$$QEAV?$EqMatcher@V?$basic_string@DU?$char_traits@D@std@@V?$allocator@D@2@@std@@@internal@1@@Z
	??$?0V?$EqMatcher@V?$basic_string@DU?$char_traits@D@std@@V?$allocator@D@2@@std@@@internal@testing@@X@?$Matcher@AEBV?$basic_string_view@DU?$char_traits@D@std@@@std@@@testing@@QEAA@$$QEAV?$EqMatcher@V?$basic_string@DU?$char_traits@D@std@@V?$allocator@D@2@@std@@@internal@1@@Z
	??$?0V?$EqMatcher@V?$basic_string@DU?$char_traits@D@std@@V?$allocator@D@2@@std@@@internal@testing@@X@?$Matcher@V?$basic_string@DU?$char_traits@D@std@@V?$allocator@D@2@@std@@@testing@@QEAA@$$QEAV?$EqMatcher@V?$basic_string@DU?$char_traits@D@std@@V?$allocator@D@2@@std@@@internal@1@@Z
	??$?0V?$EqMatcher@V?$basic_string@DU?$char_traits@D@std@@V?$allocator@D@2@@std@@@internal@testing@@X@?$Matcher@V?$basic_string_view@DU?$char_traits@D@std@@@std@@@testing@@QEAA@$$QEAV?$EqMatcher@V?$basic_string@DU?$char_traits@D@std@@V?$allocator@D@2@@std@@@internal@1@@Z
	??$?0V?$EqMatcher@V?$basic_string@DU?$char_traits@D@std@@V?$allocator@D@2@@std@@@internal@testing@@X@?$MatcherBase@AEBV?$basic_string@DU?$char_traits@D@std@@V?$allocator@D@2@@std@@@internal@testing@@IEAA@$$QEAV?$EqMatcher@V?$basic_string@DU?$char_traits@D@std@@V?$allocator@D@2@@std@@@12@@Z
	??$?0V?$EqMatcher@V?$basic_string@DU?$char_traits@D@std@@V?$allocator@D@2@@std@@@internal@testing@@X@?$MatcherBase@AEBV?$basic_string_view@DU?$char_traits@D@std@@@std@@@internal@testing@@IEAA@$$QEAV?$EqMatcher@V?$basic_string@DU?$char_traits@D@std@@V?$allocator@D@2@@std@@@12@@Z
	??$?0V?$EqMatcher@V?$basic_string@DU?$char_traits@D@std@@V?$allocator@D@2@@std@@@internal@testing@@X@?$MatcherBase@V?$basic_string@DU?$char_traits@D@std@@V?$allocator@D@2@@std@@@internal@testing@@IEAA@$$QEAV?$EqMatcher@V?$basic_string@DU?$char_traits@D@std@@V?$allocator@D@2@@std@@@12@@Z
	??$?0V?$EqMatcher@V?$basic_string@DU?$char_traits@D@std@@V?$allocator@D@2@@std@@@internal@testing@@X@?$MatcherBase@V?$basic_string_view@DU?$char_traits@D@std@@@std@@@internal@testing@@IEAA@$$QEAV?$EqMatcher@V?$basic_string@DU?$char_traits@D@std@@V?$allocator@D@2@@std@@@12@@Z
	??$?0V?$_List_iterator@V?$_List_val@U?$_List_simple_types@U?$pair@$$CBV?$basic_string@DU?$char_traits@D@std@@V?$allocator@D@2@@std@@PEAVTestSuite@testing@@@std@@@std@@@std@@@std@@_N$0A@@?$pair@V?$_List_iterator@V?$_List_val@U?$_List_simple_types@U?$pair@$$CBV?$basic_string@DU?$char_traits@D@std@@V?$allocator@D@2@@std@@PEAVTestSuite@testing@@@std@@@std@@@std@@@std@@_N@std@@QEAA@$$QEAV?$_List_iterator@V?$_List_val@U?$_List_simple_types@U?$pair@$$CBV?$basic_string@DU?$char_traits@D@std@@V?$allocator@D@2@@std@@PEAVTestSuite@testing@@@std@@@std@@@std@@@1@$$QEA_N@Z
	??$?0V?$_Tree_const_iterator@V?$_Tree_val@U?$_Tree_simple_types@PEAVUntypedFunctionMockerBase@internal@testing@@@std@@@std@@@std@@AEB_N$0A@@?$pair@V?$_Tree_const_iterator@V?$_Tree_val@U?$_Tree_simple_types@PEAVUntypedFunctionMockerBase@internal@testing@@@std@@@std@@@std@@_N@std@@QEAA@$$QEAV?$_Tree_const_iterator@V?$_Tree_val@U?$_Tree_simple_types@PEAVUntypedFunctionMockerBase@internal@testing@@@std@@@std@@@1@AEB_N@Z
	??$?0V?$_Tree_const_iterator@V?$_Tree_val@U?$_Tree_simple_types@V?$basic_string@DU?$char_traits@D@std@@V?$allocator@D@2@@std@@@std@@@std@@@std@@AEB_N$0A@@?$pair@V?$_Tree_const_iterator@V?$_Tree_val@U?$_Tree_simple_types@V?$basic_string@DU?$char_traits@D@std@@V?$allocator@D@2@@std@@@std@@@std@@@std@@_N@std@@QEAA@$$QEAV?$_Tree_const_iterator@V?$_Tree_val@U?$_Tree_simple_types@V?$basic_string@DU?$char_traits@D@std@@V?$allocator@D@2@@std@@@std@@@std@@@1@AEB_N@Z
	??$?0V?$_Tree_const_iterator@V?$_Tree_val@U?$_Tree_simple_types@VExpectation@testing@@@std@@@std@@@std@@AEB_N$0A@@?$pair@V?$_Tree_const_iterator@V?$_Tree_val@U?$_Tree_simple_types@VExpectation@testing@@@std@@@std@@@std@@_N@std@@QEAA@$$QEAV?$_Tree_const_iterator@V?$_Tree_val@U?$_Tree_simple_types@VExpectation@testing@@@std@@@std@@@1@AEB_N@Z
	??$?0V?$_Tree_iterator@V?$_Tree_val@U?$_Tree_simple_types@U?$pair@$$CBKV?$map@PEBVThreadLocalBase@internal@testing@@V?$shared_ptr@VThreadLocalValueHolderBase@internal@testing@@@std@@U?$less@PEBVThreadLocalBase@internal@testing@@@5@V?$allocator@U?$pair@QEBVThreadLocalBase@internal@testing@@V?$shared_ptr@VThreadLocalValueHolderBase@internal@testing@@@std@@@std@@@5@@std@@@std@@@std@@@std@@@std@@AEB_N$0A@@?$pair@V?$_Tree_iterator@V?$_Tree_val@U?$_Tree_simple_types@U?$pair@$$CBKV?$map@PEBVThreadLocalBase@internal@testing@@V?$shared_ptr@VThreadLocalValueHolderBase@internal@testing@@@std@@U?$less@PEBVThreadLocalBase@internal@testing@@@5@V?$allocator@U?$pair@QEBVThreadLocalBase@internal@testing@@V?$shared_ptr@VThreadLocalValueHolderBase@internal@testing@@@std@@@std@@@5@@std@@@std@@@std@@@std@@@std@@_N@std@@QEAA@$$QEAV?$_Tree_iterator@V?$_Tree_val@U?$_Tree_simple_types@U?$pair@$$CBKV?$map@PEBVThreadLocalBase@internal@testing@@V?$shared_ptr@VThreadLocalValueHolderBase@internal@testing@@@std@@U?$less@PEBVThreadLocalBase@internal@testing@@@5@V?$allocator@U?$pair@QEBVThreadLocalBase@internal@testing@@V?$shared_ptr@VThreadLocalValueHolderBase@internal@testing@@@std@@@std@@@5@@std@@@std@@@std@@@std@@@1@AEB_N@Z
	??$?0V?$_Tree_iterator@V?$_Tree_val@U?$_Tree_simple_types@U?$pair@$$CBV?$basic_string@DU?$char_traits@D@std@@V?$allocator@D@2@@std@@UTypeParameterizedTestSuiteInfo@TypeParameterizedTestSuiteRegistry@internal@testing@@@std@@@std@@@std@@@std@@AEB_N$0A@@?$pair@V?$_Tree_iterator@V?$_Tree_val@U?$_Tree_simple_types@U?$pair@$$CBV?$basic_string@DU?$char_traits@D@std@@V?$allocator@D@2@@std@@UTypeParameterizedTestSuiteInfo@TypeParameterizedTestSuiteRegistry@internal@testing@@@std@@@std@@@std@@@std@@_N@std@@QEAA@$$QEAV?$_Tree_iterator@V?$_Tree_val@U?$_Tree_simple_types@U?$pair@$$CBV?$basic_string@DU?$char_traits@D@std@@V?$allocator@D@2@@std@@UTypeParameterizedTestSuiteInfo@TypeParameterizedTestSuiteRegistry@internal@testing@@@std@@@std@@@std@@@1@AEB_N@Z
	??$?0V?$_Tree_iterator@V?$_Tree_val@U?$_Tree_simple_types@U?$pair@QEBVThreadLocalBase@internal@testing@@V?$shared_ptr@VThreadLocalValueHolderBase@internal@testing@@@std@@@std@@@std@@@std@@@std@@AEB_N$0A@@?$pair@V?$_Tree_iterator@V?$_Tree_val@U?$_Tree_simple_types@U?$pair@QEBVThreadLocalBase@internal@testing@@V?$shared_ptr@VThreadLocalValueHolderBase@internal@testing@@@std@@@std@@@std@@@std@@@std@@_N@std@@QEAA@$$QEAV?$_Tree_iterator@V?$_Tree_val@U?$_Tree_simple_types@U?$pair@QEBVThreadLocalBase@internal@testing@@V?$shared_ptr@VThreadLocalValueHolderBase@internal@testing@@@std@@@std@@@std@@@std@@@1@AEB_N@Z
	??$?0V?$_Vector_const_iterator@V?$_Vector_val@U?$_Simple_types@V?$basic_string@DU?$char_traits@D@std@@V?$allocator@D@2@@std@@@std@@@std@@@std@@$0A@@?$vector@V?$basic_string@DU?$char_traits@D@std@@V?$allocator@D@2@@std@@V?$allocator@V?$basic_string@DU?$char_traits@D@std@@V?$allocator@D@2@@std@@@2@@std@@QEAA@V?$_Vector_const_iterator@V?$_Vector_val@U?$_Simple_types@V?$basic_string@DU?$char_traits@D@std@@V?$allocator@D@2@@std@@@std@@@std@@@1@0AEBV?$allocator@V?$basic_string@DU?$char_traits@D@std@@V?$allocator@D@2@@std@@@1@@Z
	??$?0V?$allocator@D@std@@$$V@?$_Compressed_pair@V?$allocator@D@std@@V?$_String_val@U?$_Simple_types@D@std@@@2@$00@std@@QEAA@U_One_then_variadic_args_t@1@$$QEAV?$allocator@D@1@@Z
	??$?0V?$allocator@D@std@@$0A@@?$vector@DV?$allocator@D@std@@@std@@QEAA@_KAEBDAEBV?$allocator@D@1@@Z
	??$?0V?$allocator@N@std@@$$V@?$_Compressed_pair@V?$allocator@N@std@@V?$_Vector_val@U?$_Simple_types@N@std@@@2@$00@std@@QEAA@U_One_then_variadic_args_t@1@$$QEAV?$allocator@N@1@@Z
	??$?0V?$allocator@PEAVExpectationBase@internal@testing@@@std@@$0A@@?$vector@PEAVExpectationBase@internal@testing@@V?$allocator@PEAVExpectationBase@internal@testing@@@std@@@std@@QEAA@_KAEBQEAVExpectationBase@internal@testing@@AEBV?$allocator@PEAVExpectationBase@internal@testing@@@1@@Z
	??$?0V?$allocator@PEBVExpectationBase@internal@testing@@@std@@$0A@@?$vector@PEBVExpectationBase@internal@testing@@V?$allocator@PEBVExpectationBase@internal@testing@@@std@@@std@@QEAA@_KAEBQEBVExpectationBase@internal@testing@@AEBV?$allocator@PEBVExpectationBase@internal@testing@@@1@@Z
	??$?0V?$allocator@U?$_Tree_node@U?$pair@QEBVThreadLocalBase@internal@testing@@V?$shared_ptr@VThreadLocalValueHolderBase@internal@testing@@@std@@@std@@PEAX@std@@@std@@$$V@?$_Compressed_pair@V?$allocator@U?$_Tree_node@U?$pair@QEBVThreadLocalBase@internal@testing@@V?$shared_ptr@VThreadLocalValueHolderBase@internal@testing@@@std@@@std@@PEAX@std@@@std@@V?$_Tree_val@U?$_Tree_simple_types@U?$pair@QEBVThreadLocalBase@internal@testing@@V?$shared_ptr@VThreadLocalValueHolderBase@internal@testing@@@std@@@std@@@std@@@2@$00@std@@QEAA@U_One_then_variadic_args_t@1@$$QEAV?$allocator@U?$_Tree_node@U?$pair@QEBVThreadLocalBase@internal@testing@@V?$shared_ptr@VThreadLocalValueHolderBase@internal@testing@@@std@@@std@@PEAX@std@@@1@@Z
	??$?0V?$allocator@U?$pair@_K_K@std@@@std@@PEAU?$pair@_K_K@1@PEAU21@PEAU21@@?$_Compressed_pair@V?$allocator@U?$pair@_K_K@std@@@std@@V?$_Vector_val@U?$_Simple_types@U?$pair@_K_K@std@@@std@@@2@$00@std@@QEAA@U_One_then_variadic_args_t@1@$$QEAV?$allocator@U?$pair@_K_K@std@@@1@$$QEAPEAU?$pair@_K_K@1@22@Z
	??$?0V?$allocator@V?$basic_string@DU?$char_traits@D@std@@V?$allocator@D@2@@std@@@std@@$$V@?$_Compressed_pair@V?$allocator@V?$basic_string@DU?$char_traits@D@std@@V?$allocator@D@2@@std@@@std@@V?$_Vector_val@U?$_Simple_types@V?$basic_string@DU?$char_traits@D@std@@V?$allocator@D@2@@std@@@std@@@2@$00@std@@QEAA@U_One_then_variadic_args_t@1@$$QEAV?$allocator@V?$basic_string@DU?$char_traits@D@std@@V?$allocator@D@2@@std@@@1@@Z
	??$?0V?$allocator@V?$basic_string@DU?$char_traits@D@std@@V?$allocator@D@2@@std@@@std@@PEAV?$basic_string@DU?$char_traits@D@std@@V?$allocator@D@2@@1@PEAV21@PEAV21@@?$_Compressed_pair@V?$allocator@V?$basic_string@DU?$char_traits@D@std@@V?$allocator@D@2@@std@@@std@@V?$_Vector_val@U?$_Simple_types@V?$basic_string@DU?$char_traits@D@std@@V?$allocator@D@2@@std@@@std@@@2@$00@std@@QEAA@U_One_then_variadic_args_t@1@$$QEAV?$allocator@V?$basic_string@DU?$char_traits@D@std@@V?$allocator@D@2@@std@@@1@$$QEAPEAV?$basic_string@DU?$char_traits@D@std@@V?$allocator@D@2@@1@22@Z
	??$?0V?$allocator@V?$vector@NV?$allocator@N@std@@@std@@@std@@$0A@@?$vector@V?$vector@NV?$allocator@N@std@@@std@@V?$allocator@V?$vector@NV?$allocator@N@std@@@std@@@2@@std@@QEAA@_KAEBV?$vector@NV?$allocator@N@std@@@1@AEBV?$allocator@V?$vector@NV?$allocator@N@std@@@std@@@1@@Z
	??$?0V?$allocator@V?$vector@W4EditType@edit_distance@internal@testing@@V?$allocator@W4EditType@edit_distance@internal@testing@@@std@@@std@@@std@@$0A@@?$vector@V?$vector@W4EditType@edit_distance@internal@testing@@V?$allocator@W4EditType@edit_distance@internal@testing@@@std@@@std@@V?$allocator@V?$vector@W4EditType@edit_distance@internal@testing@@V?$allocator@W4EditType@edit_distance@internal@testing@@@std@@@std@@@2@@std@@QEAA@_KAEBV?$vector@W4EditType@edit_distance@internal@testing@@V?$allocator@W4EditType@edit_distance@internal@testing@@@std@@@1@AEBV?$allocator@V?$vector@W4EditType@edit_distance@internal@testing@@V?$allocator@W4EditType@edit_distance@internal@testing@@@std@@@std@@@1@@Z
	??$?0V?$allocator@W4EditType@edit_distance@internal@testing@@@std@@$$V@?$_Compressed_pair@V?$allocator@W4EditType@edit_distance@internal@testing@@@std@@V?$_Vector_val@U?$_Simple_types@W4EditType@edit_distance@internal@testing@@@std@@@2@$00@std@@QEAA@U_One_then_variadic_args_t@1@$$QEAV?$allocator@W4EditType@edit_distance@internal@testing@@@1@@Z
	??$?0V?$allocator@W4EditType@edit_distance@internal@testing@@@std@@PEAW4EditType@edit_distance@internal@testing@@PEAW42345@PEAW42345@@?$_Compressed_pair@V?$allocator@W4EditType@edit_distance@internal@testing@@@std@@V?$_Vector_val@U?$_Simple_types@W4EditType@edit_distance@internal@testing@@@std@@@2@$00@std@@QEAA@U_One_then_variadic_args_t@1@$$QEAV?$allocator@W4EditType@edit_distance@internal@testing@@@1@$$QEAPEAW4EditType@edit_distance@internal@testing@@22@Z
	??$?0V?$allocator@_K@std@@$0A@@?$vector@_KV?$allocator@_K@std@@@std@@QEAA@_KAEB_KAEBV?$allocator@_K@1@@Z
	??$?0V?$allocator@_W@std@@$$V@?$_Compressed_pair@V?$allocator@_W@std@@V?$_String_val@U?$_Simple_types@_W@std@@@2@$00@std@@QEAA@U_One_then_variadic_args_t@1@$$QEAV?$allocator@_W@1@@Z
	??$?0V?$basic_string@DU?$char_traits@D@std@@V?$allocator@D@2@@std@@@?$_Alloc_temporary2@V?$allocator@V?$basic_string@DU?$char_traits@D@std@@V?$allocator@D@2@@std@@@std@@@std@@QEAA@AEAV?$allocator@V?$basic_string@DU?$char_traits@D@std@@V?$allocator@D@2@@std@@@1@$$QEAV?$basic_string@DU?$char_traits@D@std@@V?$allocator@D@2@@1@@Z
	??$?0V?$basic_string@DU?$char_traits@D@std@@V?$allocator@D@2@@std@@@?$_List_node_emplace_op2@V?$allocator@U?$_List_node@V?$basic_string@DU?$char_traits@D@std@@V?$allocator@D@2@@std@@PEAX@std@@@std@@@std@@QEAA@AEAV?$allocator@U?$_List_node@V?$basic_string@DU?$char_traits@D@std@@V?$allocator@D@2@@std@@PEAX@std@@@1@$$QEAV?$basic_string@DU?$char_traits@D@std@@V?$allocator@D@2@@1@@Z
	??$?0V?$basic_string@DU?$char_traits@D@std@@V?$allocator@D@2@@std@@@?$_Tree_temp_node@V?$allocator@U?$_Tree_node@V?$basic_string@DU?$char_traits@D@std@@V?$allocator@D@2@@std@@PEAX@std@@@std@@@std@@QEAA@AEAV?$allocator@U?$_Tree_node@V?$basic_string@DU?$char_traits@D@std@@V?$allocator@D@2@@std@@PEAX@std@@@1@PEAU?$_Tree_node@V?$basic_string@DU?$char_traits@D@std@@V?$allocator@D@2@@std@@PEAX@1@$$QEAV?$basic_string@DU?$char_traits@D@std@@V?$allocator@D@2@@1@@Z
	??$?0V?$basic_string@DU?$char_traits@D@std@@V?$allocator@D@2@@std@@@?$allocator@U?$_List_node@V?$basic_string@DU?$char_traits@D@std@@V?$allocator@D@2@@std@@PEAX@std@@@std@@QEAA@AEBV?$allocator@V?$basic_string@DU?$char_traits@D@std@@V?$allocator@D@2@@std@@@1@@Z
	??$?0V?$basic_string@DU?$char_traits@D@std@@V?$allocator@D@2@@std@@@?$allocator@V?$_List_unchecked_const_iterator@V?$_List_val@U?$_List_simple_types@V?$basic_string@DU?$char_traits@D@std@@V?$allocator@D@2@@std@@@std@@@std@@U_Iterator_base0@2@@std@@@std@@QEAA@AEBV?$allocator@V?$basic_string@DU?$char_traits@D@std@@V?$allocator@D@2@@std@@@1@@Z
	??$?0V?$basic_string@DU?$char_traits@D@std@@V?$allocator@D@2@@std@@UTypeParameterizedTestSuiteInfo@TypeParameterizedTestSuiteRegistry@internal@testing@@$0A@@?$pair@$$CBV?$basic_string@DU?$char_traits@D@std@@V?$allocator@D@2@@std@@UTypeParameterizedTestSuiteInfo@TypeParameterizedTestSuiteRegistry@internal@testing@@@std@@QEAA@$$QEAV?$basic_string@DU?$char_traits@D@std@@V?$allocator@D@2@@1@$$QEAUTypeParameterizedTestSuiteInfo@TypeParameterizedTestSuiteRegistry@internal@testing@@@Z
	??$?0V?$basic_string@DU?$char_traits@D@std@@V?$allocator@D@2@@std@@UTypeParameterizedTestSuiteInfo@TypeParameterizedTestSuiteRegistry@internal@testing@@@?$_Tree_temp_node@V?$allocator@U?$_Tree_node@U?$pair@$$CBV?$basic_string@DU?$char_traits@D@std@@V?$allocator@D@2@@std@@UTypeParameterizedTestSuiteInfo@TypeParameterizedTestSuiteRegistry@internal@testing@@@std@@PEAX@std@@@std@@@std@@QEAA@AEAV?$allocator@U?$_Tree_node@U?$pair@$$CBV?$basic_string@DU?$char_traits@D@std@@V?$allocator@D@2@@std@@UTypeParameterizedTestSuiteInfo@TypeParameterizedTestSuiteRegistry@internal@testing@@@std@@PEAX@std@@@1@PEAU?$_Tree_node@U?$pair@$$CBV?$basic_string@DU?$char_traits@D@std@@V?$allocator@D@2@@std@@UTypeParameterizedTestSuiteInfo@TypeParameterizedTestSuiteRegistry@internal@testing@@@std@@PEAX@1@$$QEAV?$basic_string@DU?$char_traits@D@std@@V?$allocator@D@2@@1@$$QEAUTypeParameterizedTestSuiteInfo@TypeParameterizedTestSuiteRegistry@internal@testing@@@Z
	??$?0V?$basic_string_view@DU?$char_traits@D@std@@@std@@$0A@@?$basic_string@DU?$char_traits@D@std@@V?$allocator@D@2@@std@@QEAA@AEBV?$basic_string_view@DU?$char_traits@D@std@@@1@AEBV?$allocator@D@1@@Z
	??$?0V?$tuple@$$QEA_K@std@@V?$tuple@$$V@1@$0A@$$Z$S@?$pair@$$CB_KW4CallReaction@internal@testing@@@std@@AEAA@AEAV?$tuple@$$QEA_K@1@AEAV?$tuple@$$V@1@U?$integer_sequence@_K$0A@@1@U?$integer_sequence@_K$S@1@@Z
	??$?0V?$tuple@AEBV?$basic_string@DU?$char_traits@D@std@@V?$allocator@D@2@@std@@@std@@V?$tuple@$$V@1@$0A@$$Z$S@?$pair@$$CBV?$basic_string@DU?$char_traits@D@std@@V?$allocator@D@2@@std@@_K@std@@AEAA@AEAV?$tuple@AEBV?$basic_string@DU?$char_traits@D@std@@V?$allocator@D@2@@std@@@1@AEAV?$tuple@$$V@1@U?$integer_sequence@_K$0A@@1@U?$integer_sequence@_K$S@1@@Z
	??$?0V?$tuple@AEB_K@std@@V?$tuple@$$V@1@$0A@$$Z$S@?$pair@$$CB_KW4CallReaction@internal@testing@@@std@@AEAA@AEAV?$tuple@AEB_K@1@AEAV?$tuple@$$V@1@U?$integer_sequence@_K$0A@@1@U?$integer_sequence@_K$S@1@@Z
	??$?0VExpectation@testing@@$0A@@?$shared_ptr@VExpectation@testing@@@std@@QEAA@PEAVExpectation@testing@@@Z
	??$?0VThreadLocalValueHolderBase@internal@testing@@$0A@@?$shared_ptr@VThreadLocalValueHolderBase@internal@testing@@@std@@QEAA@PEAVThreadLocalValueHolderBase@internal@testing@@@Z
	??$?0_J$0A@@?$duration@_JU?$ratio@$00$00@std@@@chrono@std@@QEAA@AEB_J@Z
	??$?0_J$0A@@?$duration@_JU?$ratio@$00$0DLJKMKAA@@std@@@chrono@std@@QEAA@AEB_J@Z
	??$?0_J$0A@@?$duration@_JU?$ratio@$00$0DOI@@std@@@chrono@std@@QEAA@AEB_J@Z
	??$?0_J$0A@@?$duration@_JU?$ratio@$00$0JIJGIA@@std@@@chrono@std@@QEAA@AEB_J@Z
	??$?0_J@?$_Optimistic_temporary_buffer@PEAVTestInfo@testing@@@std@@QEAA@_J@Z
	??$?0_JU?$ratio@$00$00@std@@$0A@@?$duration@_JU?$ratio@$00$0JIJGIA@@std@@@chrono@std@@QEAA@AEBV?$duration@_JU?$ratio@$00$00@std@@@12@@Z
	??$?0_K$$V$0A@@?$tuple@$$QEA_K@std@@QEAA@$$QEA_K@Z
	??$?0_K@?$_Tuple_val@$$QEA_K@std@@QEAA@$$QEA_K@Z
	??$?0_N@AssertionResult@testing@@QEAA@AEB_NPEAX@Z
	??$?4U?$default_delete@V?$basic_string@DU?$char_traits@D@std@@V?$allocator@D@2@@std@@@std@@$0A@@?$unique_ptr@V?$basic_string@DU?$char_traits@D@std@@V?$allocator@D@2@@std@@U?$default_delete@V?$basic_string@DU?$char_traits@D@std@@V?$allocator@D@2@@std@@@2@@std@@QEAAAEAV01@$$QEAV01@@Z
	??$?6$$BY01D@AssertionResult@testing@@QEAAAEAV01@AEAY01$$CBD@Z
	??$?6$$BY01D@MatchResultListener@testing@@QEAAAEAV01@AEAY01$$CBD@Z
	??$?6$$BY01D@Message@testing@@QEAAAEAV01@AEAY01$$CBD@Z
	??$?6$$BY02D@AssertionResult@testing@@QEAAAEAV01@AEAY02$$CBD@Z
	??$?6$$BY02D@MatchResultListener@testing@@QEAAAEAV01@AEAY02$$CBD@Z
	??$?6$$BY02D@Message@testing@@QEAAAEAV01@AEAY02$$CBD@Z
	??$?6$$BY03D@Message@testing@@QEAAAEAV01@AEAY03$$CBD@Z
	??$?6$$BY04D@AssertionResult@testing@@QEAAAEAV01@AEAY04$$CBD@Z
	??$?6$$BY04D@MatchResultListener@testing@@QEAAAEAV01@AEAY04$$CBD@Z
	??$?6$$BY04D@Message@testing@@QEAAAEAV01@AEAY04$$CBD@Z
	??$?6$$BY05D@AssertionResult@testing@@QEAAAEAV01@AEAY05$$CBD@Z
	??$?6$$BY05D@Message@testing@@QEAAAEAV01@AEAY05$$CBD@Z
	??$?6$$BY06D@AssertionResult@testing@@QEAAAEAV01@AEAY06$$CBD@Z
	??$?6$$BY06D@Message@testing@@QEAAAEAV01@AEAY06$$CBD@Z
	??$?6$$BY07D@Message@testing@@QEAAAEAV01@AEAY07$$CBD@Z
	??$?6$$BY08D@AssertionResult@testing@@QEAAAEAV01@AEAY08$$CBD@Z
	??$?6$$BY08D@Message@testing@@QEAAAEAV01@AEAY08$$CBD@Z
	??$?6$$BY09D@MatchResultListener@testing@@QEAAAEAV01@AEAY09$$CBD@Z
	??$?6$$BY09D@Message@testing@@QEAAAEAV01@AEAY09$$CBD@Z
	??$?6$$BY0BA@D@AssertionResult@testing@@QEAAAEAV01@AEAY0BA@$$CBD@Z
	??$?6$$BY0BA@D@Message@testing@@QEAAAEAV01@AEAY0BA@$$CBD@Z
	??$?6$$BY0BAA@D@Message@testing@@QEAAAEAV01@AEAY0BAA@$$CBD@Z
	??$?6$$BY0BAAA@D@AssertionResult@testing@@QEAAAEAV01@AEAY0BAAA@$$CBD@Z
	??$?6$$BY0BAAA@D@Message@testing@@QEAAAEAV01@AEAY0BAAA@$$CBD@Z
	??$?6$$BY0BB@D@AssertionResult@testing@@QEAAAEAV01@AEAY0BB@$$CBD@Z
	??$?6$$BY0BB@D@Message@testing@@QEAAAEAV01@AEAY0BB@$$CBD@Z
	??$?6$$BY0BC@D@Message@testing@@QEAAAEAV01@AEAY0BC@$$CBD@Z
	??$?6$$BY0BD@D@Message@testing@@QEAAAEAV01@AEAY0BD@$$CBD@Z
	??$?6$$BY0BE@D@Message@testing@@QEAAAEAV01@AEAY0BE@$$CBD@Z
	??$?6$$BY0BF@D@Message@testing@@QEAAAEAV01@AEAY0BF@$$CBD@Z
	??$?6$$BY0BG@D@Message@testing@@QEAAAEAV01@AEAY0BG@$$CBD@Z
	??$?6$$BY0BH@D@Message@testing@@QEAAAEAV01@AEAY0BH@$$CBD@Z
	??$?6$$BY0BI@D@AssertionResult@testing@@QEAAAEAV01@AEAY0BI@$$CBD@Z
	??$?6$$BY0BI@D@Message@testing@@QEAAAEAV01@AEAY0BI@$$CBD@Z
	??$?6$$BY0BJ@D@MatchResultListener@testing@@QEAAAEAV01@AEAY0BJ@$$CBD@Z
	??$?6$$BY0BJ@D@Message@testing@@QEAAAEAV01@AEAY0BJ@$$CBD@Z
	??$?6$$BY0BL@D@AssertionResult@testing@@QEAAAEAV01@AEAY0BL@$$CBD@Z
	??$?6$$BY0BL@D@Message@testing@@QEAAAEAV01@AEAY0BL@$$CBD@Z
	??$?6$$BY0BM@D@Message@testing@@QEAAAEAV01@AEAY0BM@$$CBD@Z
	??$?6$$BY0BN@D@AssertionResult@testing@@QEAAAEAV01@AEAY0BN@$$CBD@Z
	??$?6$$BY0BN@D@Message@testing@@QEAAAEAV01@AEAY0BN@$$CBD@Z
	??$?6$$BY0BO@D@MatchResultListener@testing@@QEAAAEAV01@AEAY0BO@$$CBD@Z
	??$?6$$BY0BO@D@Message@testing@@QEAAAEAV01@AEAY0BO@$$CBD@Z
	??$?6$$BY0CA@D@Message@testing@@QEAAAEAV01@AEAY0CA@$$CBD@Z
	??$?6$$BY0CB@D@Message@testing@@QEAAAEAV01@AEAY0CB@$$CBD@Z
	??$?6$$BY0CD@D@Message@testing@@QEAAAEAV01@AEAY0CD@$$CBD@Z
	??$?6$$BY0CG@D@Message@testing@@QEAAAEAV01@AEAY0CG@$$CBD@Z
	??$?6$$BY0CH@D@Message@testing@@QEAAAEAV01@AEAY0CH@$$CBD@Z
	??$?6$$BY0CI@D@Message@testing@@QEAAAEAV01@AEAY0CI@$$CBD@Z
	??$?6$$BY0CJ@D@Message@testing@@QEAAAEAV01@AEAY0CJ@$$CBD@Z
	??$?6$$BY0CP@D@Message@testing@@QEAAAEAV01@AEAY0CP@$$CBD@Z
	??$?6$$BY0DA@D@Message@testing@@QEAAAEAV01@AEAY0DA@$$CBD@Z
	??$?6$$BY0DC@D@Message@testing@@QEAAAEAV01@AEAY0DC@$$CBD@Z
	??$?6$$BY0DD@D@Message@testing@@QEAAAEAV01@AEAY0DD@$$CBD@Z
	??$?6$$BY0DM@D@Message@testing@@QEAAAEAV01@AEAY0DM@$$CBD@Z
	??$?6$$BY0DO@D@Message@testing@@QEAAAEAV01@AEAY0DO@$$CBD@Z
	??$?6$$BY0DP@D@Message@testing@@QEAAAEAV01@AEAY0DP@$$CBD@Z
	??$?6$$BY0EB@D@MatchResultListener@testing@@QEAAAEAV01@AEAY0EB@$$CBD@Z
	??$?6$$BY0EB@D@Message@testing@@QEAAAEAV01@AEAY0EB@$$CBD@Z
	??$?6$$BY0EE@D@Message@testing@@QEAAAEAV01@AEAY0EE@$$CBD@Z
	??$?6$$BY0FJ@D@MatchResultListener@testing@@QEAAAEAV01@AEAY0FJ@$$CBD@Z
	??$?6$$BY0GE@D@AssertionResult@testing@@QEAAAEAV01@AEAY0GE@$$CBD@Z
	??$?6$$BY0GE@D@Message@testing@@QEAAAEAV01@AEAY0GE@$$CBD@Z
	??$?6$$BY0GK@D@AssertionResult@testing@@QEAAAEAV01@AEAY0GK@$$CBD@Z
	??$?6$$BY0GK@D@Message@testing@@QEAAAEAV01@AEAY0GK@$$CBD@Z
	??$?6$$BY0L@D@AssertionResult@testing@@QEAAAEAV01@AEAY0L@$$CBD@Z
	??$?6$$BY0L@D@MatchResultListener@testing@@QEAAAEAV01@AEAY0L@$$CBD@Z
	??$?6$$BY0L@D@Message@testing@@QEAAAEAV01@AEAY0L@$$CBD@Z
	??$?6$$BY0M@D@AssertionResult@testing@@QEAAAEAV01@AEAY0M@$$CBD@Z
	??$?6$$BY0M@D@Message@testing@@QEAAAEAV01@AEAY0M@$$CBD@Z
	??$?6$$BY0N@D@AssertionResult@testing@@QEAAAEAV01@AEAY0N@$$CBD@Z
	??$?6$$BY0N@D@MatchResultListener@testing@@QEAAAEAV01@AEAY0N@$$CBD@Z
	??$?6$$BY0N@D@Message@testing@@QEAAAEAV01@AEAY0N@$$CBD@Z
	??$?6$$BY0O@D@AssertionResult@testing@@QEAAAEAV01@AEAY0O@$$CBD@Z
	??$?6$$BY0O@D@Message@testing@@QEAAAEAV01@AEAY0O@$$CBD@Z
	??$?6$$BY0P@D@AssertionResult@testing@@QEAAAEAV01@AEAY0P@$$CBD@Z
	??$?6$$BY0P@D@Message@testing@@QEAAAEAV01@AEAY0P@$$CBD@Z
	??$?6$$CBD@Message@testing@@QEAAAEAV01@AEBQEBD@Z
	??$?6D@Message@testing@@QEAAAEAV01@AEBD@Z
	??$?6D@Message@testing@@QEAAAEAV01@AEBQEAD@Z
	??$?6DU?$char_traits@D@std@@@std@@YAAEAV?$basic_ostream@DU?$char_traits@D@std@@@0@AEAV10@AEBU?$_Fillobj@D@0@@Z
	??$?6DU?$char_traits@D@std@@@std@@YAAEAV?$basic_ostream@DU?$char_traits@D@std@@@0@AEAV10@AEBU?$_Smanip@H@0@@Z
	??$?6DU?$char_traits@D@std@@@std@@YAAEAV?$basic_ostream@DU?$char_traits@D@std@@@0@AEAV10@AEBU?$_Smanip@_J@0@@Z
	??$?6DU?$char_traits@D@std@@V?$allocator@D@1@@std@@YAAEAV?$basic_ostream@DU?$char_traits@D@std@@@0@AEAV10@AEBV?$basic_string@DU?$char_traits@D@std@@V?$allocator@D@2@@0@@Z
	??$?6H@Message@testing@@QEAAAEAV01@AEBH@Z
	??$?6I@Message@testing@@QEAAAEAV01@AEBI@Z
	??$?6K@Message@testing@@QEAAAEAV01@AEBK@Z
	??$?6N@AssertionResult@testing@@QEAAAEAV01@AEBN@Z
	??$?6N@Message@testing@@QEAAAEAV01@AEBN@Z
	??$?6PEBD@AssertionResult@testing@@QEAAAEAV01@AEBQEBD@Z
	??$?6PEBD@MatchResultListener@testing@@QEAAAEAV01@AEBQEBD@Z
	??$?6PEB_W@AssertionResult@testing@@QEAAAEAV01@AEBQEB_W@Z
	??$?6U?$_Smanip@H@std@@@Message@testing@@QEAAAEAV01@AEBU?$_Smanip@H@std@@@Z
	??$?6U?$char_traits@D@std@@@std@@YAAEAV?$basic_ostream@DU?$char_traits@D@std@@@0@AEAV10@D@Z
	??$?6U?$char_traits@D@std@@@std@@YAAEAV?$basic_ostream@DU?$char_traits@D@std@@@0@AEAV10@PEBD@Z
	??$?6V?$basic_string@DU?$char_traits@D@std@@V?$allocator@D@2@@std@@@AssertionResult@testing@@QEAAAEAV01@AEBV?$basic_string@DU?$char_traits@D@std@@V?$allocator@D@2@@std@@@Z
	??$?6V?$basic_string@DU?$char_traits@D@std@@V?$allocator@D@2@@std@@@MatchResultListener@testing@@QEAAAEAV01@AEBV?$basic_string@DU?$char_traits@D@std@@V?$allocator@D@2@@std@@@Z
	??$?6V?$basic_string@DU?$char_traits@D@std@@V?$allocator@D@2@@std@@@Message@testing@@QEAAAEAV01@AEBV?$basic_string@DU?$char_traits@D@std@@V?$allocator@D@2@@std@@@Z
	??$?6V?$basic_string@_WU?$char_traits@_W@std@@V?$allocator@_W@2@@std@@@AssertionResult@testing@@QEAAAEAV01@AEBV?$basic_string@_WU?$char_traits@_W@std@@V?$allocator@_W@2@@std@@@Z
	??$?6VMessage@testing@@@AssertionResult@testing@@QEAAAEAV01@AEBVMessage@1@@Z
	??$?6VMessage@testing@@@MatchResultListener@testing@@QEAAAEAV01@AEBVMessage@1@@Z
	??$?6VMessage@testing@@@Message@testing@@QEAAAEAV01@AEBV01@@Z
	??$?6VTestPartResult@testing@@@AssertionResult@testing@@QEAAAEAV01@AEBVTestPartResult@1@@Z
	??$?6VTestPartResult@testing@@@Message@testing@@QEAAAEAV01@AEBVTestPartResult@1@@Z
	??$?6_J@Message@testing@@QEAAAEAV01@AEB_J@Z
	??$?6_K@MatchResultListener@testing@@QEAAAEAV01@AEB_K@Z
	??$?6_K@Message@testing@@QEAAAEAV01@AEB_K@Z
	??$?8$$CBV?$basic_string@DU?$char_traits@D@std@@V?$allocator@D@2@@std@@U?$default_delete@$$CBV?$basic_string@DU?$char_traits@D@std@@V?$allocator@D@2@@std@@@1@@std@@YA_NAEBV?$unique_ptr@$$CBV?$basic_string@DU?$char_traits@D@std@@V?$allocator@D@2@@std@@U?$default_delete@$$CBV?$basic_string@DU?$char_traits@D@std@@V?$allocator@D@2@@std@@@2@@0@$$T@Z
	??$?8DU?$char_traits@D@std@@$01@std@@YA_NV?$basic_string_view@DU?$char_traits@D@std@@@0@0@Z
	??$?8DU?$char_traits@D@std@@V?$allocator@D@1@@std@@YA_NAEBV?$basic_string@DU?$char_traits@D@std@@V?$allocator@D@2@@0@0@Z
	??$?8DU?$char_traits@D@std@@V?$allocator@D@1@@std@@YA_NAEBV?$basic_string@DU?$char_traits@D@std@@V?$allocator@D@2@@0@QEBD@Z
	??$?8DU?$char_traits@D@std@@V?$allocator@D@1@@std@@YA_NQEBDAEBV?$basic_string@DU?$char_traits@D@std@@V?$allocator@D@2@@0@@Z
	??$?8V?$basic_string@DU?$char_traits@D@std@@V?$allocator@D@2@@std@@U?$default_delete@V?$basic_string@DU?$char_traits@D@std@@V?$allocator@D@2@@std@@@1@@std@@YA_NAEBV?$unique_ptr@V?$basic_string@DU?$char_traits@D@std@@V?$allocator@D@2@@std@@U?$default_delete@V?$basic_string@DU?$char_traits@D@std@@V?$allocator@D@2@@std@@@2@@0@$$T@Z
	??$?8VExpectationBase@internal@testing@@V012@@std@@YA_NAEBV?$shared_ptr@VExpectationBase@internal@testing@@@0@0@Z
	??$?8VInternalRunDeathTestFlag@internal@testing@@U?$default_delete@VInternalRunDeathTestFlag@internal@testing@@@std@@@std@@YA_NAEBV?$unique_ptr@VInternalRunDeathTestFlag@internal@testing@@U?$default_delete@VInternalRunDeathTestFlag@internal@testing@@@std@@@0@$$T@Z
	??$?9$$CBV?$basic_string@DU?$char_traits@D@std@@V?$allocator@D@2@@std@@U?$default_delete@$$CBV?$basic_string@DU?$char_traits@D@std@@V?$allocator@D@2@@std@@@1@@std@@YA_NAEBV?$unique_ptr@$$CBV?$basic_string@DU?$char_traits@D@std@@V?$allocator@D@2@@std@@U?$default_delete@$$CBV?$basic_string@DU?$char_traits@D@std@@V?$allocator@D@2@@std@@@2@@0@$$T@Z
	??$?9DU?$char_traits@D@std@@V?$allocator@D@1@@std@@YA_NAEBV?$basic_string@DU?$char_traits@D@std@@V?$allocator@D@2@@0@QEBD@Z
	??$?9PEAPEAVEnvironment@testing@@PEAPEAV01@@std@@YA_NAEBV?$reverse_iterator@PEAPEAVEnvironment@testing@@@0@0@Z
	??$?9V?$basic_string@DU?$char_traits@D@std@@V?$allocator@D@2@@std@@U?$default_delete@V?$basic_string@DU?$char_traits@D@std@@V?$allocator@D@2@@std@@@1@@std@@YA_NAEBV?$unique_ptr@V?$basic_string@DU?$char_traits@D@std@@V?$allocator@D@2@@std@@U?$default_delete@V?$basic_string@DU?$char_traits@D@std@@V?$allocator@D@2@@std@@@2@@0@$$T@Z
	??$?9VExpectationBase@internal@testing@@@std@@YA_NAEBV?$shared_ptr@VExpectationBase@internal@testing@@@0@$$T@Z
	??$?9VInternalRunDeathTestFlag@internal@testing@@U?$default_delete@VInternalRunDeathTestFlag@internal@testing@@@std@@@std@@YA_NAEBV?$unique_ptr@VInternalRunDeathTestFlag@internal@testing@@U?$default_delete@VInternalRunDeathTestFlag@internal@testing@@@std@@@0@$$T@Z
	??$?C$$CBVCardinalityInterface@testing@@$0A@@?$shared_ptr@$$CBVCardinalityInterface@testing@@@std@@QEBAPEBVCardinalityInterface@testing@@XZ
	??$?CVExpectation@testing@@$0A@@?$shared_ptr@VExpectation@testing@@@std@@QEBAPEAVExpectation@testing@@XZ
	??$?CVExpectationBase@internal@testing@@$0A@@?$shared_ptr@VExpectationBase@internal@testing@@@std@@QEBAPEAVExpectationBase@internal@testing@@XZ
	??$?DVExpectation@testing@@$0A@@?$shared_ptr@VExpectation@testing@@@std@@QEBAAEAVExpectation@testing@@XZ
	??$?GUsteady_clock@chrono@std@@V?$duration@_JU?$ratio@$00$0DLJKMKAA@@std@@@12@V312@@chrono@std@@YA?AV?$duration@_JU?$ratio@$00$0DLJKMKAA@@std@@@01@AEBV?$time_point@Usteady_clock@chrono@std@@V?$duration@_JU?$ratio@$00$0DLJKMKAA@@std@@@23@@01@0@Z
	??$?GUsystem_clock@chrono@std@@V?$duration@_JU?$ratio@$00$0JIJGIA@@std@@@12@V312@@chrono@std@@YA?AV?$duration@_JU?$ratio@$00$0JIJGIA@@std@@@01@AEBV?$time_point@Usystem_clock@chrono@std@@V?$duration@_JU?$ratio@$00$0JIJGIA@@std@@@23@@01@0@Z
	??$?G_JU?$ratio@$00$0DLJKMKAA@@std@@_JU01@@chrono@std@@YA?AV?$duration@_JU?$ratio@$00$0DLJKMKAA@@std@@@01@AEBV201@0@Z
	??$?G_JU?$ratio@$00$0JIJGIA@@std@@_JU01@@chrono@std@@YA?AV?$duration@_JU?$ratio@$00$0JIJGIA@@std@@@01@AEBV201@0@Z
	??$?HDU?$char_traits@D@std@@V?$allocator@D@1@@std@@YA?AV?$basic_string@DU?$char_traits@D@std@@V?$allocator@D@2@@0@$$QEAV10@0@Z
	??$?HDU?$char_traits@D@std@@V?$allocator@D@1@@std@@YA?AV?$basic_string@DU?$char_traits@D@std@@V?$allocator@D@2@@0@$$QEAV10@AEBV10@@Z
	??$?HDU?$char_traits@D@std@@V?$allocator@D@1@@std@@YA?AV?$basic_string@DU?$char_traits@D@std@@V?$allocator@D@2@@0@$$QEAV10@D@Z
	??$?HDU?$char_traits@D@std@@V?$allocator@D@1@@std@@YA?AV?$basic_string@DU?$char_traits@D@std@@V?$allocator@D@2@@0@$$QEAV10@QEBD@Z
	??$?HDU?$char_traits@D@std@@V?$allocator@D@1@@std@@YA?AV?$basic_string@DU?$char_traits@D@std@@V?$allocator@D@2@@0@AEBV10@D@Z
	??$?HDU?$char_traits@D@std@@V?$allocator@D@1@@std@@YA?AV?$basic_string@DU?$char_traits@D@std@@V?$allocator@D@2@@0@AEBV10@QEBD@Z
	??$?HDU?$char_traits@D@std@@V?$allocator@D@1@@std@@YA?AV?$basic_string@DU?$char_traits@D@std@@V?$allocator@D@2@@0@QEBD$$QEAV10@@Z
	??$?HDU?$char_traits@D@std@@V?$allocator@D@1@@std@@YA?AV?$basic_string@DU?$char_traits@D@std@@V?$allocator@D@2@@0@QEBDAEBV10@@Z
	??$?MDU?$char_traits@D@std@@V?$allocator@D@1@@std@@YA_NAEBV?$basic_string@DU?$char_traits@D@std@@V?$allocator@D@2@@0@0@Z
	??$?RAEBV?$basic_string@DU?$char_traits@D@std@@V?$allocator@D@2@@std@@AEBV01@@?$equal_to@X@std@@QEBA_NAEBV?$basic_string@DU?$char_traits@D@std@@V?$allocator@D@2@@1@0@Z
	??$?RAEBV?$basic_string@DU?$char_traits@D@std@@V?$allocator@D@2@@std@@AEBV01@@?$less@X@std@@QEBA_NAEBV?$basic_string@DU?$char_traits@D@std@@V?$allocator@D@2@@1@0@Z
	??$?RAEBV?$basic_string_view@DU?$char_traits@D@std@@@std@@AEBV?$basic_string@DU?$char_traits@D@std@@V?$allocator@D@2@@1@@?$equal_to@X@std@@QEBA_NAEBV?$basic_string_view@DU?$char_traits@D@std@@@1@AEBV?$basic_string@DU?$char_traits@D@std@@V?$allocator@D@2@@1@@Z
	??$?RV?$basic_string@DU?$char_traits@D@std@@V?$allocator@D@2@@std@@@?$_Uhash_compare@V?$basic_string@DU?$char_traits@D@std@@V?$allocator@D@2@@std@@U?$hash@V?$basic_string@DU?$char_traits@D@std@@V?$allocator@D@2@@std@@@2@U?$equal_to@V?$basic_string@DU?$char_traits@D@std@@V?$allocator@D@2@@std@@@2@@std@@QEBA_KAEBV?$basic_string@DU?$char_traits@D@std@@V?$allocator@D@2@@1@@Z
	??$?RV?$basic_string@DU?$char_traits@D@std@@V?$allocator@D@2@@std@@V01@@?$_Uhash_compare@V?$basic_string@DU?$char_traits@D@std@@V?$allocator@D@2@@std@@U?$hash@V?$basic_string@DU?$char_traits@D@std@@V?$allocator@D@2@@std@@@2@U?$equal_to@V?$basic_string@DU?$char_traits@D@std@@V?$allocator@D@2@@std@@@2@@std@@QEBA_NAEBV?$basic_string@DU?$char_traits@D@std@@V?$allocator@D@2@@1@0@Z
	??$?R_K@?$_Uhash_compare@_KU?$hash@_K@std@@U?$equal_to@_K@2@@std@@QEBA_KAEB_K@Z
	??$?R_K_K@?$_Uhash_compare@_KU?$hash@_K@std@@U?$equal_to@_K@2@@std@@QEBA_NAEB_K0@Z
	??$ArrayAsVector@$07@testing@@YA?AV?$vector@V?$basic_string@DU?$char_traits@D@std@@V?$allocator@D@2@@std@@V?$allocator@V?$basic_string@DU?$char_traits@D@std@@V?$allocator@D@2@@std@@@2@@std@@AEAY07QEBD@Z
	??$ArrayAsVector@$09@testing@@YA?AV?$vector@V?$basic_string@DU?$char_traits@D@std@@V?$allocator@D@2@@std@@V?$allocator@V?$basic_string@DU?$char_traits@D@std@@V?$allocator@D@2@@std@@@2@@std@@AEAY09QEBD@Z
	??$CountIf@V?$vector@PEAVTestInfo@testing@@V?$allocator@PEAVTestInfo@testing@@@std@@@std@@P6A_NPEBVTestInfo@testing@@@Z@internal@testing@@YAHAEBV?$vector@PEAVTestInfo@testing@@V?$allocator@PEAVTestInfo@testing@@@std@@@std@@P6A_NPEBVTestInfo@1@@Z@Z
	??$CountIf@V?$vector@PEAVTestSuite@testing@@V?$allocator@PEAVTestSuite@testing@@@std@@@std@@P6A_NPEBVTestSuite@testing@@@Z@internal@testing@@YAHAEBV?$vector@PEAVTestSuite@testing@@V?$allocator@PEAVTestSuite@testing@@@std@@@std@@P6A_NPEBVTestSuite@1@@Z@Z
	??$CountIf@V?$vector@VTestPartResult@testing@@V?$allocator@VTestPartResult@testing@@@std@@@std@@P6A_NAEBVTestPartResult@testing@@@Z@internal@testing@@YAHAEBV?$vector@VTestPartResult@testing@@V?$allocator@VTestPartResult@testing@@@std@@@std@@P6A_NAEBVTestPartResult@1@@Z@Z
	??$DescribeImpl@U?$ValuePolicy@V?$EqMatcher@V?$basic_string@DU?$char_traits@D@std@@V?$allocator@D@2@@std@@@internal@testing@@$0A@@?$MatcherBase@AEBV?$basic_string@DU?$char_traits@D@std@@V?$allocator@D@2@@std@@@internal@testing@@@?$MatcherBase@AEBV?$basic_string@DU?$char_traits@D@std@@V?$allocator@D@2@@std@@@internal@testing@@CAXAEBV012@PEAV?$basic_ostream@DU?$char_traits@D@std@@@std@@_N@Z
	??$DescribeImpl@U?$ValuePolicy@V?$EqMatcher@V?$basic_string@DU?$char_traits@D@std@@V?$allocator@D@2@@std@@@internal@testing@@$0A@@?$MatcherBase@AEBV?$basic_string_view@DU?$char_traits@D@std@@@std@@@internal@testing@@@?$MatcherBase@AEBV?$basic_string_view@DU?$char_traits@D@std@@@std@@@internal@testing@@CAXAEBV012@PEAV?$basic_ostream@DU?$char_traits@D@std@@@std@@_N@Z
	??$DescribeImpl@U?$ValuePolicy@V?$EqMatcher@V?$basic_string@DU?$char_traits@D@std@@V?$allocator@D@2@@std@@@internal@testing@@$0A@@?$MatcherBase@V?$basic_string@DU?$char_traits@D@std@@V?$allocator@D@2@@std@@@internal@testing@@@?$MatcherBase@V?$basic_string@DU?$char_traits@D@std@@V?$allocator@D@2@@std@@@internal@testing@@CAXAEBV012@PEAV?$basic_ostream@DU?$char_traits@D@std@@@std@@_N@Z
	??$DescribeImpl@U?$ValuePolicy@V?$EqMatcher@V?$basic_string@DU?$char_traits@D@std@@V?$allocator@D@2@@std@@@internal@testing@@$0A@@?$MatcherBase@V?$basic_string_view@DU?$char_traits@D@std@@@std@@@internal@testing@@@?$MatcherBase@V?$basic_string_view@DU?$char_traits@D@std@@@std@@@internal@testing@@CAXAEBV012@PEAV?$basic_ostream@DU?$char_traits@D@std@@@std@@_N@Z
	??$Eq@V?$basic_string@DU?$char_traits@D@std@@V?$allocator@D@2@@std@@@testing@@YA?AV?$EqMatcher@V?$basic_string@DU?$char_traits@D@std@@V?$allocator@D@2@@std@@@internal@0@V?$basic_string@DU?$char_traits@D@std@@V?$allocator@D@2@@std@@@Z
	??$FloatingPointLE@M@internal@testing@@YA?AVAssertionResult@1@PEBD0MM@Z
	??$FloatingPointLE@N@internal@testing@@YA?AVAssertionResult@1@PEBD0NN@Z
	??$ForEach@V?$vector@PEAVEnvironment@testing@@V?$allocator@PEAVEnvironment@testing@@@std@@@std@@P6AXPEAVEnvironment@testing@@@Z@internal@testing@@YAXAEBV?$vector@PEAVEnvironment@testing@@V?$allocator@PEAVEnvironment@testing@@@std@@@std@@P6AXPEAVEnvironment@1@@Z@Z
	??$ForEach@V?$vector@PEAVTestEventListener@testing@@V?$allocator@PEAVTestEventListener@testing@@@std@@@std@@P6AXPEAVTestEventListener@testing@@@Z@internal@testing@@YAXAEBV?$vector@PEAVTestEventListener@testing@@V?$allocator@PEAVTestEventListener@testing@@@std@@@std@@P6AXPEAVTestEventListener@1@@Z@Z
	??$ForEach@V?$vector@PEAVTestInfo@testing@@V?$allocator@PEAVTestInfo@testing@@@std@@@std@@P6AXPEAVTestInfo@testing@@@Z@internal@testing@@YAXAEBV?$vector@PEAVTestInfo@testing@@V?$allocator@PEAVTestInfo@testing@@@std@@@std@@P6AXPEAVTestInfo@1@@Z@Z
	??$ForEach@V?$vector@PEAVTestSuite@testing@@V?$allocator@PEAVTestSuite@testing@@@std@@@std@@P6AXPEAVTestSuite@testing@@@Z@internal@testing@@YAXAEBV?$vector@PEAVTestSuite@testing@@V?$allocator@PEAVTestSuite@testing@@@std@@@std@@P6AXPEAVTestSuite@1@@Z@Z
	??$GetDescriberImpl@U?$ValuePolicy@V?$EqMatcher@V?$basic_string@DU?$char_traits@D@std@@V?$allocator@D@2@@std@@@internal@testing@@$0A@@?$MatcherBase@AEBV?$basic_string@DU?$char_traits@D@std@@V?$allocator@D@2@@std@@@internal@testing@@@?$MatcherBase@AEBV?$basic_string@DU?$char_traits@D@std@@V?$allocator@D@2@@std@@@internal@testing@@CAPEBVMatcherDescriberInterface@2@AEBV012@@Z
	??$GetDescriberImpl@U?$ValuePolicy@V?$EqMatcher@V?$basic_string@DU?$char_traits@D@std@@V?$allocator@D@2@@std@@@internal@testing@@$0A@@?$MatcherBase@AEBV?$basic_string_view@DU?$char_traits@D@std@@@std@@@internal@testing@@@?$MatcherBase@AEBV?$basic_string_view@DU?$char_traits@D@std@@@std@@@internal@testing@@CAPEBVMatcherDescriberInterface@2@AEBV012@@Z
	??$GetDescriberImpl@U?$ValuePolicy@V?$EqMatcher@V?$basic_string@DU?$char_traits@D@std@@V?$allocator@D@2@@std@@@internal@testing@@$0A@@?$MatcherBase@V?$basic_string@DU?$char_traits@D@std@@V?$allocator@D@2@@std@@@internal@testing@@@?$MatcherBase@V?$basic_string@DU?$char_traits@D@std@@V?$allocator@D@2@@std@@@internal@testing@@CAPEBVMatcherDescriberInterface@2@AEBV012@@Z
	??$GetDescriberImpl@U?$ValuePolicy@V?$EqMatcher@V?$basic_string@DU?$char_traits@D@std@@V?$allocator@D@2@@std@@@internal@testing@@$0A@@?$MatcherBase@V?$basic_string_view@DU?$char_traits@D@std@@@std@@@internal@testing@@@?$MatcherBase@V?$basic_string_view@DU?$char_traits@D@std@@@std@@@internal@testing@@CAPEBVMatcherDescriberInterface@2@AEBV012@@Z
	??$GetElementOr@H@internal@testing@@YAHAEBV?$vector@HV?$allocator@H@std@@@std@@HH@Z
	??$GetTypeId@VTest@testing@@@internal@testing@@YAPEBXXZ
	??$GetVTable@U?$ValuePolicy@V?$EqMatcher@V?$basic_string@DU?$char_traits@D@std@@V?$allocator@D@2@@std@@@internal@testing@@$0A@@?$MatcherBase@AEBV?$basic_string@DU?$char_traits@D@std@@V?$allocator@D@2@@std@@@internal@testing@@@?$MatcherBase@AEBV?$basic_string@DU?$char_traits@D@std@@V?$allocator@D@2@@std@@@internal@testing@@AEAAPEBUVTable@012@XZ
	??$GetVTable@U?$ValuePolicy@V?$EqMatcher@V?$basic_string@DU?$char_traits@D@std@@V?$allocator@D@2@@std@@@internal@testing@@$0A@@?$MatcherBase@AEBV?$basic_string_view@DU?$char_traits@D@std@@@std@@@internal@testing@@@?$MatcherBase@AEBV?$basic_string_view@DU?$char_traits@D@std@@@std@@@internal@testing@@AEAAPEBUVTable@012@XZ
	??$GetVTable@U?$ValuePolicy@V?$EqMatcher@V?$basic_string@DU?$char_traits@D@std@@V?$allocator@D@2@@std@@@internal@testing@@$0A@@?$MatcherBase@V?$basic_string@DU?$char_traits@D@std@@V?$allocator@D@2@@std@@@internal@testing@@@?$MatcherBase@V?$basic_string@DU?$char_traits@D@std@@V?$allocator@D@2@@std@@@internal@testing@@AEAAPEBUVTable@012@XZ
	??$GetVTable@U?$ValuePolicy@V?$EqMatcher@V?$basic_string@DU?$char_traits@D@std@@V?$allocator@D@2@@std@@@internal@testing@@$0A@@?$MatcherBase@V?$basic_string_view@DU?$char_traits@D@std@@@std@@@internal@testing@@@?$MatcherBase@V?$basic_string_view@DU?$char_traits@D@std@@@std@@@internal@testing@@AEAAPEBUVTable@012@XZ
	??$HandleExceptionsInMethodIfSupported@VTest@testing@@X@internal@testing@@YAXPEAVTest@1@P821@EAAXXZPEBD@Z
	??$HandleExceptionsInMethodIfSupported@VTestFactoryBase@internal@testing@@PEAVTest@3@@internal@testing@@YAPEAVTest@1@PEAVTestFactoryBase@01@P8301@EAAPEAV21@XZPEBD@Z
	??$HandleExceptionsInMethodIfSupported@VTestSuite@testing@@X@internal@testing@@YAXPEAVTestSuite@1@P821@EAAXXZPEBD@Z
	??$HandleExceptionsInMethodIfSupported@VUnitTestImpl@internal@testing@@_N@internal@testing@@YA_NPEAVUnitTestImpl@01@P8201@EAA_NXZPEBD@Z
	??$HandleSehExceptionsInMethodIfSupported@VTest@testing@@X@internal@testing@@YAXPEAVTest@1@P821@EAAXXZPEBD@Z
	??$HandleSehExceptionsInMethodIfSupported@VTestFactoryBase@internal@testing@@PEAVTest@3@@internal@testing@@YAPEAVTest@1@PEAVTestFactoryBase@01@P8301@EAAPEAV21@XZPEBD@Z
	??$HandleSehExceptionsInMethodIfSupported@VTestSuite@testing@@X@internal@testing@@YAXPEAVTestSuite@1@P821@EAAXXZPEBD@Z
	??$HandleSehExceptionsInMethodIfSupported@VUnitTestImpl@internal@testing@@_N@internal@testing@@YA_NPEAVUnitTestImpl@01@P8201@EAA_NXZPEBD@Z
	??$ImplicitCast_@PEBX@internal@testing@@YAPEBXPEBX@Z
	??$Init@V?$EqMatcher@V?$basic_string@DU?$char_traits@D@std@@V?$allocator@D@2@@std@@@internal@testing@@@?$MatcherBase@AEBV?$basic_string@DU?$char_traits@D@std@@V?$allocator@D@2@@std@@@internal@testing@@AEAAX$$QEAV?$EqMatcher@V?$basic_string@DU?$char_traits@D@std@@V?$allocator@D@2@@std@@@12@@Z
	??$Init@V?$EqMatcher@V?$basic_string@DU?$char_traits@D@std@@V?$allocator@D@2@@std@@@internal@testing@@@?$MatcherBase@AEBV?$basic_string_view@DU?$char_traits@D@std@@@std@@@internal@testing@@AEAAX$$QEAV?$EqMatcher@V?$basic_string@DU?$char_traits@D@std@@V?$allocator@D@2@@std@@@12@@Z
	??$Init@V?$EqMatcher@V?$basic_string@DU?$char_traits@D@std@@V?$allocator@D@2@@std@@@internal@testing@@@?$MatcherBase@V?$basic_string@DU?$char_traits@D@std@@V?$allocator@D@2@@std@@@internal@testing@@AEAAX$$QEAV?$EqMatcher@V?$basic_string@DU?$char_traits@D@std@@V?$allocator@D@2@@std@@@12@@Z
	??$Init@V?$EqMatcher@V?$basic_string@DU?$char_traits@D@std@@V?$allocator@D@2@@std@@@internal@testing@@@?$MatcherBase@V?$basic_string_view@DU?$char_traits@D@std@@@std@@@internal@testing@@AEAAX$$QEAV?$EqMatcher@V?$basic_string@DU?$char_traits@D@std@@V?$allocator@D@2@@std@@@12@@Z
	??$Init@V?$EqMatcher@V?$basic_string@DU?$char_traits@D@std@@V?$allocator@D@2@@std@@@internal@testing@@@?$ValuePolicy@V?$EqMatcher@V?$basic_string@DU?$char_traits@D@std@@V?$allocator@D@2@@std@@@internal@testing@@$0A@@?$MatcherBase@AEBV?$basic_string@DU?$char_traits@D@std@@V?$allocator@D@2@@std@@@internal@testing@@SAXAEAV123@$$QEAV?$EqMatcher@V?$basic_string@DU?$char_traits@D@std@@V?$allocator@D@2@@std@@@23@@Z
	??$Init@V?$EqMatcher@V?$basic_string@DU?$char_traits@D@std@@V?$allocator@D@2@@std@@@internal@testing@@@?$ValuePolicy@V?$EqMatcher@V?$basic_string@DU?$char_traits@D@std@@V?$allocator@D@2@@std@@@internal@testing@@$0A@@?$MatcherBase@AEBV?$basic_string_view@DU?$char_traits@D@std@@@std@@@internal@testing@@SAXAEAV123@$$QEAV?$EqMatcher@V?$basic_string@DU?$char_traits@D@std@@V?$allocator@D@2@@std@@@23@@Z
	??$Init@V?$EqMatcher@V?$basic_string@DU?$char_traits@D@std@@V?$allocator@D@2@@std@@@internal@testing@@@?$ValuePolicy@V?$EqMatcher@V?$basic_string@DU?$char_traits@D@std@@V?$allocator@D@2@@std@@@internal@testing@@$0A@@?$MatcherBase@V?$basic_string@DU?$char_traits@D@std@@V?$allocator@D@2@@std@@@internal@testing@@SAXAEAV123@$$QEAV?$EqMatcher@V?$basic_string@DU?$char_traits@D@std@@V?$allocator@D@2@@std@@@23@@Z
	??$Init@V?$EqMatcher@V?$basic_string@DU?$char_traits@D@std@@V?$allocator@D@2@@std@@@internal@testing@@@?$ValuePolicy@V?$EqMatcher@V?$basic_string@DU?$char_traits@D@std@@V?$allocator@D@2@@std@@@internal@testing@@$0A@@?$MatcherBase@V?$basic_string_view@DU?$char_traits@D@std@@@std@@@internal@testing@@SAXAEAV123@$$QEAV?$EqMatcher@V?$basic_string@DU?$char_traits@D@std@@V?$allocator@D@2@@std@@@23@@Z
	??$InitGoogleMockImpl@D@internal@testing@@YAXPEAHPEAPEAD@Z
	??$InitGoogleMockImpl@_W@internal@testing@@YAXPEAHPEAPEA_W@Z
	??$InitGoogleTestImpl@D@internal@testing@@YAXPEAHPEAPEAD@Z
	??$InitGoogleTestImpl@_W@internal@testing@@YAXPEAHPEAPEA_W@Z
	??$MatchAndExplain@V?$basic_string@DU?$char_traits@D@std@@V?$allocator@D@2@@std@@@?$ComparisonBase@V?$EqMatcher@V?$basic_string@DU?$char_traits@D@std@@V?$allocator@D@2@@std@@@internal@testing@@V?$basic_string@DU?$char_traits@D@std@@V?$allocator@D@2@@std@@U?$equal_to@X@5@@internal@testing@@QEBA_NAEBV?$basic_string@DU?$char_traits@D@std@@V?$allocator@D@2@@std@@PEAV?$basic_ostream@DU?$char_traits@D@std@@@4@@Z
	??$MatchAndExplain@V?$basic_string_view@DU?$char_traits@D@std@@@std@@@?$ComparisonBase@V?$EqMatcher@V?$basic_string@DU?$char_traits@D@std@@V?$allocator@D@2@@std@@@internal@testing@@V?$basic_string@DU?$char_traits@D@std@@V?$allocator@D@2@@std@@U?$equal_to@X@5@@internal@testing@@QEBA_NAEBV?$basic_string_view@DU?$char_traits@D@std@@@std@@PEAV?$basic_ostream@DU?$char_traits@D@std@@@4@@Z
	??$MatchAndExplainImpl@U?$ValuePolicy@V?$EqMatcher@V?$basic_string@DU?$char_traits@D@std@@V?$allocator@D@2@@std@@@internal@testing@@$0A@@?$MatcherBase@AEBV?$basic_string@DU?$char_traits@D@std@@V?$allocator@D@2@@std@@@internal@testing@@@?$MatcherBase@AEBV?$basic_string@DU?$char_traits@D@std@@V?$allocator@D@2@@std@@@internal@testing@@CA_NAEBV012@AEBV?$basic_string@DU?$char_traits@D@std@@V?$allocator@D@2@@std@@PEAVMatchResultListener@2@@Z
	??$MatchAndExplainImpl@U?$ValuePolicy@V?$EqMatcher@V?$basic_string@DU?$char_traits@D@std@@V?$allocator@D@2@@std@@@internal@testing@@$0A@@?$MatcherBase@AEBV?$basic_string_view@DU?$char_traits@D@std@@@std@@@internal@testing@@@?$MatcherBase@AEBV?$basic_string_view@DU?$char_traits@D@std@@@std@@@internal@testing@@CA_NAEBV012@AEBV?$basic_string_view@DU?$char_traits@D@std@@@std@@PEAVMatchResultListener@2@@Z
	??$MatchAndExplainImpl@U?$ValuePolicy@V?$EqMatcher@V?$basic_string@DU?$char_traits@D@std@@V?$allocator@D@2@@std@@@internal@testing@@$0A@@?$MatcherBase@V?$basic_string@DU?$char_traits@D@std@@V?$allocator@D@2@@std@@@internal@testing@@@?$MatcherBase@V?$basic_string@DU?$char_traits@D@std@@V?$allocator@D@2@@std@@@internal@testing@@CA_NAEBV012@AEBV?$basic_string@DU?$char_traits@D@std@@V?$allocator@D@2@@std@@PEAVMatchResultListener@2@@Z
	??$MatchAndExplainImpl@U?$ValuePolicy@V?$EqMatcher@V?$basic_string@DU?$char_traits@D@std@@V?$allocator@D@2@@std@@@internal@testing@@$0A@@?$MatcherBase@V?$basic_string_view@DU?$char_traits@D@std@@@std@@@internal@testing@@@?$MatcherBase@V?$basic_string_view@DU?$char_traits@D@std@@@std@@@internal@testing@@CA_NAEBV012@AEBV?$basic_string_view@DU?$char_traits@D@std@@@std@@PEAVMatchResultListener@2@@Z
	??$ParseGoogleTestFlagsOnlyImpl@D@internal@testing@@YAXPEAHPEAPEAD@Z
	??$ParseGoogleTestFlagsOnlyImpl@_W@internal@testing@@YAXPEAHPEAPEA_W@Z
	??$ParseNaturalNumber@H@internal@testing@@YA_NAEBV?$basic_string@DU?$char_traits@D@std@@V?$allocator@D@2@@std@@PEAH@Z
	??$ParseNaturalNumber@I@internal@testing@@YA_NAEBV?$basic_string@DU?$char_traits@D@std@@V?$allocator@D@2@@std@@PEAI@Z
	??$ParseNaturalNumber@_K@internal@testing@@YA_NAEBV?$basic_string@DU?$char_traits@D@std@@V?$allocator@D@2@@std@@PEA_K@Z
	??$PrintCharAndCodeTo@C@internal@testing@@YAXCPEAV?$basic_ostream@DU?$char_traits@D@std@@@std@@@Z
	??$PrintCharAndCodeTo@E@internal@testing@@YAXEPEAV?$basic_ostream@DU?$char_traits@D@std@@@std@@@Z
	??$PrintCharAndCodeTo@_W@internal@testing@@YAX_WPEAV?$basic_ostream@DU?$char_traits@D@std@@@std@@@Z
	??$PrintToString@PEBD@testing@@YA?AV?$basic_string@DU?$char_traits@D@std@@V?$allocator@D@2@@std@@AEBQEBD@Z
	??$PrintToString@PEB_W@testing@@YA?AV?$basic_string@DU?$char_traits@D@std@@V?$allocator@D@2@@std@@AEBQEB_W@Z
	??$Shuffle@H@internal@testing@@YAXPEAVRandom@01@PEAV?$vector@HV?$allocator@H@std@@@std@@@Z
	??$ShuffleRange@H@internal@testing@@YAXPEAVRandom@01@HHPEAV?$vector@HV?$allocator@H@std@@@std@@@Z
	??$StreamableToString@H@internal@testing@@YA?AV?$basic_string@DU?$char_traits@D@std@@V?$allocator@D@2@@std@@AEBH@Z
	??$StreamableToString@I@internal@testing@@YA?AV?$basic_string@DU?$char_traits@D@std@@V?$allocator@D@2@@std@@AEBI@Z
	??$StreamableToString@PEAD@internal@testing@@YA?AV?$basic_string@DU?$char_traits@D@std@@V?$allocator@D@2@@std@@AEBQEAD@Z
	??$StreamableToString@PEA_W@internal@testing@@YA?AV?$basic_string@DU?$char_traits@D@std@@V?$allocator@D@2@@std@@AEBQEA_W@Z
	??$StreamableToString@_J@internal@testing@@YA?AV?$basic_string@DU?$char_traits@D@std@@V?$allocator@D@2@@std@@AEB_J@Z
	??$StreamableToString@_K@internal@testing@@YA?AV?$basic_string@DU?$char_traits@D@std@@V?$allocator@D@2@@std@@AEB_K@Z
	??$UniversalPrint@V?$basic_string@DU?$char_traits@D@std@@V?$allocator@D@2@@std@@@internal@testing@@YAXAEBV?$basic_string@DU?$char_traits@D@std@@V?$allocator@D@2@@std@@PEAV?$basic_ostream@DU?$char_traits@D@std@@@3@@Z
	??$UniversalPrint@V?$basic_string@_WU?$char_traits@_W@std@@V?$allocator@_W@2@@std@@@internal@testing@@YAXAEBV?$basic_string@_WU?$char_traits@_W@std@@V?$allocator@_W@2@@std@@PEAV?$basic_ostream@DU?$char_traits@D@std@@@3@@Z
	??$Unwrap@V?$basic_string@DU?$char_traits@D@std@@V?$allocator@D@2@@std@@@?$ComparisonBase@V?$EqMatcher@V?$basic_string@DU?$char_traits@D@std@@V?$allocator@D@2@@std@@@internal@testing@@V?$basic_string@DU?$char_traits@D@std@@V?$allocator@D@2@@std@@U?$equal_to@X@5@@internal@testing@@CAAEBV?$basic_string@DU?$char_traits@D@std@@V?$allocator@D@2@@std@@AEBV34@@Z
	??$_Adl_verify_range@PEADPEAD@std@@YAXAEBQEAD0@Z
	??$_Adl_verify_range@PEAPEAVTestInfo@testing@@PEAPEAV12@@std@@YAXAEBQEAPEAVTestInfo@testing@@0@Z
	??$_Adl_verify_range@PEAV?$_List_unchecked_const_iterator@V?$_List_val@U?$_List_simple_types@V?$basic_string@DU?$char_traits@D@std@@V?$allocator@D@2@@std@@@std@@@std@@U_Iterator_base0@2@@std@@PEAV12@@std@@YAXAEBQEAV?$_List_unchecked_const_iterator@V?$_List_val@U?$_List_simple_types@V?$basic_string@DU?$char_traits@D@std@@V?$allocator@D@2@@std@@@std@@@std@@U_Iterator_base0@2@@0@0@Z
	??$_Adl_verify_range@PEAV?$_List_unchecked_iterator@V?$_List_val@U?$_List_simple_types@U?$pair@$$CBV?$basic_string@DU?$char_traits@D@std@@V?$allocator@D@2@@std@@PEAVTestSuite@testing@@@std@@@std@@@std@@@std@@PEAV12@@std@@YAXAEBQEAV?$_List_unchecked_iterator@V?$_List_val@U?$_List_simple_types@U?$pair@$$CBV?$basic_string@DU?$char_traits@D@std@@V?$allocator@D@2@@std@@PEAVTestSuite@testing@@@std@@@std@@@std@@@0@0@Z
	??$_Adl_verify_range@PEAV?$_List_unchecked_iterator@V?$_List_val@U?$_List_simple_types@U?$pair@$$CBV?$basic_string@DU?$char_traits@D@std@@V?$allocator@D@2@@std@@_K@std@@@std@@@std@@@std@@PEAV12@@std@@YAXAEBQEAV?$_List_unchecked_iterator@V?$_List_val@U?$_List_simple_types@U?$pair@$$CBV?$basic_string@DU?$char_traits@D@std@@V?$allocator@D@2@@std@@_K@std@@@std@@@std@@@0@0@Z
	??$_Adl_verify_range@PEAV?$_List_unchecked_iterator@V?$_List_val@U?$_List_simple_types@U?$pair@$$CB_KW4CallReaction@internal@testing@@@std@@@std@@@std@@@std@@PEAV12@@std@@YAXAEBQEAV?$_List_unchecked_iterator@V?$_List_val@U?$_List_simple_types@U?$pair@$$CB_KW4CallReaction@internal@testing@@@std@@@std@@@std@@@0@0@Z
	??$_Adl_verify_range@PEBDPEBD@std@@YAXAEBQEBD0@Z
	??$_Adl_verify_range@PEBQEBDPEBQEBD@std@@YAXAEBQEBQEBD0@Z
	??$_Adl_verify_range@V?$_String_const_iterator@V?$_String_val@U?$_Simple_types@D@std@@@std@@@std@@V12@@std@@YAXAEBV?$_String_const_iterator@V?$_String_val@U?$_Simple_types@D@std@@@std@@@0@0@Z
	??$_Adl_verify_range@V?$_Tree_unchecked_const_iterator@V?$_Tree_val@U?$_Tree_simple_types@PEAVUntypedFunctionMockerBase@internal@testing@@@std@@@std@@U_Iterator_base0@2@@std@@V12@@std@@YAXAEBV?$_Tree_unchecked_const_iterator@V?$_Tree_val@U?$_Tree_simple_types@PEAVUntypedFunctionMockerBase@internal@testing@@@std@@@std@@U_Iterator_base0@2@@0@0@Z
	??$_Adl_verify_range@V?$_Vector_const_iterator@V?$_Vector_val@U?$_Simple_types@PEAVEnvironment@testing@@@std@@@std@@@std@@V12@@std@@YAXAEBV?$_Vector_const_iterator@V?$_Vector_val@U?$_Simple_types@PEAVEnvironment@testing@@@std@@@std@@@0@0@Z
	??$_Adl_verify_range@V?$_Vector_const_iterator@V?$_Vector_val@U?$_Simple_types@PEAVTestEventListener@testing@@@std@@@std@@@std@@V12@@std@@YAXAEBV?$_Vector_const_iterator@V?$_Vector_val@U?$_Simple_types@PEAVTestEventListener@testing@@@std@@@std@@@0@0@Z
	??$_Adl_verify_range@V?$_Vector_const_iterator@V?$_Vector_val@U?$_Simple_types@PEAVTestInfo@testing@@@std@@@std@@@std@@V12@@std@@YAXAEBV?$_Vector_const_iterator@V?$_Vector_val@U?$_Simple_types@PEAVTestInfo@testing@@@std@@@std@@@0@0@Z
	??$_Adl_verify_range@V?$_Vector_const_iterator@V?$_Vector_val@U?$_Simple_types@PEAVTestSuite@testing@@@std@@@std@@@std@@V12@@std@@YAXAEBV?$_Vector_const_iterator@V?$_Vector_val@U?$_Simple_types@PEAVTestSuite@testing@@@std@@@std@@@0@0@Z
	??$_Adl_verify_range@V?$_Vector_const_iterator@V?$_Vector_val@U?$_Simple_types@V?$basic_string@DU?$char_traits@D@std@@V?$allocator@D@2@@std@@@std@@@std@@@std@@V12@@std@@YAXAEBV?$_Vector_const_iterator@V?$_Vector_val@U?$_Simple_types@V?$basic_string@DU?$char_traits@D@std@@V?$allocator@D@2@@std@@@std@@@std@@@0@0@Z
	??$_Adl_verify_range@V?$_Vector_iterator@V?$_Vector_val@U?$_Simple_types@PEAVTestInfo@testing@@@std@@@std@@@std@@V12@@std@@YAXAEBV?$_Vector_iterator@V?$_Vector_val@U?$_Simple_types@PEAVTestInfo@testing@@@std@@@std@@@0@0@Z
	??$_Adl_verify_range@V?$_Vector_iterator@V?$_Vector_val@U?$_Simple_types@V?$basic_string@DU?$char_traits@D@std@@V?$allocator@D@2@@std@@@std@@@std@@@std@@V12@@std@@YAXAEBV?$_Vector_iterator@V?$_Vector_val@U?$_Simple_types@V?$basic_string@DU?$char_traits@D@std@@V?$allocator@D@2@@std@@@std@@@std@@@0@0@Z
	??$_Adl_verify_range@V?$_Vector_iterator@V?$_Vector_val@U?$_Simple_types@VTestProperty@testing@@@std@@@std@@@std@@V12@@std@@YAXAEBV?$_Vector_iterator@V?$_Vector_val@U?$_Simple_types@VTestProperty@testing@@@std@@@std@@@0@0@Z
	??$_Adl_verify_range@V?$_Vector_iterator@V?$_Vector_val@U?$_Simple_types@W4EditType@edit_distance@internal@testing@@@std@@@std@@@std@@V12@@std@@YAXAEBV?$_Vector_iterator@V?$_Vector_val@U?$_Simple_types@W4EditType@edit_distance@internal@testing@@@std@@@std@@@0@0@Z
	??$_Adl_verify_range@V?$reverse_iterator@V?$_Vector_iterator@V?$_Vector_val@U?$_Simple_types@PEAVEnvironment@testing@@@std@@@std@@@std@@@std@@V12@@std@@YAXAEBV?$reverse_iterator@V?$_Vector_iterator@V?$_Vector_val@U?$_Simple_types@PEAVEnvironment@testing@@@std@@@std@@@std@@@0@0@Z
	??$_Allocate@$0BA@U_Default_allocate_traits@std@@@std@@YAPEAX_K@Z
	??$_Allocate_at_least_helper@V?$allocator@D@std@@@std@@YAPEADAEAV?$allocator@D@0@AEA_K@Z
	??$_Allocate_at_least_helper@V?$allocator@H@std@@@std@@YAPEAHAEAV?$allocator@H@0@AEA_K@Z
	??$_Allocate_at_least_helper@V?$allocator@N@std@@@std@@YAPEANAEAV?$allocator@N@0@AEA_K@Z
	??$_Allocate_at_least_helper@V?$allocator@PEAVEnvironment@testing@@@std@@@std@@YAPEAPEAVEnvironment@testing@@AEAV?$allocator@PEAVEnvironment@testing@@@0@AEA_K@Z
	??$_Allocate_at_least_helper@V?$allocator@PEAVExpectationBase@internal@testing@@@std@@@std@@YAPEAPEAVExpectationBase@internal@testing@@AEAV?$allocator@PEAVExpectationBase@internal@testing@@@0@AEA_K@Z
	??$_Allocate_at_least_helper@V?$allocator@PEAVTestEventListener@testing@@@std@@@std@@YAPEAPEAVTestEventListener@testing@@AEAV?$allocator@PEAVTestEventListener@testing@@@0@AEA_K@Z
	??$_Allocate_at_least_helper@V?$allocator@PEAVTestInfo@testing@@@std@@@std@@YAPEAPEAVTestInfo@testing@@AEAV?$allocator@PEAVTestInfo@testing@@@0@AEA_K@Z
	??$_Allocate_at_least_helper@V?$allocator@PEAVTestSuite@testing@@@std@@@std@@YAPEAPEAVTestSuite@testing@@AEAV?$allocator@PEAVTestSuite@testing@@@0@AEA_K@Z
	??$_Allocate_at_least_helper@V?$allocator@PEBVExpectationBase@internal@testing@@@std@@@std@@YAPEAPEBVExpectationBase@internal@testing@@AEAV?$allocator@PEBVExpectationBase@internal@testing@@@0@AEA_K@Z
	??$_Allocate_at_least_helper@V?$allocator@U?$pair@_K_K@std@@@std@@@std@@YAPEAU?$pair@_K_K@0@AEAV?$allocator@U?$pair@_K_K@std@@@0@AEA_K@Z
	??$_Allocate_at_least_helper@V?$allocator@UTraceInfo@internal@testing@@@std@@@std@@YAPEAUTraceInfo@internal@testing@@AEAV?$allocator@UTraceInfo@internal@testing@@@0@AEA_K@Z
	??$_Allocate_at_least_helper@V?$allocator@V?$basic_string@DU?$char_traits@D@std@@V?$allocator@D@2@@std@@@std@@@std@@YAPEAV?$basic_string@DU?$char_traits@D@std@@V?$allocator@D@2@@0@AEAV?$allocator@V?$basic_string@DU?$char_traits@D@std@@V?$allocator@D@2@@std@@@0@AEA_K@Z
	??$_Allocate_at_least_helper@V?$allocator@V?$shared_ptr@VThreadLocalValueHolderBase@internal@testing@@@std@@@std@@@std@@YAPEAV?$shared_ptr@VThreadLocalValueHolderBase@internal@testing@@@0@AEAV?$allocator@V?$shared_ptr@VThreadLocalValueHolderBase@internal@testing@@@std@@@0@AEA_K@Z
	??$_Allocate_at_least_helper@V?$allocator@V?$vector@NV?$allocator@N@std@@@std@@@std@@@std@@YAPEAV?$vector@NV?$allocator@N@std@@@0@AEAV?$allocator@V?$vector@NV?$allocator@N@std@@@std@@@0@AEA_K@Z
	??$_Allocate_at_least_helper@V?$allocator@V?$vector@W4EditType@edit_distance@internal@testing@@V?$allocator@W4EditType@edit_distance@internal@testing@@@std@@@std@@@std@@@std@@YAPEAV?$vector@W4EditType@edit_distance@internal@testing@@V?$allocator@W4EditType@edit_distance@internal@testing@@@std@@@0@AEAV?$allocator@V?$vector@W4EditType@edit_distance@internal@testing@@V?$allocator@W4EditType@edit_distance@internal@testing@@@std@@@std@@@0@AEA_K@Z
	??$_Allocate_at_least_helper@V?$allocator@VTestPartResult@testing@@@std@@@std@@YAPEAVTestPartResult@testing@@AEAV?$allocator@VTestPartResult@testing@@@0@AEA_K@Z
	??$_Allocate_at_least_helper@V?$allocator@VTestProperty@testing@@@std@@@std@@YAPEAVTestProperty@testing@@AEAV?$allocator@VTestProperty@testing@@@0@AEA_K@Z
	??$_Allocate_at_least_helper@V?$allocator@W4EditType@edit_distance@internal@testing@@@std@@@std@@YAPEAW4EditType@edit_distance@internal@testing@@AEAV?$allocator@W4EditType@edit_distance@internal@testing@@@0@AEA_K@Z
	??$_Allocate_at_least_helper@V?$allocator@_K@std@@@std@@YAPEA_KAEAV?$allocator@_K@0@AEA_K@Z
	??$_Allocate_at_least_helper@V?$allocator@_W@std@@@std@@YAPEA_WAEAV?$allocator@_W@0@AEA_K@Z
	??$_Allocate_for_capacity@$0A@@?$basic_string@DU?$char_traits@D@std@@V?$allocator@D@2@@std@@CAPEADAEAV?$allocator@D@1@AEA_K@Z
	??$_Allocate_for_capacity@$0A@@?$basic_string@_WU?$char_traits@_W@std@@V?$allocator@_W@2@@std@@CAPEA_WAEAV?$allocator@_W@1@AEA_K@Z
	??$_Allocate_manually_vector_aligned@U_Default_allocate_traits@std@@@std@@YAPEAX_K@Z
	??$_Allocators_equal@V?$allocator@D@std@@@std@@YA_NAEBV?$allocator@D@0@0@Z
	??$_Atomic_address_as@JU?$_Atomic_padded@H@std@@@std@@YAPECJAEAU?$_Atomic_padded@H@0@@Z
	??$_Buffered_rotate_unchecked@PEAPEAVTestInfo@testing@@@std@@YAPEAPEAVTestInfo@testing@@QEAPEAV12@00_J101@Z
	??$_Buyheadnode@V?$allocator@U?$_Tree_node@PEAVUntypedFunctionMockerBase@internal@testing@@PEAX@std@@@std@@@?$_Tree_node@PEAVUntypedFunctionMockerBase@internal@testing@@PEAX@std@@SAPEAU01@AEAV?$allocator@U?$_Tree_node@PEAVUntypedFunctionMockerBase@internal@testing@@PEAX@std@@@1@@Z
	??$_Buyheadnode@V?$allocator@U?$_Tree_node@U?$pair@$$CBKV?$map@PEBVThreadLocalBase@internal@testing@@V?$shared_ptr@VThreadLocalValueHolderBase@internal@testing@@@std@@U?$less@PEBVThreadLocalBase@internal@testing@@@5@V?$allocator@U?$pair@QEBVThreadLocalBase@internal@testing@@V?$shared_ptr@VThreadLocalValueHolderBase@internal@testing@@@std@@@std@@@5@@std@@@std@@PEAX@std@@@std@@@?$_Tree_node@U?$pair@$$CBKV?$map@PEBVThreadLocalBase@internal@testing@@V?$shared_ptr@VThreadLocalValueHolderBase@internal@testing@@@std@@U?$less@PEBVThreadLocalBase@internal@testing@@@5@V?$allocator@U?$pair@QEBVThreadLocalBase@internal@testing@@V?$shared_ptr@VThreadLocalValueHolderBase@internal@testing@@@std@@@std@@@5@@std@@@std@@PEAX@std@@SAPEAU01@AEAV?$allocator@U?$_Tree_node@U?$pair@$$CBKV?$map@PEBVThreadLocalBase@internal@testing@@V?$shared_ptr@VThreadLocalValueHolderBase@internal@testing@@@std@@U?$less@PEBVThreadLocalBase@internal@testing@@@5@V?$allocator@U?$pair@QEBVThreadLocalBase@internal@testing@@V?$shared_ptr@VThreadLocalValueHolderBase@internal@testing@@@std@@@std@@@5@@std@@@std@@PEAX@std@@@1@@Z
	??$_Buyheadnode@V?$allocator@U?$_Tree_node@U?$pair@$$CBV?$basic_string@DU?$char_traits@D@std@@V?$allocator@D@2@@std@@UTypeParameterizedTestSuiteInfo@TypeParameterizedTestSuiteRegistry@internal@testing@@@std@@PEAX@std@@@std@@@?$_Tree_node@U?$pair@$$CBV?$basic_string@DU?$char_traits@D@std@@V?$allocator@D@2@@std@@UTypeParameterizedTestSuiteInfo@TypeParameterizedTestSuiteRegistry@internal@testing@@@std@@PEAX@std@@SAPEAU01@AEAV?$allocator@U?$_Tree_node@U?$pair@$$CBV?$basic_string@DU?$char_traits@D@std@@V?$allocator@D@2@@std@@UTypeParameterizedTestSuiteInfo@TypeParameterizedTestSuiteRegistry@internal@testing@@@std@@PEAX@std@@@1@@Z
	??$_Buyheadnode@V?$allocator@U?$_Tree_node@U?$pair@$$CBV?$basic_string@DU?$char_traits@D@std@@V?$allocator@D@2@@std@@_K@std@@PEAX@std@@@std@@@?$_Tree_node@U?$pair@$$CBV?$basic_string@DU?$char_traits@D@std@@V?$allocator@D@2@@std@@_K@std@@PEAX@std@@SAPEAU01@AEAV?$allocator@U?$_Tree_node@U?$pair@$$CBV?$basic_string@DU?$char_traits@D@std@@V?$allocator@D@2@@std@@_K@std@@PEAX@std@@@1@@Z
	??$_Buyheadnode@V?$allocator@U?$_Tree_node@U?$pair@QEBVThreadLocalBase@internal@testing@@V?$shared_ptr@VThreadLocalValueHolderBase@internal@testing@@@std@@@std@@PEAX@std@@@std@@@?$_Tree_node@U?$pair@QEBVThreadLocalBase@internal@testing@@V?$shared_ptr@VThreadLocalValueHolderBase@internal@testing@@@std@@@std@@PEAX@std@@SAPEAU01@AEAV?$allocator@U?$_Tree_node@U?$pair@QEBVThreadLocalBase@internal@testing@@V?$shared_ptr@VThreadLocalValueHolderBase@internal@testing@@@std@@@std@@PEAX@std@@@1@@Z
	??$_Buyheadnode@V?$allocator@U?$_Tree_node@V?$basic_string@DU?$char_traits@D@std@@V?$allocator@D@2@@std@@PEAX@std@@@std@@@?$_Tree_node@V?$basic_string@DU?$char_traits@D@std@@V?$allocator@D@2@@std@@PEAX@std@@SAPEAU01@AEAV?$allocator@U?$_Tree_node@V?$basic_string@DU?$char_traits@D@std@@V?$allocator@D@2@@std@@PEAX@std@@@1@@Z
	??$_Buyheadnode@V?$allocator@U?$_Tree_node@VExpectation@testing@@PEAX@std@@@std@@@?$_Tree_node@VExpectation@testing@@PEAX@std@@SAPEAU01@AEAV?$allocator@U?$_Tree_node@VExpectation@testing@@PEAX@std@@@1@@Z
	??$_Construct@$00PEBD@?$basic_string@DU?$char_traits@D@std@@V?$allocator@D@2@@std@@AEAAXQEBD_K@Z
	??$_Construct@$00PEB_W@?$basic_string@_WU?$char_traits@_W@std@@V?$allocator@_W@2@@std@@AEAAXQEB_W_K@Z
	??$_Construct@$01PEBD@?$basic_string@DU?$char_traits@D@std@@V?$allocator@D@2@@std@@AEAAXQEBD_K@Z
	??$_Construct@$01PEB_W@?$basic_string@_WU?$char_traits@_W@std@@V?$allocator@_W@2@@std@@AEAAXQEB_W_K@Z
	??$_Construct@$0A@D@?$basic_string@DU?$char_traits@D@std@@V?$allocator@D@2@@std@@AEAAXD_K@Z
	??$_Construct_in_place@HH@std@@YAXAEAH$$QEAH@Z
	??$_Construct_in_place@PEADAEAPEAD@std@@YAXAEAPEAD0@Z
	??$_Construct_in_place@PEADAEBQEAD@std@@YAXAEAPEADAEBQEAD@Z
	??$_Construct_in_place@PEAU?$_List_node@U?$pair@$$CBV?$basic_string@DU?$char_traits@D@std@@V?$allocator@D@2@@std@@PEAVTestSuite@testing@@@std@@PEAX@std@@AEAPEAU12@@std@@YAXAEAPEAU?$_List_node@U?$pair@$$CBV?$basic_string@DU?$char_traits@D@std@@V?$allocator@D@2@@std@@PEAVTestSuite@testing@@@std@@PEAX@0@0@Z
	??$_Construct_in_place@PEAU?$_List_node@U?$pair@$$CBV?$basic_string@DU?$char_traits@D@std@@V?$allocator@D@2@@std@@PEAVTestSuite@testing@@@std@@PEAX@std@@AEBQEAU12@@std@@YAXAEAPEAU?$_List_node@U?$pair@$$CBV?$basic_string@DU?$char_traits@D@std@@V?$allocator@D@2@@std@@PEAVTestSuite@testing@@@std@@PEAX@0@AEBQEAU10@@Z
	??$_Construct_in_place@PEAU?$_List_node@U?$pair@$$CBV?$basic_string@DU?$char_traits@D@std@@V?$allocator@D@2@@std@@_K@std@@PEAX@std@@AEAPEAU12@@std@@YAXAEAPEAU?$_List_node@U?$pair@$$CBV?$basic_string@DU?$char_traits@D@std@@V?$allocator@D@2@@std@@_K@std@@PEAX@0@0@Z
	??$_Construct_in_place@PEAU?$_List_node@U?$pair@$$CB_KW4CallReaction@internal@testing@@@std@@PEAX@std@@AEAPEAU12@@std@@YAXAEAPEAU?$_List_node@U?$pair@$$CB_KW4CallReaction@internal@testing@@@std@@PEAX@0@0@Z
	??$_Construct_in_place@PEAU?$_List_node@U?$pair@$$CB_KW4CallReaction@internal@testing@@@std@@PEAX@std@@AEBQEAU12@@std@@YAXAEAPEAU?$_List_node@U?$pair@$$CB_KW4CallReaction@internal@testing@@@std@@PEAX@0@AEBQEAU10@@Z
	??$_Construct_in_place@PEAU?$_List_node@U?$pair@DPEBD@std@@PEAX@std@@AEAPEAU12@@std@@YAXAEAPEAU?$_List_node@U?$pair@DPEBD@std@@PEAX@0@0@Z
	??$_Construct_in_place@PEAU?$_List_node@U?$pair@DPEBD@std@@PEAX@std@@AEBQEAU12@@std@@YAXAEAPEAU?$_List_node@U?$pair@DPEBD@std@@PEAX@0@AEBQEAU10@@Z
	??$_Construct_in_place@PEAU?$_List_node@V?$basic_string@DU?$char_traits@D@std@@V?$allocator@D@2@@std@@PEAX@std@@AEAPEAU12@@std@@YAXAEAPEAU?$_List_node@V?$basic_string@DU?$char_traits@D@std@@V?$allocator@D@2@@std@@PEAX@0@0@Z
	??$_Construct_in_place@PEAU?$_List_node@V?$basic_string@DU?$char_traits@D@std@@V?$allocator@D@2@@std@@PEAX@std@@AEBQEAU12@@std@@YAXAEAPEAU?$_List_node@V?$basic_string@DU?$char_traits@D@std@@V?$allocator@D@2@@std@@PEAX@0@AEBQEAU10@@Z
	??$_Construct_in_place@PEAU?$_Tree_node@PEAVUntypedFunctionMockerBase@internal@testing@@PEAX@std@@AEAPEAU12@@std@@YAXAEAPEAU?$_Tree_node@PEAVUntypedFunctionMockerBase@internal@testing@@PEAX@0@0@Z
	??$_Construct_in_place@PEAU?$_Tree_node@PEAVUntypedFunctionMockerBase@internal@testing@@PEAX@std@@AEBQEAU12@@std@@YAXAEAPEAU?$_Tree_node@PEAVUntypedFunctionMockerBase@internal@testing@@PEAX@0@AEBQEAU10@@Z
	??$_Construct_in_place@PEAU?$_Tree_node@U?$pair@$$CBKV?$map@PEBVThreadLocalBase@internal@testing@@V?$shared_ptr@VThreadLocalValueHolderBase@internal@testing@@@std@@U?$less@PEBVThreadLocalBase@internal@testing@@@5@V?$allocator@U?$pair@QEBVThreadLocalBase@internal@testing@@V?$shared_ptr@VThreadLocalValueHolderBase@internal@testing@@@std@@@std@@@5@@std@@@std@@PEAX@std@@AEAPEAU12@@std@@YAXAEAPEAU?$_Tree_node@U?$pair@$$CBKV?$map@PEBVThreadLocalBase@internal@testing@@V?$shared_ptr@VThreadLocalValueHolderBase@internal@testing@@@std@@U?$less@PEBVThreadLocalBase@internal@testing@@@5@V?$allocator@U?$pair@QEBVThreadLocalBase@internal@testing@@V?$shared_ptr@VThreadLocalValueHolderBase@internal@testing@@@std@@@std@@@5@@std@@@std@@PEAX@0@0@Z
	??$_Construct_in_place@PEAU?$_Tree_node@U?$pair@$$CBKV?$map@PEBVThreadLocalBase@internal@testing@@V?$shared_ptr@VThreadLocalValueHolderBase@internal@testing@@@std@@U?$less@PEBVThreadLocalBase@internal@testing@@@5@V?$allocator@U?$pair@QEBVThreadLocalBase@internal@testing@@V?$shared_ptr@VThreadLocalValueHolderBase@internal@testing@@@std@@@std@@@5@@std@@@std@@PEAX@std@@AEBQEAU12@@std@@YAXAEAPEAU?$_Tree_node@U?$pair@$$CBKV?$map@PEBVThreadLocalBase@internal@testing@@V?$shared_ptr@VThreadLocalValueHolderBase@internal@testing@@@std@@U?$less@PEBVThreadLocalBase@internal@testing@@@5@V?$allocator@U?$pair@QEBVThreadLocalBase@internal@testing@@V?$shared_ptr@VThreadLocalValueHolderBase@internal@testing@@@std@@@std@@@5@@std@@@std@@PEAX@0@AEBQEAU10@@Z
	??$_Construct_in_place@PEAU?$_Tree_node@U?$pair@$$CBV?$basic_string@DU?$char_traits@D@std@@V?$allocator@D@2@@std@@UTypeParameterizedTestSuiteInfo@TypeParameterizedTestSuiteRegistry@internal@testing@@@std@@PEAX@std@@AEAPEAU12@@std@@YAXAEAPEAU?$_Tree_node@U?$pair@$$CBV?$basic_string@DU?$char_traits@D@std@@V?$allocator@D@2@@std@@UTypeParameterizedTestSuiteInfo@TypeParameterizedTestSuiteRegistry@internal@testing@@@std@@PEAX@0@0@Z
	??$_Construct_in_place@PEAU?$_Tree_node@U?$pair@$$CBV?$basic_string@DU?$char_traits@D@std@@V?$allocator@D@2@@std@@UTypeParameterizedTestSuiteInfo@TypeParameterizedTestSuiteRegistry@internal@testing@@@std@@PEAX@std@@AEBQEAU12@@std@@YAXAEAPEAU?$_Tree_node@U?$pair@$$CBV?$basic_string@DU?$char_traits@D@std@@V?$allocator@D@2@@std@@UTypeParameterizedTestSuiteInfo@TypeParameterizedTestSuiteRegistry@internal@testing@@@std@@PEAX@0@AEBQEAU10@@Z
	??$_Construct_in_place@PEAU?$_Tree_node@U?$pair@$$CBV?$basic_string@DU?$char_traits@D@std@@V?$allocator@D@2@@std@@_K@std@@PEAX@std@@AEAPEAU12@@std@@YAXAEAPEAU?$_Tree_node@U?$pair@$$CBV?$basic_string@DU?$char_traits@D@std@@V?$allocator@D@2@@std@@_K@std@@PEAX@0@0@Z
	??$_Construct_in_place@PEAU?$_Tree_node@U?$pair@$$CBV?$basic_string@DU?$char_traits@D@std@@V?$allocator@D@2@@std@@_K@std@@PEAX@std@@AEBQEAU12@@std@@YAXAEAPEAU?$_Tree_node@U?$pair@$$CBV?$basic_string@DU?$char_traits@D@std@@V?$allocator@D@2@@std@@_K@std@@PEAX@0@AEBQEAU10@@Z
	??$_Construct_in_place@PEAU?$_Tree_node@U?$pair@QEBVThreadLocalBase@internal@testing@@V?$shared_ptr@VThreadLocalValueHolderBase@internal@testing@@@std@@@std@@PEAX@std@@AEAPEAU12@@std@@YAXAEAPEAU?$_Tree_node@U?$pair@QEBVThreadLocalBase@internal@testing@@V?$shared_ptr@VThreadLocalValueHolderBase@internal@testing@@@std@@@std@@PEAX@0@0@Z
	??$_Construct_in_place@PEAU?$_Tree_node@U?$pair@QEBVThreadLocalBase@internal@testing@@V?$shared_ptr@VThreadLocalValueHolderBase@internal@testing@@@std@@@std@@PEAX@std@@AEBQEAU12@@std@@YAXAEAPEAU?$_Tree_node@U?$pair@QEBVThreadLocalBase@internal@testing@@V?$shared_ptr@VThreadLocalValueHolderBase@internal@testing@@@std@@@std@@PEAX@0@AEBQEAU10@@Z
	??$_Construct_in_place@PEAU?$_Tree_node@V?$basic_string@DU?$char_traits@D@std@@V?$allocator@D@2@@std@@PEAX@std@@AEAPEAU12@@std@@YAXAEAPEAU?$_Tree_node@V?$basic_string@DU?$char_traits@D@std@@V?$allocator@D@2@@std@@PEAX@0@0@Z
	??$_Construct_in_place@PEAU?$_Tree_node@V?$basic_string@DU?$char_traits@D@std@@V?$allocator@D@2@@std@@PEAX@std@@AEBQEAU12@@std@@YAXAEAPEAU?$_Tree_node@V?$basic_string@DU?$char_traits@D@std@@V?$allocator@D@2@@std@@PEAX@0@AEBQEAU10@@Z
	??$_Construct_in_place@PEAU?$_Tree_node@VExpectation@testing@@PEAX@std@@AEAPEAU12@@std@@YAXAEAPEAU?$_Tree_node@VExpectation@testing@@PEAX@0@0@Z
	??$_Construct_in_place@PEAU?$_Tree_node@VExpectation@testing@@PEAX@std@@AEBQEAU12@@std@@YAXAEAPEAU?$_Tree_node@VExpectation@testing@@PEAX@0@AEBQEAU10@@Z
	??$_Construct_in_place@PEAVEnvironment@testing@@AEBQEAV12@@std@@YAXAEAPEAVEnvironment@testing@@AEBQEAV12@@Z
	??$_Construct_in_place@PEAVExpectationBase@internal@testing@@AEBQEAV123@@std@@YAXAEAPEAVExpectationBase@internal@testing@@AEBQEAV123@@Z
	??$_Construct_in_place@PEAVTestEventListener@testing@@AEBQEAV12@@std@@YAXAEAPEAVTestEventListener@testing@@AEBQEAV12@@Z
	??$_Construct_in_place@PEAVTestInfo@testing@@AEBQEAV12@@std@@YAXAEAPEAVTestInfo@testing@@AEBQEAV12@@Z
	??$_Construct_in_place@PEAVTestInfo@testing@@PEAV12@@std@@YAXAEAPEAVTestInfo@testing@@$$QEAPEAV12@@Z
	??$_Construct_in_place@PEAVTestSuite@testing@@AEBQEAV12@@std@@YAXAEAPEAVTestSuite@testing@@AEBQEAV12@@Z
	??$_Construct_in_place@PEA_WAEAPEA_W@std@@YAXAEAPEA_W0@Z
	??$_Construct_in_place@PEA_WAEBQEA_W@std@@YAXAEAPEA_WAEBQEA_W@Z
	??$_Construct_in_place@PEBVExpectationBase@internal@testing@@AEBQEBV123@@std@@YAXAEAPEBVExpectationBase@internal@testing@@AEBQEBV123@@Z
	??$_Construct_in_place@U?$pair@_K_K@std@@U12@@std@@YAXAEAU?$pair@_K_K@0@$$QEAU10@@Z
	??$_Construct_in_place@V?$_List_unchecked_const_iterator@V?$_List_val@U?$_List_simple_types@V?$basic_string@DU?$char_traits@D@std@@V?$allocator@D@2@@std@@@std@@@std@@U_Iterator_base0@2@@std@@AEBV12@@std@@YAXAEAV?$_List_unchecked_const_iterator@V?$_List_val@U?$_List_simple_types@V?$basic_string@DU?$char_traits@D@std@@V?$allocator@D@2@@std@@@std@@@std@@U_Iterator_base0@2@@0@AEBV10@@Z
	??$_Construct_in_place@V?$_List_unchecked_iterator@V?$_List_val@U?$_List_simple_types@U?$pair@$$CBV?$basic_string@DU?$char_traits@D@std@@V?$allocator@D@2@@std@@PEAVTestSuite@testing@@@std@@@std@@@std@@@std@@AEBV12@@std@@YAXAEAV?$_List_unchecked_iterator@V?$_List_val@U?$_List_simple_types@U?$pair@$$CBV?$basic_string@DU?$char_traits@D@std@@V?$allocator@D@2@@std@@PEAVTestSuite@testing@@@std@@@std@@@std@@@0@AEBV10@@Z
	??$_Construct_in_place@V?$_List_unchecked_iterator@V?$_List_val@U?$_List_simple_types@U?$pair@$$CBV?$basic_string@DU?$char_traits@D@std@@V?$allocator@D@2@@std@@_K@std@@@std@@@std@@@std@@AEBV12@@std@@YAXAEAV?$_List_unchecked_iterator@V?$_List_val@U?$_List_simple_types@U?$pair@$$CBV?$basic_string@DU?$char_traits@D@std@@V?$allocator@D@2@@std@@_K@std@@@std@@@std@@@0@AEBV10@@Z
	??$_Construct_in_place@V?$_List_unchecked_iterator@V?$_List_val@U?$_List_simple_types@U?$pair@$$CB_KW4CallReaction@internal@testing@@@std@@@std@@@std@@@std@@AEBV12@@std@@YAXAEAV?$_List_unchecked_iterator@V?$_List_val@U?$_List_simple_types@U?$pair@$$CB_KW4CallReaction@internal@testing@@@std@@@std@@@std@@@0@AEBV10@@Z
	??$_Construct_in_place@V?$basic_string@DU?$char_traits@D@std@@V?$allocator@D@2@@std@@V12@@std@@YAXAEAV?$basic_string@DU?$char_traits@D@std@@V?$allocator@D@2@@0@$$QEAV10@@Z
	??$_Construct_in_place@V?$shared_ptr@VThreadLocalValueHolderBase@internal@testing@@@std@@AEBV12@@std@@YAXAEAV?$shared_ptr@VThreadLocalValueHolderBase@internal@testing@@@0@AEBV10@@Z
	??$_Construct_in_place@W4EditType@edit_distance@internal@testing@@AEBW41234@@std@@YAXAEAW4EditType@edit_distance@internal@testing@@AEBW41234@@Z
	??$_Construct_in_place@_K_K@std@@YAXAEA_K$$QEA_K@Z
	??$_Construct_n@$$V@?$vector@NV?$allocator@N@std@@@std@@AEAAX_K@Z
	??$_Construct_n@$$V@?$vector@W4EditType@edit_distance@internal@testing@@V?$allocator@W4EditType@edit_distance@internal@testing@@@std@@@std@@AEAAX_K@Z
	??$_Construct_n@AEBD@?$vector@DV?$allocator@D@std@@@std@@AEAAX_KAEBD@Z
	??$_Construct_n@AEBQEANAEBQEAN@?$vector@NV?$allocator@N@std@@@std@@AEAAX_KAEBQEAN1@Z
	??$_Construct_n@AEBQEAV?$basic_string@DU?$char_traits@D@std@@V?$allocator@D@2@@std@@AEBQEAV12@@?$vector@V?$basic_string@DU?$char_traits@D@std@@V?$allocator@D@2@@std@@V?$allocator@V?$basic_string@DU?$char_traits@D@std@@V?$allocator@D@2@@std@@@2@@std@@AEAAX_KAEBQEAV?$basic_string@DU?$char_traits@D@std@@V?$allocator@D@2@@1@1@Z
	??$_Construct_n@AEBQEAVExpectationBase@internal@testing@@@?$vector@PEAVExpectationBase@internal@testing@@V?$allocator@PEAVExpectationBase@internal@testing@@@std@@@std@@AEAAX_KAEBQEAVExpectationBase@internal@testing@@@Z
	??$_Construct_n@AEBQEAW4EditType@edit_distance@internal@testing@@AEBQEAW41234@@?$vector@W4EditType@edit_distance@internal@testing@@V?$allocator@W4EditType@edit_distance@internal@testing@@@std@@@std@@AEAAX_KAEBQEAW4EditType@edit_distance@internal@testing@@1@Z
	??$_Construct_n@AEBQEBVExpectationBase@internal@testing@@@?$vector@PEBVExpectationBase@internal@testing@@V?$allocator@PEBVExpectationBase@internal@testing@@@std@@@std@@AEAAX_KAEBQEBVExpectationBase@internal@testing@@@Z
	??$_Construct_n@AEBV?$vector@NV?$allocator@N@std@@@std@@@?$vector@V?$vector@NV?$allocator@N@std@@@std@@V?$allocator@V?$vector@NV?$allocator@N@std@@@std@@@2@@std@@AEAAX_KAEBV?$vector@NV?$allocator@N@std@@@1@@Z
	??$_Construct_n@AEBV?$vector@W4EditType@edit_distance@internal@testing@@V?$allocator@W4EditType@edit_distance@internal@testing@@@std@@@std@@@?$vector@V?$vector@W4EditType@edit_distance@internal@testing@@V?$allocator@W4EditType@edit_distance@internal@testing@@@std@@@std@@V?$allocator@V?$vector@W4EditType@edit_distance@internal@testing@@V?$allocator@W4EditType@edit_distance@internal@testing@@@std@@@std@@@2@@std@@AEAAX_KAEBV?$vector@W4EditType@edit_distance@internal@testing@@V?$allocator@W4EditType@edit_distance@internal@testing@@@std@@@1@@Z
	??$_Construct_n@AEB_K@?$vector@_KV?$allocator@_K@std@@@std@@AEAAX_KAEB_K@Z
	??$_Construct_n@PEBQEBDPEBQEBD@?$vector@V?$basic_string@DU?$char_traits@D@std@@V?$allocator@D@2@@std@@V?$allocator@V?$basic_string@DU?$char_traits@D@std@@V?$allocator@D@2@@std@@@2@@std@@AEAAX_K$$QEAPEBQEBD1@Z
	??$_Construct_n@PEBV?$basic_string@DU?$char_traits@D@std@@V?$allocator@D@2@@std@@PEBV12@@?$vector@V?$basic_string@DU?$char_traits@D@std@@V?$allocator@D@2@@std@@V?$allocator@V?$basic_string@DU?$char_traits@D@std@@V?$allocator@D@2@@std@@@2@@std@@AEAAX_K$$QEAPEBV?$basic_string@DU?$char_traits@D@std@@V?$allocator@D@2@@1@1@Z
	??$_Convert_size@_K_K@std@@YA_K_K@Z
	??$_Copy_backward_memmove@PEAPEAVTestInfo@testing@@PEAPEAV12@@std@@YAPEAPEAVTestInfo@testing@@PEAPEAV12@00@Z
	??$_Copy_backward_memmove@PEAPEAVTestSuite@testing@@PEAPEAV12@@std@@YAPEAPEAVTestSuite@testing@@PEAPEAV12@00@Z
	??$_Copy_construct_from@$$CBVCardinalityInterface@testing@@@?$_Ptr_base@$$CBVCardinalityInterface@testing@@@std@@IEAAXAEBV?$shared_ptr@$$CBVCardinalityInterface@testing@@@1@@Z
	??$_Copy_construct_from@VExpectationBase@internal@testing@@@?$_Ptr_base@VExpectationBase@internal@testing@@@std@@IEAAXAEBV?$shared_ptr@VExpectationBase@internal@testing@@@1@@Z
	??$_Copy_construct_from@VThreadLocalValueHolderBase@internal@testing@@@?$_Ptr_base@VThreadLocalValueHolderBase@internal@testing@@@std@@IEAAXAEBV?$shared_ptr@VThreadLocalValueHolderBase@internal@testing@@@1@@Z
	??$_Copy_memmove@PEAHPEAH@std@@YAPEAHPEAH00@Z
	??$_Copy_memmove@PEANPEAN@std@@YAPEANPEAN00@Z
	??$_Copy_memmove@PEAPEAVEnvironment@testing@@PEAPEAV12@@std@@YAPEAPEAVEnvironment@testing@@PEAPEAV12@00@Z
	??$_Copy_memmove@PEAPEAVExpectationBase@internal@testing@@PEAPEAV123@@std@@YAPEAPEAVExpectationBase@internal@testing@@PEAPEAV123@00@Z
	??$_Copy_memmove@PEAPEAVTestEventListener@testing@@PEAPEAV12@@std@@YAPEAPEAVTestEventListener@testing@@PEAPEAV12@00@Z
	??$_Copy_memmove@PEAPEAVTestInfo@testing@@PEAPEAV12@@std@@YAPEAPEAVTestInfo@testing@@PEAPEAV12@00@Z
	??$_Copy_memmove@PEAPEAVTestSuite@testing@@PEAPEAV12@@std@@YAPEAPEAVTestSuite@testing@@PEAPEAV12@00@Z
	??$_Copy_memmove@PEAPEBVExpectationBase@internal@testing@@PEAPEBV123@@std@@YAPEAPEBVExpectationBase@internal@testing@@PEAPEBV123@00@Z
	??$_Copy_memmove@PEAU?$pair@_K_K@std@@PEAU12@@std@@YAPEAU?$pair@_K_K@0@PEAU10@00@Z
	??$_Copy_memmove@PEAW4EditType@edit_distance@internal@testing@@PEAW41234@@std@@YAPEAW4EditType@edit_distance@internal@testing@@PEAW41234@00@Z
	??$_Copy_memmove@PEA_KPEA_K@std@@YAPEA_KPEA_K00@Z
	??$_Copy_memmove_tail@PEAH@std@@YAPEAHQEBDQEAH_K2@Z
	??$_Copy_memmove_tail@PEAN@std@@YAPEANQEBDQEAN_K2@Z
	??$_Copy_memmove_tail@PEAPEAVEnvironment@testing@@@std@@YAPEAPEAVEnvironment@testing@@QEBDQEAPEAV12@_K2@Z
	??$_Copy_memmove_tail@PEAPEAVExpectationBase@internal@testing@@@std@@YAPEAPEAVExpectationBase@internal@testing@@QEBDQEAPEAV123@_K2@Z
	??$_Copy_memmove_tail@PEAPEAVTestEventListener@testing@@@std@@YAPEAPEAVTestEventListener@testing@@QEBDQEAPEAV12@_K2@Z
	??$_Copy_memmove_tail@PEAPEAVTestInfo@testing@@@std@@YAPEAPEAVTestInfo@testing@@QEBDQEAPEAV12@_K2@Z
	??$_Copy_memmove_tail@PEAPEAVTestSuite@testing@@@std@@YAPEAPEAVTestSuite@testing@@QEBDQEAPEAV12@_K2@Z
	??$_Copy_memmove_tail@PEAPEBVExpectationBase@internal@testing@@@std@@YAPEAPEBVExpectationBase@internal@testing@@QEBDQEAPEBV123@_K2@Z
	??$_Copy_memmove_tail@PEAU?$pair@_K_K@std@@@std@@YAPEAU?$pair@_K_K@0@QEBDQEAU10@_K2@Z
	??$_Copy_memmove_tail@PEAW4EditType@edit_distance@internal@testing@@@std@@YAPEAW4EditType@edit_distance@internal@testing@@QEBDQEAW41234@_K2@Z
	??$_Copy_memmove_tail@PEA_K@std@@YAPEA_KQEBDQEA_K_K2@Z
	??$_Deallocate@$0BA@@std@@YAXPEAX_K@Z
	??$_Destroy_in_place@PEAD@std@@YAXAEAPEAD@Z
	??$_Destroy_in_place@PEAU?$_List_node@U?$pair@$$CBV?$basic_string@DU?$char_traits@D@std@@V?$allocator@D@2@@std@@PEAVTestSuite@testing@@@std@@PEAX@std@@@std@@YAXAEAPEAU?$_List_node@U?$pair@$$CBV?$basic_string@DU?$char_traits@D@std@@V?$allocator@D@2@@std@@PEAVTestSuite@testing@@@std@@PEAX@0@@Z
	??$_Destroy_in_place@PEAU?$_List_node@U?$pair@$$CBV?$basic_string@DU?$char_traits@D@std@@V?$allocator@D@2@@std@@_K@std@@PEAX@std@@@std@@YAXAEAPEAU?$_List_node@U?$pair@$$CBV?$basic_string@DU?$char_traits@D@std@@V?$allocator@D@2@@std@@_K@std@@PEAX@0@@Z
	??$_Destroy_in_place@PEAU?$_List_node@U?$pair@$$CB_KW4CallReaction@internal@testing@@@std@@PEAX@std@@@std@@YAXAEAPEAU?$_List_node@U?$pair@$$CB_KW4CallReaction@internal@testing@@@std@@PEAX@0@@Z
	??$_Destroy_in_place@PEAU?$_List_node@U?$pair@DPEBD@std@@PEAX@std@@@std@@YAXAEAPEAU?$_List_node@U?$pair@DPEBD@std@@PEAX@0@@Z
	??$_Destroy_in_place@PEAU?$_List_node@V?$basic_string@DU?$char_traits@D@std@@V?$allocator@D@2@@std@@PEAX@std@@@std@@YAXAEAPEAU?$_List_node@V?$basic_string@DU?$char_traits@D@std@@V?$allocator@D@2@@std@@PEAX@0@@Z
	??$_Destroy_in_place@PEAU?$_Tree_node@PEAVUntypedFunctionMockerBase@internal@testing@@PEAX@std@@@std@@YAXAEAPEAU?$_Tree_node@PEAVUntypedFunctionMockerBase@internal@testing@@PEAX@0@@Z
	??$_Destroy_in_place@PEAU?$_Tree_node@U?$pair@$$CBKV?$map@PEBVThreadLocalBase@internal@testing@@V?$shared_ptr@VThreadLocalValueHolderBase@internal@testing@@@std@@U?$less@PEBVThreadLocalBase@internal@testing@@@5@V?$allocator@U?$pair@QEBVThreadLocalBase@internal@testing@@V?$shared_ptr@VThreadLocalValueHolderBase@internal@testing@@@std@@@std@@@5@@std@@@std@@PEAX@std@@@std@@YAXAEAPEAU?$_Tree_node@U?$pair@$$CBKV?$map@PEBVThreadLocalBase@internal@testing@@V?$shared_ptr@VThreadLocalValueHolderBase@internal@testing@@@std@@U?$less@PEBVThreadLocalBase@internal@testing@@@5@V?$allocator@U?$pair@QEBVThreadLocalBase@internal@testing@@V?$shared_ptr@VThreadLocalValueHolderBase@internal@testing@@@std@@@std@@@5@@std@@@std@@PEAX@0@@Z
	??$_Destroy_in_place@PEAU?$_Tree_node@U?$pair@$$CBV?$basic_string@DU?$char_traits@D@std@@V?$allocator@D@2@@std@@UTypeParameterizedTestSuiteInfo@TypeParameterizedTestSuiteRegistry@internal@testing@@@std@@PEAX@std@@@std@@YAXAEAPEAU?$_Tree_node@U?$pair@$$CBV?$basic_string@DU?$char_traits@D@std@@V?$allocator@D@2@@std@@UTypeParameterizedTestSuiteInfo@TypeParameterizedTestSuiteRegistry@internal@testing@@@std@@PEAX@0@@Z
	??$_Destroy_in_place@PEAU?$_Tree_node@U?$pair@$$CBV?$basic_string@DU?$char_traits@D@std@@V?$allocator@D@2@@std@@_K@std@@PEAX@std@@@std@@YAXAEAPEAU?$_Tree_node@U?$pair@$$CBV?$basic_string@DU?$char_traits@D@std@@V?$allocator@D@2@@std@@_K@std@@PEAX@0@@Z
	??$_Destroy_in_place@PEAU?$_Tree_node@U?$pair@QEBVThreadLocalBase@internal@testing@@V?$shared_ptr@VThreadLocalValueHolderBase@internal@testing@@@std@@@std@@PEAX@std@@@std@@YAXAEAPEAU?$_Tree_node@U?$pair@QEBVThreadLocalBase@internal@testing@@V?$shared_ptr@VThreadLocalValueHolderBase@internal@testing@@@std@@@std@@PEAX@0@@Z
	??$_Destroy_in_place@PEAU?$_Tree_node@V?$basic_string@DU?$char_traits@D@std@@V?$allocator@D@2@@std@@PEAX@std@@@std@@YAXAEAPEAU?$_Tree_node@V?$basic_string@DU?$char_traits@D@std@@V?$allocator@D@2@@std@@PEAX@0@@Z
	??$_Destroy_in_place@PEAU?$_Tree_node@VExpectation@testing@@PEAX@std@@@std@@YAXAEAPEAU?$_Tree_node@VExpectation@testing@@PEAX@0@@Z
	??$_Destroy_in_place@PEA_W@std@@YAXAEAPEA_W@Z
	??$_Destroy_range@PEAPEAVTestInfo@testing@@PEAPEAV12@@std@@YAXPEAPEAVTestInfo@testing@@QEAPEAV12@@Z
	??$_Destroy_range@PEAV?$_List_unchecked_const_iterator@V?$_List_val@U?$_List_simple_types@V?$basic_string@DU?$char_traits@D@std@@V?$allocator@D@2@@std@@@std@@@std@@U_Iterator_base0@2@@std@@PEAV12@@std@@YAXPEAV?$_List_unchecked_const_iterator@V?$_List_val@U?$_List_simple_types@V?$basic_string@DU?$char_traits@D@std@@V?$allocator@D@2@@std@@@std@@@std@@U_Iterator_base0@2@@0@QEAV10@@Z
	??$_Destroy_range@PEAV?$_List_unchecked_iterator@V?$_List_val@U?$_List_simple_types@U?$pair@$$CBV?$basic_string@DU?$char_traits@D@std@@V?$allocator@D@2@@std@@PEAVTestSuite@testing@@@std@@@std@@@std@@@std@@PEAV12@@std@@YAXPEAV?$_List_unchecked_iterator@V?$_List_val@U?$_List_simple_types@U?$pair@$$CBV?$basic_string@DU?$char_traits@D@std@@V?$allocator@D@2@@std@@PEAVTestSuite@testing@@@std@@@std@@@std@@@0@QEAV10@@Z
	??$_Destroy_range@PEAV?$_List_unchecked_iterator@V?$_List_val@U?$_List_simple_types@U?$pair@$$CBV?$basic_string@DU?$char_traits@D@std@@V?$allocator@D@2@@std@@_K@std@@@std@@@std@@@std@@PEAV12@@std@@YAXPEAV?$_List_unchecked_iterator@V?$_List_val@U?$_List_simple_types@U?$pair@$$CBV?$basic_string@DU?$char_traits@D@std@@V?$allocator@D@2@@std@@_K@std@@@std@@@std@@@0@QEAV10@@Z
	??$_Destroy_range@PEAV?$_List_unchecked_iterator@V?$_List_val@U?$_List_simple_types@U?$pair@$$CB_KW4CallReaction@internal@testing@@@std@@@std@@@std@@@std@@PEAV12@@std@@YAXPEAV?$_List_unchecked_iterator@V?$_List_val@U?$_List_simple_types@U?$pair@$$CB_KW4CallReaction@internal@testing@@@std@@@std@@@std@@@0@QEAV10@@Z
	??$_Destroy_range@V?$allocator@D@std@@@std@@YAXPEADQEADAEAV?$allocator@D@0@@Z
	??$_Destroy_range@V?$allocator@H@std@@@std@@YAXPEAHQEAHAEAV?$allocator@H@0@@Z
	??$_Destroy_range@V?$allocator@N@std@@@std@@YAXPEANQEANAEAV?$allocator@N@0@@Z
	??$_Destroy_range@V?$allocator@PEAVEnvironment@testing@@@std@@@std@@YAXPEAPEAVEnvironment@testing@@QEAPEAV12@AEAV?$allocator@PEAVEnvironment@testing@@@0@@Z
	??$_Destroy_range@V?$allocator@PEAVExpectationBase@internal@testing@@@std@@@std@@YAXPEAPEAVExpectationBase@internal@testing@@QEAPEAV123@AEAV?$allocator@PEAVExpectationBase@internal@testing@@@0@@Z
	??$_Destroy_range@V?$allocator@PEAVParameterizedTestSuiteInfoBase@internal@testing@@@std@@@std@@YAXPEAPEAVParameterizedTestSuiteInfoBase@internal@testing@@QEAPEAV123@AEAV?$allocator@PEAVParameterizedTestSuiteInfoBase@internal@testing@@@0@@Z
	??$_Destroy_range@V?$allocator@PEAVTestEventListener@testing@@@std@@@std@@YAXPEAPEAVTestEventListener@testing@@QEAPEAV12@AEAV?$allocator@PEAVTestEventListener@testing@@@0@@Z
	??$_Destroy_range@V?$allocator@PEAVTestInfo@testing@@@std@@@std@@YAXPEAPEAVTestInfo@testing@@QEAPEAV12@AEAV?$allocator@PEAVTestInfo@testing@@@0@@Z
	??$_Destroy_range@V?$allocator@PEAVTestSuite@testing@@@std@@@std@@YAXPEAPEAVTestSuite@testing@@QEAPEAV12@AEAV?$allocator@PEAVTestSuite@testing@@@0@@Z
	??$_Destroy_range@V?$allocator@PEBVExpectationBase@internal@testing@@@std@@@std@@YAXPEAPEBVExpectationBase@internal@testing@@QEAPEBV123@AEAV?$allocator@PEBVExpectationBase@internal@testing@@@0@@Z
	??$_Destroy_range@V?$allocator@PEBX@std@@@std@@YAXPEAPEBXQEAPEBXAEAV?$allocator@PEBX@0@@Z
	??$_Destroy_range@V?$allocator@U?$pair@_K_K@std@@@std@@@std@@YAXPEAU?$pair@_K_K@0@QEAU10@AEAV?$allocator@U?$pair@_K_K@std@@@0@@Z
	??$_Destroy_range@V?$allocator@UTraceInfo@internal@testing@@@std@@@std@@YAXPEAUTraceInfo@internal@testing@@QEAU123@AEAV?$allocator@UTraceInfo@internal@testing@@@0@@Z
	??$_Destroy_range@V?$allocator@V?$basic_string@DU?$char_traits@D@std@@V?$allocator@D@2@@std@@@std@@@std@@YAXPEAV?$basic_string@DU?$char_traits@D@std@@V?$allocator@D@2@@0@QEAV10@AEAV?$allocator@V?$basic_string@DU?$char_traits@D@std@@V?$allocator@D@2@@std@@@0@@Z
	??$_Destroy_range@V?$allocator@V?$shared_ptr@VExpectationBase@internal@testing@@@std@@@std@@@std@@YAXPEAV?$shared_ptr@VExpectationBase@internal@testing@@@0@QEAV10@AEAV?$allocator@V?$shared_ptr@VExpectationBase@internal@testing@@@std@@@0@@Z
	??$_Destroy_range@V?$allocator@V?$shared_ptr@VThreadLocalValueHolderBase@internal@testing@@@std@@@std@@@std@@YAXPEAV?$shared_ptr@VThreadLocalValueHolderBase@internal@testing@@@0@QEAV10@AEAV?$allocator@V?$shared_ptr@VThreadLocalValueHolderBase@internal@testing@@@std@@@0@@Z
	??$_Destroy_range@V?$allocator@V?$vector@NV?$allocator@N@std@@@std@@@std@@@std@@YAXPEAV?$vector@NV?$allocator@N@std@@@0@QEAV10@AEAV?$allocator@V?$vector@NV?$allocator@N@std@@@std@@@0@@Z
	??$_Destroy_range@V?$allocator@V?$vector@W4EditType@edit_distance@internal@testing@@V?$allocator@W4EditType@edit_distance@internal@testing@@@std@@@std@@@std@@@std@@YAXPEAV?$vector@W4EditType@edit_distance@internal@testing@@V?$allocator@W4EditType@edit_distance@internal@testing@@@std@@@0@QEAV10@AEAV?$allocator@V?$vector@W4EditType@edit_distance@internal@testing@@V?$allocator@W4EditType@edit_distance@internal@testing@@@std@@@std@@@0@@Z
	??$_Destroy_range@V?$allocator@VTestPartResult@testing@@@std@@@std@@YAXPEAVTestPartResult@testing@@QEAV12@AEAV?$allocator@VTestPartResult@testing@@@0@@Z
	??$_Destroy_range@V?$allocator@VTestProperty@testing@@@std@@@std@@YAXPEAVTestProperty@testing@@QEAV12@AEAV?$allocator@VTestProperty@testing@@@0@@Z
	??$_Destroy_range@V?$allocator@W4EditType@edit_distance@internal@testing@@@std@@@std@@YAXPEAW4EditType@edit_distance@internal@testing@@QEAW41234@AEAV?$allocator@W4EditType@edit_distance@internal@testing@@@0@@Z
	??$_Destroy_range@V?$allocator@_K@std@@@std@@YAXPEA_KQEA_KAEAV?$allocator@_K@0@@Z
	??$_Emplace@AEBQEAVUntypedFunctionMockerBase@internal@testing@@@?$_Tree@V?$_Tset_traits@PEAVUntypedFunctionMockerBase@internal@testing@@U?$less@PEAVUntypedFunctionMockerBase@internal@testing@@@std@@V?$allocator@PEAVUntypedFunctionMockerBase@internal@testing@@@5@$0A@@std@@@std@@IEAA?AU?$pair@PEAU?$_Tree_node@PEAVUntypedFunctionMockerBase@internal@testing@@PEAX@std@@_N@1@AEBQEAVUntypedFunctionMockerBase@internal@testing@@@Z
	??$_Emplace@AEBV?$basic_string@DU?$char_traits@D@std@@V?$allocator@D@2@@std@@@?$_Tree@V?$_Tset_traits@V?$basic_string@DU?$char_traits@D@std@@V?$allocator@D@2@@std@@U?$less@V?$basic_string@DU?$char_traits@D@std@@V?$allocator@D@2@@std@@@2@V?$allocator@V?$basic_string@DU?$char_traits@D@std@@V?$allocator@D@2@@std@@@2@$0A@@std@@@std@@IEAA?AU?$pair@PEAU?$_Tree_node@V?$basic_string@DU?$char_traits@D@std@@V?$allocator@D@2@@std@@PEAX@std@@_N@1@AEBV?$basic_string@DU?$char_traits@D@std@@V?$allocator@D@2@@1@@Z
	??$_Emplace@AEBVExpectation@testing@@@?$_Tree@V?$_Tset_traits@VExpectation@testing@@VLess@12@V?$allocator@VExpectation@testing@@@std@@$0A@@std@@@std@@IEAA?AU?$pair@PEAU?$_Tree_node@VExpectation@testing@@PEAX@std@@_N@1@AEBVExpectation@testing@@@Z
	??$_Emplace@U?$pair@DPEBD@std@@@?$list@U?$pair@DPEBD@std@@V?$allocator@U?$pair@DPEBD@std@@@2@@std@@QEAAPEAU?$_List_node@U?$pair@DPEBD@std@@PEAX@1@QEAU21@$$QEAU?$pair@DPEBD@1@@Z
	??$_Emplace@U?$pair@KV?$map@PEBVThreadLocalBase@internal@testing@@V?$shared_ptr@VThreadLocalValueHolderBase@internal@testing@@@std@@U?$less@PEBVThreadLocalBase@internal@testing@@@5@V?$allocator@U?$pair@QEBVThreadLocalBase@internal@testing@@V?$shared_ptr@VThreadLocalValueHolderBase@internal@testing@@@std@@@std@@@5@@std@@@std@@@?$_Tree@V?$_Tmap_traits@KV?$map@PEBVThreadLocalBase@internal@testing@@V?$shared_ptr@VThreadLocalValueHolderBase@internal@testing@@@std@@U?$less@PEBVThreadLocalBase@internal@testing@@@5@V?$allocator@U?$pair@QEBVThreadLocalBase@internal@testing@@V?$shared_ptr@VThreadLocalValueHolderBase@internal@testing@@@std@@@std@@@5@@std@@U?$less@K@2@V?$allocator@U?$pair@$$CBKV?$map@PEBVThreadLocalBase@internal@testing@@V?$shared_ptr@VThreadLocalValueHolderBase@internal@testing@@@std@@U?$less@PEBVThreadLocalBase@internal@testing@@@5@V?$allocator@U?$pair@QEBVThreadLocalBase@internal@testing@@V?$shared_ptr@VThreadLocalValueHolderBase@internal@testing@@@std@@@std@@@5@@std@@@std@@@2@$0A@@std@@@std@@IEAA?AU?$pair@PEAU?$_Tree_node@U?$pair@$$CBKV?$map@PEBVThreadLocalBase@internal@testing@@V?$shared_ptr@VThreadLocalValueHolderBase@internal@testing@@@std@@U?$less@PEBVThreadLocalBase@internal@testing@@@5@V?$allocator@U?$pair@QEBVThreadLocalBase@internal@testing@@V?$shared_ptr@VThreadLocalValueHolderBase@internal@testing@@@std@@@std@@@5@@std@@@std@@PEAX@std@@_N@1@$$QEAU?$pair@KV?$map@PEBVThreadLocalBase@internal@testing@@V?$shared_ptr@VThreadLocalValueHolderBase@internal@testing@@@std@@U?$less@PEBVThreadLocalBase@internal@testing@@@5@V?$allocator@U?$pair@QEBVThreadLocalBase@internal@testing@@V?$shared_ptr@VThreadLocalValueHolderBase@internal@testing@@@std@@@std@@@5@@std@@@1@@Z
	??$_Emplace@U?$pair@PEBVThreadLocalBase@internal@testing@@V?$shared_ptr@VThreadLocalValueHolderBase@internal@testing@@@std@@@std@@@?$_Tree@V?$_Tmap_traits@PEBVThreadLocalBase@internal@testing@@V?$shared_ptr@VThreadLocalValueHolderBase@internal@testing@@@std@@U?$less@PEBVThreadLocalBase@internal@testing@@@5@V?$allocator@U?$pair@QEBVThreadLocalBase@internal@testing@@V?$shared_ptr@VThreadLocalValueHolderBase@internal@testing@@@std@@@std@@@5@$0A@@std@@@std@@IEAA?AU?$pair@PEAU?$_Tree_node@U?$pair@QEBVThreadLocalBase@internal@testing@@V?$shared_ptr@VThreadLocalValueHolderBase@internal@testing@@@std@@@std@@PEAX@std@@_N@1@$$QEAU?$pair@PEBVThreadLocalBase@internal@testing@@V?$shared_ptr@VThreadLocalValueHolderBase@internal@testing@@@std@@@1@@Z
	??$_Emplace@V?$basic_string@DU?$char_traits@D@std@@V?$allocator@D@2@@std@@@?$_Tree@V?$_Tset_traits@V?$basic_string@DU?$char_traits@D@std@@V?$allocator@D@2@@std@@U?$less@V?$basic_string@DU?$char_traits@D@std@@V?$allocator@D@2@@std@@@2@V?$allocator@V?$basic_string@DU?$char_traits@D@std@@V?$allocator@D@2@@std@@@2@$0A@@std@@@std@@IEAA?AU?$pair@PEAU?$_Tree_node@V?$basic_string@DU?$char_traits@D@std@@V?$allocator@D@2@@std@@PEAX@std@@_N@1@$$QEAV?$basic_string@DU?$char_traits@D@std@@V?$allocator@D@2@@1@@Z
	??$_Emplace@V?$basic_string@DU?$char_traits@D@std@@V?$allocator@D@2@@std@@UTypeParameterizedTestSuiteInfo@TypeParameterizedTestSuiteRegistry@internal@testing@@@?$_Tree@V?$_Tmap_traits@V?$basic_string@DU?$char_traits@D@std@@V?$allocator@D@2@@std@@UTypeParameterizedTestSuiteInfo@TypeParameterizedTestSuiteRegistry@internal@testing@@U?$less@V?$basic_string@DU?$char_traits@D@std@@V?$allocator@D@2@@std@@@2@V?$allocator@U?$pair@$$CBV?$basic_string@DU?$char_traits@D@std@@V?$allocator@D@2@@std@@UTypeParameterizedTestSuiteInfo@TypeParameterizedTestSuiteRegistry@internal@testing@@@std@@@2@$0A@@std@@@std@@IEAA?AU?$pair@PEAU?$_Tree_node@U?$pair@$$CBV?$basic_string@DU?$char_traits@D@std@@V?$allocator@D@2@@std@@UTypeParameterizedTestSuiteInfo@TypeParameterizedTestSuiteRegistry@internal@testing@@@std@@PEAX@std@@_N@1@$$QEAV?$basic_string@DU?$char_traits@D@std@@V?$allocator@D@2@@1@$$QEAUTypeParameterizedTestSuiteInfo@TypeParameterizedTestSuiteRegistry@internal@testing@@@Z
	??$_Emplace_back@$$V@?$_Uninitialized_backout_al@V?$allocator@N@std@@@std@@QEAAXXZ
	??$_Emplace_back@$$V@?$_Uninitialized_backout_al@V?$allocator@W4EditType@edit_distance@internal@testing@@@std@@@std@@QEAAXXZ
	??$_Emplace_back@AEAN@?$_Uninitialized_backout_al@V?$allocator@N@std@@@std@@QEAAXAEAN@Z
	??$_Emplace_back@AEAV?$basic_string@DU?$char_traits@D@std@@V?$allocator@D@2@@std@@@?$_Uninitialized_backout_al@V?$allocator@V?$basic_string@DU?$char_traits@D@std@@V?$allocator@D@2@@std@@@std@@@std@@QEAAXAEAV?$basic_string@DU?$char_traits@D@std@@V?$allocator@D@2@@1@@Z
	??$_Emplace_back@AEAW4EditType@edit_distance@internal@testing@@@?$_Uninitialized_backout_al@V?$allocator@W4EditType@edit_distance@internal@testing@@@std@@@std@@QEAAXAEAW4EditType@edit_distance@internal@testing@@@Z
	??$_Emplace_back@AEBD@?$_Uninitialized_backout_al@V?$allocator@D@std@@@std@@QEAAXAEBD@Z
	??$_Emplace_back@AEBQEAVExpectationBase@internal@testing@@@?$_Uninitialized_backout_al@V?$allocator@PEAVExpectationBase@internal@testing@@@std@@@std@@QEAAXAEBQEAVExpectationBase@internal@testing@@@Z
	??$_Emplace_back@AEBQEBD@?$_Uninitialized_backout_al@V?$allocator@V?$basic_string@DU?$char_traits@D@std@@V?$allocator@D@2@@std@@@std@@@std@@QEAAXAEBQEBD@Z
	??$_Emplace_back@AEBQEBVExpectationBase@internal@testing@@@?$_Uninitialized_backout_al@V?$allocator@PEBVExpectationBase@internal@testing@@@std@@@std@@QEAAXAEBQEBVExpectationBase@internal@testing@@@Z
	??$_Emplace_back@AEBV?$_List_unchecked_const_iterator@V?$_List_val@U?$_List_simple_types@V?$basic_string@DU?$char_traits@D@std@@V?$allocator@D@2@@std@@@std@@@std@@U_Iterator_base0@2@@std@@@?$_Uninitialized_backout@PEAV?$_List_unchecked_const_iterator@V?$_List_val@U?$_List_simple_types@V?$basic_string@DU?$char_traits@D@std@@V?$allocator@D@2@@std@@@std@@@std@@U_Iterator_base0@2@@std@@@std@@QEAAXAEBV?$_List_unchecked_const_iterator@V?$_List_val@U?$_List_simple_types@V?$basic_string@DU?$char_traits@D@std@@V?$allocator@D@2@@std@@@std@@@std@@U_Iterator_base0@2@@1@@Z
	??$_Emplace_back@AEBV?$_List_unchecked_iterator@V?$_List_val@U?$_List_simple_types@U?$pair@$$CBV?$basic_string@DU?$char_traits@D@std@@V?$allocator@D@2@@std@@PEAVTestSuite@testing@@@std@@@std@@@std@@@std@@@?$_Uninitialized_backout@PEAV?$_List_unchecked_iterator@V?$_List_val@U?$_List_simple_types@U?$pair@$$CBV?$basic_string@DU?$char_traits@D@std@@V?$allocator@D@2@@std@@PEAVTestSuite@testing@@@std@@@std@@@std@@@std@@@std@@QEAAXAEBV?$_List_unchecked_iterator@V?$_List_val@U?$_List_simple_types@U?$pair@$$CBV?$basic_string@DU?$char_traits@D@std@@V?$allocator@D@2@@std@@PEAVTestSuite@testing@@@std@@@std@@@std@@@1@@Z
	??$_Emplace_back@AEBV?$_List_unchecked_iterator@V?$_List_val@U?$_List_simple_types@U?$pair@$$CBV?$basic_string@DU?$char_traits@D@std@@V?$allocator@D@2@@std@@_K@std@@@std@@@std@@@std@@@?$_Uninitialized_backout@PEAV?$_List_unchecked_iterator@V?$_List_val@U?$_List_simple_types@U?$pair@$$CBV?$basic_string@DU?$char_traits@D@std@@V?$allocator@D@2@@std@@_K@std@@@std@@@std@@@std@@@std@@QEAAXAEBV?$_List_unchecked_iterator@V?$_List_val@U?$_List_simple_types@U?$pair@$$CBV?$basic_string@DU?$char_traits@D@std@@V?$allocator@D@2@@std@@_K@std@@@std@@@std@@@1@@Z
	??$_Emplace_back@AEBV?$_List_unchecked_iterator@V?$_List_val@U?$_List_simple_types@U?$pair@$$CB_KW4CallReaction@internal@testing@@@std@@@std@@@std@@@std@@@?$_Uninitialized_backout@PEAV?$_List_unchecked_iterator@V?$_List_val@U?$_List_simple_types@U?$pair@$$CB_KW4CallReaction@internal@testing@@@std@@@std@@@std@@@std@@@std@@QEAAXAEBV?$_List_unchecked_iterator@V?$_List_val@U?$_List_simple_types@U?$pair@$$CB_KW4CallReaction@internal@testing@@@std@@@std@@@std@@@1@@Z
	??$_Emplace_back@AEBV?$basic_string@DU?$char_traits@D@std@@V?$allocator@D@2@@std@@@?$_Uninitialized_backout_al@V?$allocator@V?$basic_string@DU?$char_traits@D@std@@V?$allocator@D@2@@std@@@std@@@std@@QEAAXAEBV?$basic_string@DU?$char_traits@D@std@@V?$allocator@D@2@@1@@Z
	??$_Emplace_back@AEBV?$vector@NV?$allocator@N@std@@@std@@@?$_Uninitialized_backout_al@V?$allocator@V?$vector@NV?$allocator@N@std@@@std@@@std@@@std@@QEAAXAEBV?$vector@NV?$allocator@N@std@@@1@@Z
	??$_Emplace_back@AEBV?$vector@W4EditType@edit_distance@internal@testing@@V?$allocator@W4EditType@edit_distance@internal@testing@@@std@@@std@@@?$_Uninitialized_backout_al@V?$allocator@V?$vector@W4EditType@edit_distance@internal@testing@@V?$allocator@W4EditType@edit_distance@internal@testing@@@std@@@std@@@std@@@std@@QEAAXAEBV?$vector@W4EditType@edit_distance@internal@testing@@V?$allocator@W4EditType@edit_distance@internal@testing@@@std@@@1@@Z
	??$_Emplace_back@AEB_K@?$_Uninitialized_backout_al@V?$allocator@_K@std@@@std@@QEAAXAEB_K@Z
	??$_Emplace_back@H@?$_Uninitialized_backout_al@V?$allocator@H@std@@@std@@QEAAX$$QEAH@Z
	??$_Emplace_back@PEAVEnvironment@testing@@@?$_Uninitialized_backout_al@V?$allocator@PEAVEnvironment@testing@@@std@@@std@@QEAAX$$QEAPEAVEnvironment@testing@@@Z
	??$_Emplace_back@PEAVExpectationBase@internal@testing@@@?$_Uninitialized_backout_al@V?$allocator@PEAVExpectationBase@internal@testing@@@std@@@std@@QEAAX$$QEAPEAVExpectationBase@internal@testing@@@Z
	??$_Emplace_back@PEAVTestEventListener@testing@@@?$_Uninitialized_backout_al@V?$allocator@PEAVTestEventListener@testing@@@std@@@std@@QEAAX$$QEAPEAVTestEventListener@testing@@@Z
	??$_Emplace_back@PEAVTestInfo@testing@@@?$_Uninitialized_backout@PEAPEAVTestInfo@testing@@@std@@QEAAX$$QEAPEAVTestInfo@testing@@@Z
	??$_Emplace_back@PEAVTestInfo@testing@@@?$_Uninitialized_backout_al@V?$allocator@PEAVTestInfo@testing@@@std@@@std@@QEAAX$$QEAPEAVTestInfo@testing@@@Z
	??$_Emplace_back@PEAVTestSuite@testing@@@?$_Uninitialized_backout_al@V?$allocator@PEAVTestSuite@testing@@@std@@@std@@QEAAX$$QEAPEAVTestSuite@testing@@@Z
	??$_Emplace_back@PEBVExpectationBase@internal@testing@@@?$_Uninitialized_backout_al@V?$allocator@PEBVExpectationBase@internal@testing@@@std@@@std@@QEAAX$$QEAPEBVExpectationBase@internal@testing@@@Z
	??$_Emplace_back@U?$pair@_K_K@std@@@?$_Uninitialized_backout_al@V?$allocator@U?$pair@_K_K@std@@@std@@@std@@QEAAX$$QEAU?$pair@_K_K@1@@Z
	??$_Emplace_back@UTraceInfo@internal@testing@@@?$_Uninitialized_backout_al@V?$allocator@UTraceInfo@internal@testing@@@std@@@std@@QEAAX$$QEAUTraceInfo@internal@testing@@@Z
	??$_Emplace_back@V?$basic_string@DU?$char_traits@D@std@@V?$allocator@D@2@@std@@@?$_Uninitialized_backout_al@V?$allocator@V?$basic_string@DU?$char_traits@D@std@@V?$allocator@D@2@@std@@@std@@@std@@QEAAX$$QEAV?$basic_string@DU?$char_traits@D@std@@V?$allocator@D@2@@1@@Z
	??$_Emplace_back@V?$shared_ptr@VThreadLocalValueHolderBase@internal@testing@@@std@@@?$_Uninitialized_backout_al@V?$allocator@V?$shared_ptr@VThreadLocalValueHolderBase@internal@testing@@@std@@@std@@@std@@QEAAX$$QEAV?$shared_ptr@VThreadLocalValueHolderBase@internal@testing@@@1@@Z
	??$_Emplace_back@VTestPartResult@testing@@@?$_Uninitialized_backout_al@V?$allocator@VTestPartResult@testing@@@std@@@std@@QEAAX$$QEAVTestPartResult@testing@@@Z
	??$_Emplace_back@VTestProperty@testing@@@?$_Uninitialized_backout_al@V?$allocator@VTestProperty@testing@@@std@@@std@@QEAAX$$QEAVTestProperty@testing@@@Z
	??$_Emplace_back@W4EditType@edit_distance@internal@testing@@@?$_Uninitialized_backout_al@V?$allocator@W4EditType@edit_distance@internal@testing@@@std@@@std@@QEAAX$$QEAW4EditType@edit_distance@internal@testing@@@Z
	??$_Emplace_back@_K@?$_Uninitialized_backout_al@V?$allocator@_K@std@@@std@@QEAAX$$QEA_K@Z
	??$_Emplace_back_deref_move@PEAPEAVTestInfo@testing@@@?$_Uninitialized_backout@PEAPEAVTestInfo@testing@@@std@@QEAAXAEAPEAPEAVTestInfo@testing@@@Z
	??$_Emplace_back_with_unused_capacity@AEBQEAVEnvironment@testing@@@?$vector@PEAVEnvironment@testing@@V?$allocator@PEAVEnvironment@testing@@@std@@@std@@AEAAAEAPEAVEnvironment@testing@@AEBQEAV23@@Z
	??$_Emplace_back_with_unused_capacity@AEBQEAVExpectationBase@internal@testing@@@?$vector@PEAVExpectationBase@internal@testing@@V?$allocator@PEAVExpectationBase@internal@testing@@@std@@@std@@AEAAAEAPEAVExpectationBase@internal@testing@@AEBQEAV234@@Z
	??$_Emplace_back_with_unused_capacity@AEBQEAVTestEventListener@testing@@@?$vector@PEAVTestEventListener@testing@@V?$allocator@PEAVTestEventListener@testing@@@std@@@std@@AEAAAEAPEAVTestEventListener@testing@@AEBQEAV23@@Z
	??$_Emplace_back_with_unused_capacity@AEBQEAVTestInfo@testing@@@?$vector@PEAVTestInfo@testing@@V?$allocator@PEAVTestInfo@testing@@@std@@@std@@AEAAAEAPEAVTestInfo@testing@@AEBQEAV23@@Z
	??$_Emplace_back_with_unused_capacity@AEBQEAVTestSuite@testing@@@?$vector@PEAVTestSuite@testing@@V?$allocator@PEAVTestSuite@testing@@@std@@@std@@AEAAAEAPEAVTestSuite@testing@@AEBQEAV23@@Z
	??$_Emplace_back_with_unused_capacity@AEBQEBVExpectationBase@internal@testing@@@?$vector@PEBVExpectationBase@internal@testing@@V?$allocator@PEBVExpectationBase@internal@testing@@@std@@@std@@AEAAAEAPEBVExpectationBase@internal@testing@@AEBQEBV234@@Z
	??$_Emplace_back_with_unused_capacity@AEBUTraceInfo@internal@testing@@@?$vector@UTraceInfo@internal@testing@@V?$allocator@UTraceInfo@internal@testing@@@std@@@std@@AEAAAEAUTraceInfo@internal@testing@@AEBU234@@Z
	??$_Emplace_back_with_unused_capacity@AEBV?$shared_ptr@VThreadLocalValueHolderBase@internal@testing@@@std@@@?$vector@V?$shared_ptr@VThreadLocalValueHolderBase@internal@testing@@@std@@V?$allocator@V?$shared_ptr@VThreadLocalValueHolderBase@internal@testing@@@std@@@2@@std@@AEAAAEAV?$shared_ptr@VThreadLocalValueHolderBase@internal@testing@@@1@AEBV21@@Z
	??$_Emplace_back_with_unused_capacity@AEBVTestPartResult@testing@@@?$vector@VTestPartResult@testing@@V?$allocator@VTestPartResult@testing@@@std@@@std@@AEAAAEAVTestPartResult@testing@@AEBV23@@Z
	??$_Emplace_back_with_unused_capacity@AEBVTestProperty@testing@@@?$vector@VTestProperty@testing@@V?$allocator@VTestProperty@testing@@@std@@@std@@AEAAAEAVTestProperty@testing@@AEBV23@@Z
	??$_Emplace_back_with_unused_capacity@AEBW4EditType@edit_distance@internal@testing@@@?$vector@W4EditType@edit_distance@internal@testing@@V?$allocator@W4EditType@edit_distance@internal@testing@@@std@@@std@@AEAAAEAW4EditType@edit_distance@internal@testing@@AEBW42345@@Z
	??$_Emplace_back_with_unused_capacity@H@?$vector@HV?$allocator@H@std@@@std@@AEAAAEAH$$QEAH@Z
	??$_Emplace_back_with_unused_capacity@U?$pair@_K_K@std@@@?$vector@U?$pair@_K_K@std@@V?$allocator@U?$pair@_K_K@std@@@2@@std@@AEAAAEAU?$pair@_K_K@1@$$QEAU21@@Z
	??$_Emplace_back_with_unused_capacity@V?$basic_string@DU?$char_traits@D@std@@V?$allocator@D@2@@std@@@?$vector@V?$basic_string@DU?$char_traits@D@std@@V?$allocator@D@2@@std@@V?$allocator@V?$basic_string@DU?$char_traits@D@std@@V?$allocator@D@2@@std@@@2@@std@@AEAAAEAV?$basic_string@DU?$char_traits@D@std@@V?$allocator@D@2@@1@$$QEAV21@@Z
	??$_Emplace_back_with_unused_capacity@_K@?$vector@_KV?$allocator@_K@std@@@std@@AEAAAEA_K$$QEA_K@Z
	??$_Emplace_one_at_back@AEBQEAVEnvironment@testing@@@?$vector@PEAVEnvironment@testing@@V?$allocator@PEAVEnvironment@testing@@@std@@@std@@AEAAAEAPEAVEnvironment@testing@@AEBQEAV23@@Z
	??$_Emplace_one_at_back@AEBQEAVExpectationBase@internal@testing@@@?$vector@PEAVExpectationBase@internal@testing@@V?$allocator@PEAVExpectationBase@internal@testing@@@std@@@std@@AEAAAEAPEAVExpectationBase@internal@testing@@AEBQEAV234@@Z
	??$_Emplace_one_at_back@AEBQEAVTestEventListener@testing@@@?$vector@PEAVTestEventListener@testing@@V?$allocator@PEAVTestEventListener@testing@@@std@@@std@@AEAAAEAPEAVTestEventListener@testing@@AEBQEAV23@@Z
	??$_Emplace_one_at_back@AEBQEAVTestInfo@testing@@@?$vector@PEAVTestInfo@testing@@V?$allocator@PEAVTestInfo@testing@@@std@@@std@@AEAAAEAPEAVTestInfo@testing@@AEBQEAV23@@Z
	??$_Emplace_one_at_back@AEBQEAVTestSuite@testing@@@?$vector@PEAVTestSuite@testing@@V?$allocator@PEAVTestSuite@testing@@@std@@@std@@AEAAAEAPEAVTestSuite@testing@@AEBQEAV23@@Z
	??$_Emplace_one_at_back@AEBQEBVExpectationBase@internal@testing@@@?$vector@PEBVExpectationBase@internal@testing@@V?$allocator@PEBVExpectationBase@internal@testing@@@std@@@std@@AEAAAEAPEBVExpectationBase@internal@testing@@AEBQEBV234@@Z
	??$_Emplace_one_at_back@AEBUTraceInfo@internal@testing@@@?$vector@UTraceInfo@internal@testing@@V?$allocator@UTraceInfo@internal@testing@@@std@@@std@@AEAAAEAUTraceInfo@internal@testing@@AEBU234@@Z
	??$_Emplace_one_at_back@AEBV?$shared_ptr@VThreadLocalValueHolderBase@internal@testing@@@std@@@?$vector@V?$shared_ptr@VThreadLocalValueHolderBase@internal@testing@@@std@@V?$allocator@V?$shared_ptr@VThreadLocalValueHolderBase@internal@testing@@@std@@@2@@std@@AEAAAEAV?$shared_ptr@VThreadLocalValueHolderBase@internal@testing@@@1@AEBV21@@Z
	??$_Emplace_one_at_back@AEBVTestPartResult@testing@@@?$vector@VTestPartResult@testing@@V?$allocator@VTestPartResult@testing@@@std@@@std@@AEAAAEAVTestPartResult@testing@@AEBV23@@Z
	??$_Emplace_one_at_back@AEBVTestProperty@testing@@@?$vector@VTestProperty@testing@@V?$allocator@VTestProperty@testing@@@std@@@std@@AEAAAEAVTestProperty@testing@@AEBV23@@Z
	??$_Emplace_one_at_back@AEBW4EditType@edit_distance@internal@testing@@@?$vector@W4EditType@edit_distance@internal@testing@@V?$allocator@W4EditType@edit_distance@internal@testing@@@std@@@std@@AEAAAEAW4EditType@edit_distance@internal@testing@@AEBW42345@@Z
	??$_Emplace_one_at_back@H@?$vector@HV?$allocator@H@std@@@std@@AEAAAEAH$$QEAH@Z
	??$_Emplace_one_at_back@U?$pair@_K_K@std@@@?$vector@U?$pair@_K_K@std@@V?$allocator@U?$pair@_K_K@std@@@2@@std@@AEAAAEAU?$pair@_K_K@1@$$QEAU21@@Z
	??$_Emplace_one_at_back@V?$basic_string@DU?$char_traits@D@std@@V?$allocator@D@2@@std@@@?$vector@V?$basic_string@DU?$char_traits@D@std@@V?$allocator@D@2@@std@@V?$allocator@V?$basic_string@DU?$char_traits@D@std@@V?$allocator@D@2@@std@@@2@@std@@AEAAAEAV?$basic_string@DU?$char_traits@D@std@@V?$allocator@D@2@@1@$$QEAV21@@Z
	??$_Emplace_one_at_back@_K@?$vector@_KV?$allocator@_K@std@@@std@@AEAAAEA_K$$QEA_K@Z
	??$_Emplace_reallocate@AEBQEAVEnvironment@testing@@@?$vector@PEAVEnvironment@testing@@V?$allocator@PEAVEnvironment@testing@@@std@@@std@@AEAAPEAPEAVEnvironment@testing@@QEAPEAV23@AEBQEAV23@@Z
	??$_Emplace_reallocate@AEBQEAVExpectationBase@internal@testing@@@?$vector@PEAVExpectationBase@internal@testing@@V?$allocator@PEAVExpectationBase@internal@testing@@@std@@@std@@AEAAPEAPEAVExpectationBase@internal@testing@@QEAPEAV234@AEBQEAV234@@Z
	??$_Emplace_reallocate@AEBQEAVTestEventListener@testing@@@?$vector@PEAVTestEventListener@testing@@V?$allocator@PEAVTestEventListener@testing@@@std@@@std@@AEAAPEAPEAVTestEventListener@testing@@QEAPEAV23@AEBQEAV23@@Z
	??$_Emplace_reallocate@AEBQEAVTestInfo@testing@@@?$vector@PEAVTestInfo@testing@@V?$allocator@PEAVTestInfo@testing@@@std@@@std@@AEAAPEAPEAVTestInfo@testing@@QEAPEAV23@AEBQEAV23@@Z
	??$_Emplace_reallocate@AEBQEAVTestSuite@testing@@@?$vector@PEAVTestSuite@testing@@V?$allocator@PEAVTestSuite@testing@@@std@@@std@@AEAAPEAPEAVTestSuite@testing@@QEAPEAV23@AEBQEAV23@@Z
	??$_Emplace_reallocate@AEBQEBVExpectationBase@internal@testing@@@?$vector@PEBVExpectationBase@internal@testing@@V?$allocator@PEBVExpectationBase@internal@testing@@@std@@@std@@AEAAPEAPEBVExpectationBase@internal@testing@@QEAPEBV234@AEBQEBV234@@Z
	??$_Emplace_reallocate@AEBUTraceInfo@internal@testing@@@?$vector@UTraceInfo@internal@testing@@V?$allocator@UTraceInfo@internal@testing@@@std@@@std@@AEAAPEAUTraceInfo@internal@testing@@QEAU234@AEBU234@@Z
	??$_Emplace_reallocate@AEBV?$shared_ptr@VThreadLocalValueHolderBase@internal@testing@@@std@@@?$vector@V?$shared_ptr@VThreadLocalValueHolderBase@internal@testing@@@std@@V?$allocator@V?$shared_ptr@VThreadLocalValueHolderBase@internal@testing@@@std@@@2@@std@@AEAAPEAV?$shared_ptr@VThreadLocalValueHolderBase@internal@testing@@@1@QEAV21@AEBV21@@Z
	??$_Emplace_reallocate@AEBVTestPartResult@testing@@@?$vector@VTestPartResult@testing@@V?$allocator@VTestPartResult@testing@@@std@@@std@@AEAAPEAVTestPartResult@testing@@QEAV23@AEBV23@@Z
	??$_Emplace_reallocate@AEBVTestProperty@testing@@@?$vector@VTestProperty@testing@@V?$allocator@VTestProperty@testing@@@std@@@std@@AEAAPEAVTestProperty@testing@@QEAV23@AEBV23@@Z
	??$_Emplace_reallocate@AEBW4EditType@edit_distance@internal@testing@@@?$vector@W4EditType@edit_distance@internal@testing@@V?$allocator@W4EditType@edit_distance@internal@testing@@@std@@@std@@AEAAPEAW4EditType@edit_distance@internal@testing@@QEAW42345@AEBW42345@@Z
	??$_Emplace_reallocate@H@?$vector@HV?$allocator@H@std@@@std@@AEAAPEAHQEAH$$QEAH@Z
	??$_Emplace_reallocate@U?$pair@_K_K@std@@@?$vector@U?$pair@_K_K@std@@V?$allocator@U?$pair@_K_K@std@@@2@@std@@AEAAPEAU?$pair@_K_K@1@QEAU21@$$QEAU21@@Z
	??$_Emplace_reallocate@V?$basic_string@DU?$char_traits@D@std@@V?$allocator@D@2@@std@@@?$vector@V?$basic_string@DU?$char_traits@D@std@@V?$allocator@D@2@@std@@V?$allocator@V?$basic_string@DU?$char_traits@D@std@@V?$allocator@D@2@@std@@@2@@std@@AEAAPEAV?$basic_string@DU?$char_traits@D@std@@V?$allocator@D@2@@1@QEAV21@$$QEAV21@@Z
	??$_Emplace_reallocate@_K@?$vector@_KV?$allocator@_K@std@@@std@@AEAAPEA_KQEA_K$$QEA_K@Z
	??$_Eqrange@PEAVUntypedFunctionMockerBase@internal@testing@@@?$_Tree@V?$_Tset_traits@PEAVUntypedFunctionMockerBase@internal@testing@@U?$less@PEAVUntypedFunctionMockerBase@internal@testing@@@std@@V?$allocator@PEAVUntypedFunctionMockerBase@internal@testing@@@5@$0A@@std@@@std@@IEBA?AU?$pair@PEAU?$_Tree_node@PEAVUntypedFunctionMockerBase@internal@testing@@PEAX@std@@PEAU12@@1@AEBQEAVUntypedFunctionMockerBase@internal@testing@@@Z
	??$_Erase@_K@?$_Hash@V?$_Umap_traits@_KW4CallReaction@internal@testing@@V?$_Uhash_compare@_KU?$hash@_K@std@@U?$equal_to@_K@2@@std@@V?$allocator@U?$pair@$$CB_KW4CallReaction@internal@testing@@@std@@@5@$0A@@std@@@std@@AEAA_KAEB_K@Z
	??$_Erase_head@V?$allocator@U?$_Tree_node@PEAVUntypedFunctionMockerBase@internal@testing@@PEAX@std@@@std@@@?$_Tree_val@U?$_Tree_simple_types@PEAVUntypedFunctionMockerBase@internal@testing@@@std@@@std@@QEAAXAEAV?$allocator@U?$_Tree_node@PEAVUntypedFunctionMockerBase@internal@testing@@PEAX@std@@@1@@Z
	??$_Erase_head@V?$allocator@U?$_Tree_node@U?$pair@$$CBV?$basic_string@DU?$char_traits@D@std@@V?$allocator@D@2@@std@@UTypeParameterizedTestSuiteInfo@TypeParameterizedTestSuiteRegistry@internal@testing@@@std@@PEAX@std@@@std@@@?$_Tree_val@U?$_Tree_simple_types@U?$pair@$$CBV?$basic_string@DU?$char_traits@D@std@@V?$allocator@D@2@@std@@UTypeParameterizedTestSuiteInfo@TypeParameterizedTestSuiteRegistry@internal@testing@@@std@@@std@@@std@@QEAAXAEAV?$allocator@U?$_Tree_node@U?$pair@$$CBV?$basic_string@DU?$char_traits@D@std@@V?$allocator@D@2@@std@@UTypeParameterizedTestSuiteInfo@TypeParameterizedTestSuiteRegistry@internal@testing@@@std@@PEAX@std@@@1@@Z
	??$_Erase_head@V?$allocator@U?$_Tree_node@U?$pair@$$CBV?$basic_string@DU?$char_traits@D@std@@V?$allocator@D@2@@std@@_K@std@@PEAX@std@@@std@@@?$_Tree_val@U?$_Tree_simple_types@U?$pair@$$CBV?$basic_string@DU?$char_traits@D@std@@V?$allocator@D@2@@std@@_K@std@@@std@@@std@@QEAAXAEAV?$allocator@U?$_Tree_node@U?$pair@$$CBV?$basic_string@DU?$char_traits@D@std@@V?$allocator@D@2@@std@@_K@std@@PEAX@std@@@1@@Z
	??$_Erase_head@V?$allocator@U?$_Tree_node@U?$pair@QEBVThreadLocalBase@internal@testing@@V?$shared_ptr@VThreadLocalValueHolderBase@internal@testing@@@std@@@std@@PEAX@std@@@std@@@?$_Tree_val@U?$_Tree_simple_types@U?$pair@QEBVThreadLocalBase@internal@testing@@V?$shared_ptr@VThreadLocalValueHolderBase@internal@testing@@@std@@@std@@@std@@@std@@QEAAXAEAV?$allocator@U?$_Tree_node@U?$pair@QEBVThreadLocalBase@internal@testing@@V?$shared_ptr@VThreadLocalValueHolderBase@internal@testing@@@std@@@std@@PEAX@std@@@1@@Z
	??$_Erase_head@V?$allocator@U?$_Tree_node@V?$basic_string@DU?$char_traits@D@std@@V?$allocator@D@2@@std@@PEAX@std@@@std@@@?$_Tree_val@U?$_Tree_simple_types@V?$basic_string@DU?$char_traits@D@std@@V?$allocator@D@2@@std@@@std@@@std@@QEAAXAEAV?$allocator@U?$_Tree_node@V?$basic_string@DU?$char_traits@D@std@@V?$allocator@D@2@@std@@PEAX@std@@@1@@Z
	??$_Erase_head@V?$allocator@U?$_Tree_node@VExpectation@testing@@PEAX@std@@@std@@@?$_Tree_val@U?$_Tree_simple_types@VExpectation@testing@@@std@@@std@@QEAAXAEAV?$allocator@U?$_Tree_node@VExpectation@testing@@PEAX@std@@@1@@Z
	??$_Erase_tree@V?$allocator@U?$_Tree_node@PEAVUntypedFunctionMockerBase@internal@testing@@PEAX@std@@@std@@@?$_Tree_val@U?$_Tree_simple_types@PEAVUntypedFunctionMockerBase@internal@testing@@@std@@@std@@QEAAXAEAV?$allocator@U?$_Tree_node@PEAVUntypedFunctionMockerBase@internal@testing@@PEAX@std@@@1@PEAU?$_Tree_node@PEAVUntypedFunctionMockerBase@internal@testing@@PEAX@1@@Z
	??$_Erase_tree@V?$allocator@U?$_Tree_node@U?$pair@$$CBV?$basic_string@DU?$char_traits@D@std@@V?$allocator@D@2@@std@@UTypeParameterizedTestSuiteInfo@TypeParameterizedTestSuiteRegistry@internal@testing@@@std@@PEAX@std@@@std@@@?$_Tree_val@U?$_Tree_simple_types@U?$pair@$$CBV?$basic_string@DU?$char_traits@D@std@@V?$allocator@D@2@@std@@UTypeParameterizedTestSuiteInfo@TypeParameterizedTestSuiteRegistry@internal@testing@@@std@@@std@@@std@@QEAAXAEAV?$allocator@U?$_Tree_node@U?$pair@$$CBV?$basic_string@DU?$char_traits@D@std@@V?$allocator@D@2@@std@@UTypeParameterizedTestSuiteInfo@TypeParameterizedTestSuiteRegistry@internal@testing@@@std@@PEAX@std@@@1@PEAU?$_Tree_node@U?$pair@$$CBV?$basic_string@DU?$char_traits@D@std@@V?$allocator@D@2@@std@@UTypeParameterizedTestSuiteInfo@TypeParameterizedTestSuiteRegistry@internal@testing@@@std@@PEAX@1@@Z
	??$_Erase_tree@V?$allocator@U?$_Tree_node@U?$pair@$$CBV?$basic_string@DU?$char_traits@D@std@@V?$allocator@D@2@@std@@_K@std@@PEAX@std@@@std@@@?$_Tree_val@U?$_Tree_simple_types@U?$pair@$$CBV?$basic_string@DU?$char_traits@D@std@@V?$allocator@D@2@@std@@_K@std@@@std@@@std@@QEAAXAEAV?$allocator@U?$_Tree_node@U?$pair@$$CBV?$basic_string@DU?$char_traits@D@std@@V?$allocator@D@2@@std@@_K@std@@PEAX@std@@@1@PEAU?$_Tree_node@U?$pair@$$CBV?$basic_string@DU?$char_traits@D@std@@V?$allocator@D@2@@std@@_K@std@@PEAX@1@@Z
	??$_Erase_tree@V?$allocator@U?$_Tree_node@U?$pair@QEBVThreadLocalBase@internal@testing@@V?$shared_ptr@VThreadLocalValueHolderBase@internal@testing@@@std@@@std@@PEAX@std@@@std@@@?$_Tree_val@U?$_Tree_simple_types@U?$pair@QEBVThreadLocalBase@internal@testing@@V?$shared_ptr@VThreadLocalValueHolderBase@internal@testing@@@std@@@std@@@std@@@std@@QEAAXAEAV?$allocator@U?$_Tree_node@U?$pair@QEBVThreadLocalBase@internal@testing@@V?$shared_ptr@VThreadLocalValueHolderBase@internal@testing@@@std@@@std@@PEAX@std@@@1@PEAU?$_Tree_node@U?$pair@QEBVThreadLocalBase@internal@testing@@V?$shared_ptr@VThreadLocalValueHolderBase@internal@testing@@@std@@@std@@PEAX@1@@Z
	??$_Erase_tree@V?$allocator@U?$_Tree_node@V?$basic_string@DU?$char_traits@D@std@@V?$allocator@D@2@@std@@PEAX@std@@@std@@@?$_Tree_val@U?$_Tree_simple_types@V?$basic_string@DU?$char_traits@D@std@@V?$allocator@D@2@@std@@@std@@@std@@QEAAXAEAV?$allocator@U?$_Tree_node@V?$basic_string@DU?$char_traits@D@std@@V?$allocator@D@2@@std@@PEAX@std@@@1@PEAU?$_Tree_node@V?$basic_string@DU?$char_traits@D@std@@V?$allocator@D@2@@std@@PEAX@1@@Z
	??$_Erase_tree@V?$allocator@U?$_Tree_node@VExpectation@testing@@PEAX@std@@@std@@@?$_Tree_val@U?$_Tree_simple_types@VExpectation@testing@@@std@@@std@@QEAAXAEAV?$allocator@U?$_Tree_node@VExpectation@testing@@PEAX@std@@@1@PEAU?$_Tree_node@VExpectation@testing@@PEAX@1@@Z
	??$_Fill_memset@PEADD@std@@YAXPEADD_K@Z
	??$_Fill_zero_memset@PEAPEAVExpectationBase@internal@testing@@@std@@YAXPEAPEAVExpectationBase@internal@testing@@_K@Z
	??$_Fill_zero_memset@PEAPEBVExpectationBase@internal@testing@@@std@@YAXPEAPEBVExpectationBase@internal@testing@@_K@Z
	??$_Fill_zero_memset@PEA_K@std@@YAXPEA_K_K@Z
	??$_Find@K@?$_Tree@V?$_Tmap_traits@KV?$map@PEBVThreadLocalBase@internal@testing@@V?$shared_ptr@VThreadLocalValueHolderBase@internal@testing@@@std@@U?$less@PEBVThreadLocalBase@internal@testing@@@5@V?$allocator@U?$pair@QEBVThreadLocalBase@internal@testing@@V?$shared_ptr@VThreadLocalValueHolderBase@internal@testing@@@std@@@std@@@5@@std@@U?$less@K@2@V?$allocator@U?$pair@$$CBKV?$map@PEBVThreadLocalBase@internal@testing@@V?$shared_ptr@VThreadLocalValueHolderBase@internal@testing@@@std@@U?$less@PEBVThreadLocalBase@internal@testing@@@5@V?$allocator@U?$pair@QEBVThreadLocalBase@internal@testing@@V?$shared_ptr@VThreadLocalValueHolderBase@internal@testing@@@std@@@std@@@5@@std@@@std@@@2@$0A@@std@@@std@@AEBAPEAU?$_Tree_node@U?$pair@$$CBKV?$map@PEBVThreadLocalBase@internal@testing@@V?$shared_ptr@VThreadLocalValueHolderBase@internal@testing@@@std@@U?$less@PEBVThreadLocalBase@internal@testing@@@5@V?$allocator@U?$pair@QEBVThreadLocalBase@internal@testing@@V?$shared_ptr@VThreadLocalValueHolderBase@internal@testing@@@std@@@std@@@5@@std@@@std@@PEAX@1@AEBK@Z
	??$_Find@PEBVThreadLocalBase@internal@testing@@@?$_Tree@V?$_Tmap_traits@PEBVThreadLocalBase@internal@testing@@V?$shared_ptr@VThreadLocalValueHolderBase@internal@testing@@@std@@U?$less@PEBVThreadLocalBase@internal@testing@@@5@V?$allocator@U?$pair@QEBVThreadLocalBase@internal@testing@@V?$shared_ptr@VThreadLocalValueHolderBase@internal@testing@@@std@@@std@@@5@$0A@@std@@@std@@AEBAPEAU?$_Tree_node@U?$pair@QEBVThreadLocalBase@internal@testing@@V?$shared_ptr@VThreadLocalValueHolderBase@internal@testing@@@std@@@std@@PEAX@1@AEBQEBVThreadLocalBase@internal@testing@@@Z
	??$_Find@V?$basic_string@DU?$char_traits@D@std@@V?$allocator@D@2@@std@@@?$_Hash@V?$_Umap_traits@V?$basic_string@DU?$char_traits@D@std@@V?$allocator@D@2@@std@@PEAVTestSuite@testing@@V?$_Uhash_compare@V?$basic_string@DU?$char_traits@D@std@@V?$allocator@D@2@@std@@U?$hash@V?$basic_string@DU?$char_traits@D@std@@V?$allocator@D@2@@std@@@2@U?$equal_to@V?$basic_string@DU?$char_traits@D@std@@V?$allocator@D@2@@std@@@2@@2@V?$allocator@U?$pair@$$CBV?$basic_string@DU?$char_traits@D@std@@V?$allocator@D@2@@std@@PEAVTestSuite@testing@@@std@@@2@$0A@@std@@@std@@AEBAPEAU?$_List_node@U?$pair@$$CBV?$basic_string@DU?$char_traits@D@std@@V?$allocator@D@2@@std@@PEAVTestSuite@testing@@@std@@PEAX@1@AEBV?$basic_string@DU?$char_traits@D@std@@V?$allocator@D@2@@1@_K@Z
	??$_Find@V?$basic_string@DU?$char_traits@D@std@@V?$allocator@D@2@@std@@@?$_Hash@V?$_Uset_traits@V?$basic_string@DU?$char_traits@D@std@@V?$allocator@D@2@@std@@V?$_Uhash_compare@V?$basic_string@DU?$char_traits@D@std@@V?$allocator@D@2@@std@@U?$hash@V?$basic_string@DU?$char_traits@D@std@@V?$allocator@D@2@@std@@@2@U?$equal_to@V?$basic_string@DU?$char_traits@D@std@@V?$allocator@D@2@@std@@@2@@2@V?$allocator@V?$basic_string@DU?$char_traits@D@std@@V?$allocator@D@2@@std@@@2@$0A@@std@@@std@@AEBAPEAU?$_List_node@V?$basic_string@DU?$char_traits@D@std@@V?$allocator@D@2@@std@@PEAX@1@AEBV?$basic_string@DU?$char_traits@D@std@@V?$allocator@D@2@@1@_K@Z
	??$_Find@V?$basic_string@DU?$char_traits@D@std@@V?$allocator@D@2@@std@@@?$_Tree@V?$_Tmap_traits@V?$basic_string@DU?$char_traits@D@std@@V?$allocator@D@2@@std@@UTypeParameterizedTestSuiteInfo@TypeParameterizedTestSuiteRegistry@internal@testing@@U?$less@V?$basic_string@DU?$char_traits@D@std@@V?$allocator@D@2@@std@@@2@V?$allocator@U?$pair@$$CBV?$basic_string@DU?$char_traits@D@std@@V?$allocator@D@2@@std@@UTypeParameterizedTestSuiteInfo@TypeParameterizedTestSuiteRegistry@internal@testing@@@std@@@2@$0A@@std@@@std@@AEBAPEAU?$_Tree_node@U?$pair@$$CBV?$basic_string@DU?$char_traits@D@std@@V?$allocator@D@2@@std@@UTypeParameterizedTestSuiteInfo@TypeParameterizedTestSuiteRegistry@internal@testing@@@std@@PEAX@1@AEBV?$basic_string@DU?$char_traits@D@std@@V?$allocator@D@2@@1@@Z
	??$_Find@V?$basic_string@DU?$char_traits@D@std@@V?$allocator@D@2@@std@@@?$_Tree@V?$_Tmap_traits@V?$basic_string@DU?$char_traits@D@std@@V?$allocator@D@2@@std@@_KU?$less@V?$basic_string@DU?$char_traits@D@std@@V?$allocator@D@2@@std@@@2@V?$allocator@U?$pair@$$CBV?$basic_string@DU?$char_traits@D@std@@V?$allocator@D@2@@std@@_K@std@@@2@$0A@@std@@@std@@AEBAPEAU?$_Tree_node@U?$pair@$$CBV?$basic_string@DU?$char_traits@D@std@@V?$allocator@D@2@@std@@_K@std@@PEAX@1@AEBV?$basic_string@DU?$char_traits@D@std@@V?$allocator@D@2@@1@@Z
	??$_Find@V?$basic_string@DU?$char_traits@D@std@@V?$allocator@D@2@@std@@@?$_Tree@V?$_Tset_traits@V?$basic_string@DU?$char_traits@D@std@@V?$allocator@D@2@@std@@U?$less@V?$basic_string@DU?$char_traits@D@std@@V?$allocator@D@2@@std@@@2@V?$allocator@V?$basic_string@DU?$char_traits@D@std@@V?$allocator@D@2@@std@@@2@$0A@@std@@@std@@AEBAPEAU?$_Tree_node@V?$basic_string@DU?$char_traits@D@std@@V?$allocator@D@2@@std@@PEAX@1@AEBV?$basic_string@DU?$char_traits@D@std@@V?$allocator@D@2@@1@@Z
	??$_Find_hint@V?$basic_string@DU?$char_traits@D@std@@V?$allocator@D@2@@std@@@?$_Hash@V?$_Uset_traits@V?$basic_string@DU?$char_traits@D@std@@V?$allocator@D@2@@std@@V?$_Uhash_compare@V?$basic_string@DU?$char_traits@D@std@@V?$allocator@D@2@@std@@U?$hash@V?$basic_string@DU?$char_traits@D@std@@V?$allocator@D@2@@std@@@2@U?$equal_to@V?$basic_string@DU?$char_traits@D@std@@V?$allocator@D@2@@std@@@2@@2@V?$allocator@V?$basic_string@DU?$char_traits@D@std@@V?$allocator@D@2@@std@@@2@$0A@@std@@@std@@IEBA?AU?$_Hash_find_last_result@PEAU?$_List_node@V?$basic_string@DU?$char_traits@D@std@@V?$allocator@D@2@@std@@PEAX@std@@@1@QEAU?$_List_node@V?$basic_string@DU?$char_traits@D@std@@V?$allocator@D@2@@std@@PEAX@1@AEBV?$basic_string@DU?$char_traits@D@std@@V?$allocator@D@2@@1@_K@Z
	??$_Find_last@V?$basic_string@DU?$char_traits@D@std@@V?$allocator@D@2@@std@@@?$_Hash@V?$_Umap_traits@V?$basic_string@DU?$char_traits@D@std@@V?$allocator@D@2@@std@@PEAVTestSuite@testing@@V?$_Uhash_compare@V?$basic_string@DU?$char_traits@D@std@@V?$allocator@D@2@@std@@U?$hash@V?$basic_string@DU?$char_traits@D@std@@V?$allocator@D@2@@std@@@2@U?$equal_to@V?$basic_string@DU?$char_traits@D@std@@V?$allocator@D@2@@std@@@2@@2@V?$allocator@U?$pair@$$CBV?$basic_string@DU?$char_traits@D@std@@V?$allocator@D@2@@std@@PEAVTestSuite@testing@@@std@@@2@$0A@@std@@@std@@IEBA?AU?$_Hash_find_last_result@PEAU?$_List_node@U?$pair@$$CBV?$basic_string@DU?$char_traits@D@std@@V?$allocator@D@2@@std@@PEAVTestSuite@testing@@@std@@PEAX@std@@@1@AEBV?$basic_string@DU?$char_traits@D@std@@V?$allocator@D@2@@1@_K@Z
	??$_Find_last@V?$basic_string@DU?$char_traits@D@std@@V?$allocator@D@2@@std@@@?$_Hash@V?$_Uset_traits@V?$basic_string@DU?$char_traits@D@std@@V?$allocator@D@2@@std@@V?$_Uhash_compare@V?$basic_string@DU?$char_traits@D@std@@V?$allocator@D@2@@std@@U?$hash@V?$basic_string@DU?$char_traits@D@std@@V?$allocator@D@2@@std@@@2@U?$equal_to@V?$basic_string@DU?$char_traits@D@std@@V?$allocator@D@2@@std@@@2@@2@V?$allocator@V?$basic_string@DU?$char_traits@D@std@@V?$allocator@D@2@@std@@@2@$0A@@std@@@std@@IEBA?AU?$_Hash_find_last_result@PEAU?$_List_node@V?$basic_string@DU?$char_traits@D@std@@V?$allocator@D@2@@std@@PEAX@std@@@1@AEBV?$basic_string@DU?$char_traits@D@std@@V?$allocator@D@2@@1@_K@Z
	??$_Find_last@_K@?$_Hash@V?$_Umap_traits@_KW4CallReaction@internal@testing@@V?$_Uhash_compare@_KU?$hash@_K@std@@U?$equal_to@_K@2@@std@@V?$allocator@U?$pair@$$CB_KW4CallReaction@internal@testing@@@std@@@5@$0A@@std@@@std@@IEBA?AU?$_Hash_find_last_result@PEAU?$_List_node@U?$pair@$$CB_KW4CallReaction@internal@testing@@@std@@PEAX@std@@@1@AEB_K_K@Z
	??$_Find_lower_bound@K@?$_Tree@V?$_Tmap_traits@KV?$map@PEBVThreadLocalBase@internal@testing@@V?$shared_ptr@VThreadLocalValueHolderBase@internal@testing@@@std@@U?$less@PEBVThreadLocalBase@internal@testing@@@5@V?$allocator@U?$pair@QEBVThreadLocalBase@internal@testing@@V?$shared_ptr@VThreadLocalValueHolderBase@internal@testing@@@std@@@std@@@5@@std@@U?$less@K@2@V?$allocator@U?$pair@$$CBKV?$map@PEBVThreadLocalBase@internal@testing@@V?$shared_ptr@VThreadLocalValueHolderBase@internal@testing@@@std@@U?$less@PEBVThreadLocalBase@internal@testing@@@5@V?$allocator@U?$pair@QEBVThreadLocalBase@internal@testing@@V?$shared_ptr@VThreadLocalValueHolderBase@internal@testing@@@std@@@std@@@5@@std@@@std@@@2@$0A@@std@@@std@@IEBA?AU?$_Tree_find_result@PEAU?$_Tree_node@U?$pair@$$CBKV?$map@PEBVThreadLocalBase@internal@testing@@V?$shared_ptr@VThreadLocalValueHolderBase@internal@testing@@@std@@U?$less@PEBVThreadLocalBase@internal@testing@@@5@V?$allocator@U?$pair@QEBVThreadLocalBase@internal@testing@@V?$shared_ptr@VThreadLocalValueHolderBase@internal@testing@@@std@@@std@@@5@@std@@@std@@PEAX@std@@@1@AEBK@Z
	??$_Find_lower_bound@PEAVUntypedFunctionMockerBase@internal@testing@@@?$_Tree@V?$_Tset_traits@PEAVUntypedFunctionMockerBase@internal@testing@@U?$less@PEAVUntypedFunctionMockerBase@internal@testing@@@std@@V?$allocator@PEAVUntypedFunctionMockerBase@internal@testing@@@5@$0A@@std@@@std@@IEBA?AU?$_Tree_find_result@PEAU?$_Tree_node@PEAVUntypedFunctionMockerBase@internal@testing@@PEAX@std@@@1@AEBQEAVUntypedFunctionMockerBase@internal@testing@@@Z
	??$_Find_lower_bound@PEBVThreadLocalBase@internal@testing@@@?$_Tree@V?$_Tmap_traits@PEBVThreadLocalBase@internal@testing@@V?$shared_ptr@VThreadLocalValueHolderBase@internal@testing@@@std@@U?$less@PEBVThreadLocalBase@internal@testing@@@5@V?$allocator@U?$pair@QEBVThreadLocalBase@internal@testing@@V?$shared_ptr@VThreadLocalValueHolderBase@internal@testing@@@std@@@std@@@5@$0A@@std@@@std@@IEBA?AU?$_Tree_find_result@PEAU?$_Tree_node@U?$pair@QEBVThreadLocalBase@internal@testing@@V?$shared_ptr@VThreadLocalValueHolderBase@internal@testing@@@std@@@std@@PEAX@std@@@1@AEBQEBVThreadLocalBase@internal@testing@@@Z
	??$_Find_lower_bound@V?$basic_string@DU?$char_traits@D@std@@V?$allocator@D@2@@std@@@?$_Tree@V?$_Tmap_traits@V?$basic_string@DU?$char_traits@D@std@@V?$allocator@D@2@@std@@UCodeLocation@internal@testing@@U?$less@X@2@V?$allocator@U?$pair@$$CBV?$basic_string@DU?$char_traits@D@std@@V?$allocator@D@2@@std@@UCodeLocation@internal@testing@@@std@@@2@$0A@@std@@@std@@IEBA?AU?$_Tree_find_result@PEAU?$_Tree_node@U?$pair@$$CBV?$basic_string@DU?$char_traits@D@std@@V?$allocator@D@2@@std@@UCodeLocation@internal@testing@@@std@@PEAX@std@@@1@AEBV?$basic_string@DU?$char_traits@D@std@@V?$allocator@D@2@@1@@Z
	??$_Find_lower_bound@V?$basic_string@DU?$char_traits@D@std@@V?$allocator@D@2@@std@@@?$_Tree@V?$_Tmap_traits@V?$basic_string@DU?$char_traits@D@std@@V?$allocator@D@2@@std@@UTypeParameterizedTestSuiteInfo@TypeParameterizedTestSuiteRegistry@internal@testing@@U?$less@V?$basic_string@DU?$char_traits@D@std@@V?$allocator@D@2@@std@@@2@V?$allocator@U?$pair@$$CBV?$basic_string@DU?$char_traits@D@std@@V?$allocator@D@2@@std@@UTypeParameterizedTestSuiteInfo@TypeParameterizedTestSuiteRegistry@internal@testing@@@std@@@2@$0A@@std@@@std@@IEBA?AU?$_Tree_find_result@PEAU?$_Tree_node@U?$pair@$$CBV?$basic_string@DU?$char_traits@D@std@@V?$allocator@D@2@@std@@UTypeParameterizedTestSuiteInfo@TypeParameterizedTestSuiteRegistry@internal@testing@@@std@@PEAX@std@@@1@AEBV?$basic_string@DU?$char_traits@D@std@@V?$allocator@D@2@@1@@Z
	??$_Find_lower_bound@V?$basic_string@DU?$char_traits@D@std@@V?$allocator@D@2@@std@@@?$_Tree@V?$_Tmap_traits@V?$basic_string@DU?$char_traits@D@std@@V?$allocator@D@2@@std@@_KU?$less@V?$basic_string@DU?$char_traits@D@std@@V?$allocator@D@2@@std@@@2@V?$allocator@U?$pair@$$CBV?$basic_string@DU?$char_traits@D@std@@V?$allocator@D@2@@std@@_K@std@@@2@$0A@@std@@@std@@IEBA?AU?$_Tree_find_result@PEAU?$_Tree_node@U?$pair@$$CBV?$basic_string@DU?$char_traits@D@std@@V?$allocator@D@2@@std@@_K@std@@PEAX@std@@@1@AEBV?$basic_string@DU?$char_traits@D@std@@V?$allocator@D@2@@1@@Z
	??$_Find_lower_bound@V?$basic_string@DU?$char_traits@D@std@@V?$allocator@D@2@@std@@@?$_Tree@V?$_Tset_traits@V?$basic_string@DU?$char_traits@D@std@@V?$allocator@D@2@@std@@U?$less@V?$basic_string@DU?$char_traits@D@std@@V?$allocator@D@2@@std@@@2@V?$allocator@V?$basic_string@DU?$char_traits@D@std@@V?$allocator@D@2@@std@@@2@$0A@@std@@@std@@IEBA?AU?$_Tree_find_result@PEAU?$_Tree_node@V?$basic_string@DU?$char_traits@D@std@@V?$allocator@D@2@@std@@PEAX@std@@@1@AEBV?$basic_string@DU?$char_traits@D@std@@V?$allocator@D@2@@1@@Z
	??$_Find_lower_bound@VExpectation@testing@@@?$_Tree@V?$_Tset_traits@VExpectation@testing@@VLess@12@V?$allocator@VExpectation@testing@@@std@@$0A@@std@@@std@@IEBA?AU?$_Tree_find_result@PEAU?$_Tree_node@VExpectation@testing@@PEAX@std@@@1@AEBVExpectation@testing@@@Z
	??$_Find_unchecked@PEBV?$basic_string@DU?$char_traits@D@std@@V?$allocator@D@2@@std@@V12@@std@@YAPEBV?$basic_string@DU?$char_traits@D@std@@V?$allocator@D@2@@0@PEBV10@QEBV10@AEBV10@@Z
	??$_Find_vectorized@$$CBDD@std@@YAPEBDQEBD0D@Z
	??$_Fnv1a_append_value@_K@std@@YA_K_KAEB_K@Z
	??$_Free_non_head@V?$allocator@U?$_List_node@U?$pair@$$CBV?$basic_string@DU?$char_traits@D@std@@V?$allocator@D@2@@std@@PEAVTestSuite@testing@@@std@@PEAX@std@@@std@@@?$_List_node@U?$pair@$$CBV?$basic_string@DU?$char_traits@D@std@@V?$allocator@D@2@@std@@PEAVTestSuite@testing@@@std@@PEAX@std@@SAXAEAV?$allocator@U?$_List_node@U?$pair@$$CBV?$basic_string@DU?$char_traits@D@std@@V?$allocator@D@2@@std@@PEAVTestSuite@testing@@@std@@PEAX@std@@@1@PEAU01@@Z
	??$_Free_non_head@V?$allocator@U?$_List_node@U?$pair@$$CBV?$basic_string@DU?$char_traits@D@std@@V?$allocator@D@2@@std@@_K@std@@PEAX@std@@@std@@@?$_List_node@U?$pair@$$CBV?$basic_string@DU?$char_traits@D@std@@V?$allocator@D@2@@std@@_K@std@@PEAX@std@@SAXAEAV?$allocator@U?$_List_node@U?$pair@$$CBV?$basic_string@DU?$char_traits@D@std@@V?$allocator@D@2@@std@@_K@std@@PEAX@std@@@1@PEAU01@@Z
	??$_Free_non_head@V?$allocator@U?$_List_node@U?$pair@$$CB_KW4CallReaction@internal@testing@@@std@@PEAX@std@@@std@@@?$_List_node@U?$pair@$$CB_KW4CallReaction@internal@testing@@@std@@PEAX@std@@SAXAEAV?$allocator@U?$_List_node@U?$pair@$$CB_KW4CallReaction@internal@testing@@@std@@PEAX@std@@@1@PEAU01@@Z
	??$_Free_non_head@V?$allocator@U?$_List_node@U?$pair@DPEBD@std@@PEAX@std@@@std@@@?$_List_node@U?$pair@DPEBD@std@@PEAX@std@@SAXAEAV?$allocator@U?$_List_node@U?$pair@DPEBD@std@@PEAX@std@@@1@PEAU01@@Z
	??$_Free_non_head@V?$allocator@U?$_List_node@V?$basic_string@DU?$char_traits@D@std@@V?$allocator@D@2@@std@@PEAX@std@@@std@@@?$_List_node@V?$basic_string@DU?$char_traits@D@std@@V?$allocator@D@2@@std@@PEAX@std@@SAXAEAV?$allocator@U?$_List_node@V?$basic_string@DU?$char_traits@D@std@@V?$allocator@D@2@@std@@PEAX@std@@@1@PEAU01@@Z
	??$_Freenode0@V?$allocator@U?$_List_node@U?$pair@$$CBV?$basic_string@DU?$char_traits@D@std@@V?$allocator@D@2@@std@@PEAVTestSuite@testing@@@std@@PEAX@std@@@std@@@?$_List_node@U?$pair@$$CBV?$basic_string@DU?$char_traits@D@std@@V?$allocator@D@2@@std@@PEAVTestSuite@testing@@@std@@PEAX@std@@SAXAEAV?$allocator@U?$_List_node@U?$pair@$$CBV?$basic_string@DU?$char_traits@D@std@@V?$allocator@D@2@@std@@PEAVTestSuite@testing@@@std@@PEAX@std@@@1@PEAU01@@Z
	??$_Freenode0@V?$allocator@U?$_List_node@U?$pair@$$CBV?$basic_string@DU?$char_traits@D@std@@V?$allocator@D@2@@std@@_K@std@@PEAX@std@@@std@@@?$_List_node@U?$pair@$$CBV?$basic_string@DU?$char_traits@D@std@@V?$allocator@D@2@@std@@_K@std@@PEAX@std@@SAXAEAV?$allocator@U?$_List_node@U?$pair@$$CBV?$basic_string@DU?$char_traits@D@std@@V?$allocator@D@2@@std@@_K@std@@PEAX@std@@@1@PEAU01@@Z
	??$_Freenode0@V?$allocator@U?$_List_node@U?$pair@$$CB_KW4CallReaction@internal@testing@@@std@@PEAX@std@@@std@@@?$_List_node@U?$pair@$$CB_KW4CallReaction@internal@testing@@@std@@PEAX@std@@SAXAEAV?$allocator@U?$_List_node@U?$pair@$$CB_KW4CallReaction@internal@testing@@@std@@PEAX@std@@@1@PEAU01@@Z
	??$_Freenode0@V?$allocator@U?$_List_node@U?$pair@DPEBD@std@@PEAX@std@@@std@@@?$_List_node@U?$pair@DPEBD@std@@PEAX@std@@SAXAEAV?$allocator@U?$_List_node@U?$pair@DPEBD@std@@PEAX@std@@@1@PEAU01@@Z
	??$_Freenode0@V?$allocator@U?$_List_node@V?$basic_string@DU?$char_traits@D@std@@V?$allocator@D@2@@std@@PEAX@std@@@std@@@?$_List_node@V?$basic_string@DU?$char_traits@D@std@@V?$allocator@D@2@@std@@PEAX@std@@SAXAEAV?$allocator@U?$_List_node@V?$basic_string@DU?$char_traits@D@std@@V?$allocator@D@2@@std@@PEAX@std@@@1@PEAU01@@Z
	??$_Freenode0@V?$allocator@U?$_Tree_node@PEAVUntypedFunctionMockerBase@internal@testing@@PEAX@std@@@std@@@?$_Tree_node@PEAVUntypedFunctionMockerBase@internal@testing@@PEAX@std@@SAXAEAV?$allocator@U?$_Tree_node@PEAVUntypedFunctionMockerBase@internal@testing@@PEAX@std@@@1@PEAU01@@Z
	??$_Freenode0@V?$allocator@U?$_Tree_node@U?$pair@$$CBKV?$map@PEBVThreadLocalBase@internal@testing@@V?$shared_ptr@VThreadLocalValueHolderBase@internal@testing@@@std@@U?$less@PEBVThreadLocalBase@internal@testing@@@5@V?$allocator@U?$pair@QEBVThreadLocalBase@internal@testing@@V?$shared_ptr@VThreadLocalValueHolderBase@internal@testing@@@std@@@std@@@5@@std@@@std@@PEAX@std@@@std@@@?$_Tree_node@U?$pair@$$CBKV?$map@PEBVThreadLocalBase@internal@testing@@V?$shared_ptr@VThreadLocalValueHolderBase@internal@testing@@@std@@U?$less@PEBVThreadLocalBase@internal@testing@@@5@V?$allocator@U?$pair@QEBVThreadLocalBase@internal@testing@@V?$shared_ptr@VThreadLocalValueHolderBase@internal@testing@@@std@@@std@@@5@@std@@@std@@PEAX@std@@SAXAEAV?$allocator@U?$_Tree_node@U?$pair@$$CBKV?$map@PEBVThreadLocalBase@internal@testing@@V?$shared_ptr@VThreadLocalValueHolderBase@internal@testing@@@std@@U?$less@PEBVThreadLocalBase@internal@testing@@@5@V?$allocator@U?$pair@QEBVThreadLocalBase@internal@testing@@V?$shared_ptr@VThreadLocalValueHolderBase@internal@testing@@@std@@@std@@@5@@std@@@std@@PEAX@std@@@1@PEAU01@@Z
	??$_Freenode0@V?$allocator@U?$_Tree_node@U?$pair@$$CBV?$basic_string@DU?$char_traits@D@std@@V?$allocator@D@2@@std@@UTypeParameterizedTestSuiteInfo@TypeParameterizedTestSuiteRegistry@internal@testing@@@std@@PEAX@std@@@std@@@?$_Tree_node@U?$pair@$$CBV?$basic_string@DU?$char_traits@D@std@@V?$allocator@D@2@@std@@UTypeParameterizedTestSuiteInfo@TypeParameterizedTestSuiteRegistry@internal@testing@@@std@@PEAX@std@@SAXAEAV?$allocator@U?$_Tree_node@U?$pair@$$CBV?$basic_string@DU?$char_traits@D@std@@V?$allocator@D@2@@std@@UTypeParameterizedTestSuiteInfo@TypeParameterizedTestSuiteRegistry@internal@testing@@@std@@PEAX@std@@@1@PEAU01@@Z
	??$_Freenode0@V?$allocator@U?$_Tree_node@U?$pair@$$CBV?$basic_string@DU?$char_traits@D@std@@V?$allocator@D@2@@std@@_K@std@@PEAX@std@@@std@@@?$_Tree_node@U?$pair@$$CBV?$basic_string@DU?$char_traits@D@std@@V?$allocator@D@2@@std@@_K@std@@PEAX@std@@SAXAEAV?$allocator@U?$_Tree_node@U?$pair@$$CBV?$basic_string@DU?$char_traits@D@std@@V?$allocator@D@2@@std@@_K@std@@PEAX@std@@@1@PEAU01@@Z
	??$_Freenode0@V?$allocator@U?$_Tree_node@U?$pair@QEBVThreadLocalBase@internal@testing@@V?$shared_ptr@VThreadLocalValueHolderBase@internal@testing@@@std@@@std@@PEAX@std@@@std@@@?$_Tree_node@U?$pair@QEBVThreadLocalBase@internal@testing@@V?$shared_ptr@VThreadLocalValueHolderBase@internal@testing@@@std@@@std@@PEAX@std@@SAXAEAV?$allocator@U?$_Tree_node@U?$pair@QEBVThreadLocalBase@internal@testing@@V?$shared_ptr@VThreadLocalValueHolderBase@internal@testing@@@std@@@std@@PEAX@std@@@1@PEAU01@@Z
	??$_Freenode0@V?$allocator@U?$_Tree_node@V?$basic_string@DU?$char_traits@D@std@@V?$allocator@D@2@@std@@PEAX@std@@@std@@@?$_Tree_node@V?$basic_string@DU?$char_traits@D@std@@V?$allocator@D@2@@std@@PEAX@std@@SAXAEAV?$allocator@U?$_Tree_node@V?$basic_string@DU?$char_traits@D@std@@V?$allocator@D@2@@std@@PEAX@std@@@1@PEAU01@@Z
	??$_Freenode0@V?$allocator@U?$_Tree_node@VExpectation@testing@@PEAX@std@@@std@@@?$_Tree_node@VExpectation@testing@@PEAX@std@@SAXAEAV?$allocator@U?$_Tree_node@VExpectation@testing@@PEAX@std@@@1@PEAU01@@Z
	??$_Freenode@V?$allocator@U?$_List_node@U?$pair@$$CBV?$basic_string@DU?$char_traits@D@std@@V?$allocator@D@2@@std@@PEAVTestSuite@testing@@@std@@PEAX@std@@@std@@@?$_List_node@U?$pair@$$CBV?$basic_string@DU?$char_traits@D@std@@V?$allocator@D@2@@std@@PEAVTestSuite@testing@@@std@@PEAX@std@@SAXAEAV?$allocator@U?$_List_node@U?$pair@$$CBV?$basic_string@DU?$char_traits@D@std@@V?$allocator@D@2@@std@@PEAVTestSuite@testing@@@std@@PEAX@std@@@1@PEAU01@@Z
	??$_Freenode@V?$allocator@U?$_List_node@U?$pair@$$CBV?$basic_string@DU?$char_traits@D@std@@V?$allocator@D@2@@std@@_K@std@@PEAX@std@@@std@@@?$_List_node@U?$pair@$$CBV?$basic_string@DU?$char_traits@D@std@@V?$allocator@D@2@@std@@_K@std@@PEAX@std@@SAXAEAV?$allocator@U?$_List_node@U?$pair@$$CBV?$basic_string@DU?$char_traits@D@std@@V?$allocator@D@2@@std@@_K@std@@PEAX@std@@@1@PEAU01@@Z
	??$_Freenode@V?$allocator@U?$_List_node@U?$pair@$$CB_KW4CallReaction@internal@testing@@@std@@PEAX@std@@@std@@@?$_List_node@U?$pair@$$CB_KW4CallReaction@internal@testing@@@std@@PEAX@std@@SAXAEAV?$allocator@U?$_List_node@U?$pair@$$CB_KW4CallReaction@internal@testing@@@std@@PEAX@std@@@1@PEAU01@@Z
	??$_Freenode@V?$allocator@U?$_List_node@U?$pair@DPEBD@std@@PEAX@std@@@std@@@?$_List_node@U?$pair@DPEBD@std@@PEAX@std@@SAXAEAV?$allocator@U?$_List_node@U?$pair@DPEBD@std@@PEAX@std@@@1@PEAU01@@Z
	??$_Freenode@V?$allocator@U?$_List_node@V?$basic_string@DU?$char_traits@D@std@@V?$allocator@D@2@@std@@PEAX@std@@@std@@@?$_List_node@V?$basic_string@DU?$char_traits@D@std@@V?$allocator@D@2@@std@@PEAX@std@@SAXAEAV?$allocator@U?$_List_node@V?$basic_string@DU?$char_traits@D@std@@V?$allocator@D@2@@std@@PEAX@std@@@1@PEAU01@@Z
	??$_Freenode@V?$allocator@U?$_Tree_node@PEAVUntypedFunctionMockerBase@internal@testing@@PEAX@std@@@std@@@?$_Tree_node@PEAVUntypedFunctionMockerBase@internal@testing@@PEAX@std@@SAXAEAV?$allocator@U?$_Tree_node@PEAVUntypedFunctionMockerBase@internal@testing@@PEAX@std@@@1@PEAU01@@Z
	??$_Freenode@V?$allocator@U?$_Tree_node@U?$pair@$$CBKV?$map@PEBVThreadLocalBase@internal@testing@@V?$shared_ptr@VThreadLocalValueHolderBase@internal@testing@@@std@@U?$less@PEBVThreadLocalBase@internal@testing@@@5@V?$allocator@U?$pair@QEBVThreadLocalBase@internal@testing@@V?$shared_ptr@VThreadLocalValueHolderBase@internal@testing@@@std@@@std@@@5@@std@@@std@@PEAX@std@@@std@@@?$_Tree_node@U?$pair@$$CBKV?$map@PEBVThreadLocalBase@internal@testing@@V?$shared_ptr@VThreadLocalValueHolderBase@internal@testing@@@std@@U?$less@PEBVThreadLocalBase@internal@testing@@@5@V?$allocator@U?$pair@QEBVThreadLocalBase@internal@testing@@V?$shared_ptr@VThreadLocalValueHolderBase@internal@testing@@@std@@@std@@@5@@std@@@std@@PEAX@std@@SAXAEAV?$allocator@U?$_Tree_node@U?$pair@$$CBKV?$map@PEBVThreadLocalBase@internal@testing@@V?$shared_ptr@VThreadLocalValueHolderBase@internal@testing@@@std@@U?$less@PEBVThreadLocalBase@internal@testing@@@5@V?$allocator@U?$pair@QEBVThreadLocalBase@internal@testing@@V?$shared_ptr@VThreadLocalValueHolderBase@internal@testing@@@std@@@std@@@5@@std@@@std@@PEAX@std@@@1@PEAU01@@Z
	??$_Freenode@V?$allocator@U?$_Tree_node@U?$pair@$$CBV?$basic_string@DU?$char_traits@D@std@@V?$allocator@D@2@@std@@UTypeParameterizedTestSuiteInfo@TypeParameterizedTestSuiteRegistry@internal@testing@@@std@@PEAX@std@@@std@@@?$_Tree_node@U?$pair@$$CBV?$basic_string@DU?$char_traits@D@std@@V?$allocator@D@2@@std@@UTypeParameterizedTestSuiteInfo@TypeParameterizedTestSuiteRegistry@internal@testing@@@std@@PEAX@std@@SAXAEAV?$allocator@U?$_Tree_node@U?$pair@$$CBV?$basic_string@DU?$char_traits@D@std@@V?$allocator@D@2@@std@@UTypeParameterizedTestSuiteInfo@TypeParameterizedTestSuiteRegistry@internal@testing@@@std@@PEAX@std@@@1@PEAU01@@Z
	??$_Freenode@V?$allocator@U?$_Tree_node@U?$pair@$$CBV?$basic_string@DU?$char_traits@D@std@@V?$allocator@D@2@@std@@_K@std@@PEAX@std@@@std@@@?$_Tree_node@U?$pair@$$CBV?$basic_string@DU?$char_traits@D@std@@V?$allocator@D@2@@std@@_K@std@@PEAX@std@@SAXAEAV?$allocator@U?$_Tree_node@U?$pair@$$CBV?$basic_string@DU?$char_traits@D@std@@V?$allocator@D@2@@std@@_K@std@@PEAX@std@@@1@PEAU01@@Z
	??$_Freenode@V?$allocator@U?$_Tree_node@U?$pair@QEBVThreadLocalBase@internal@testing@@V?$shared_ptr@VThreadLocalValueHolderBase@internal@testing@@@std@@@std@@PEAX@std@@@std@@@?$_Tree_node@U?$pair@QEBVThreadLocalBase@internal@testing@@V?$shared_ptr@VThreadLocalValueHolderBase@internal@testing@@@std@@@std@@PEAX@std@@SAXAEAV?$allocator@U?$_Tree_node@U?$pair@QEBVThreadLocalBase@internal@testing@@V?$shared_ptr@VThreadLocalValueHolderBase@internal@testing@@@std@@@std@@PEAX@std@@@1@PEAU01@@Z
	??$_Freenode@V?$allocator@U?$_Tree_node@V?$basic_string@DU?$char_traits@D@std@@V?$allocator@D@2@@std@@PEAX@std@@@std@@@?$_Tree_node@V?$basic_string@DU?$char_traits@D@std@@V?$allocator@D@2@@std@@PEAX@std@@SAXAEAV?$allocator@U?$_Tree_node@V?$basic_string@DU?$char_traits@D@std@@V?$allocator@D@2@@std@@PEAX@std@@@1@PEAU01@@Z
	??$_Freenode@V?$allocator@U?$_Tree_node@VExpectation@testing@@PEAX@std@@@std@@@?$_Tree_node@VExpectation@testing@@PEAX@std@@SAXAEAV?$allocator@U?$_Tree_node@VExpectation@testing@@PEAX@std@@@1@PEAU01@@Z
	??$_Get_index@$0A@@id@locale@std@@QEAA_KXZ
	??$_Get_size_of_n@$00@std@@YA_K_K@Z
	??$_Get_size_of_n@$01@std@@YA_K_K@Z
	??$_Get_size_of_n@$03@std@@YA_K_K@Z
	??$_Get_size_of_n@$07@std@@YA_K_K@Z
	??$_Get_size_of_n@$0BA@@std@@YA_K_K@Z
	??$_Get_size_of_n@$0BI@@std@@YA_K_K@Z
	??$_Get_size_of_n@$0CA@@std@@YA_K_K@Z
	??$_Get_size_of_n@$0CI@@std@@YA_K_K@Z
	??$_Get_size_of_n@$0DA@@std@@YA_K_K@Z
	??$_Get_size_of_n@$0DI@@std@@YA_K_K@Z
	??$_Get_size_of_n@$0EA@@std@@YA_K_K@Z
	??$_Get_size_of_n@$0EI@@std@@YA_K_K@Z
	??$_Get_size_of_n@$0HA@@std@@YA_K_K@Z
	??$_Get_size_of_n@$0JA@@std@@YA_K_K@Z
	??$_Get_temporary_buffer@PEAVTestInfo@testing@@@std@@YA?AU?$pair@PEAPEAVTestInfo@testing@@_J@0@_J@Z
	??$_Get_unwrapped@AEAPEAPEAVTestInfo@testing@@@std@@YA?A_TAEAPEAPEAVTestInfo@testing@@@Z
	??$_Get_unwrapped@AEAPEBD@std@@YA?A_TAEAPEBD@Z
	??$_Get_unwrapped@AEAPEBQEBD@std@@YA?A_TAEAPEBQEBD@Z
	??$_Get_unwrapped@AEAV?$_Tree_unchecked_const_iterator@V?$_Tree_val@U?$_Tree_simple_types@PEAVUntypedFunctionMockerBase@internal@testing@@@std@@@std@@U_Iterator_base0@2@@std@@@std@@YA?A_TAEAV?$_Tree_unchecked_const_iterator@V?$_Tree_val@U?$_Tree_simple_types@PEAVUntypedFunctionMockerBase@internal@testing@@@std@@@std@@U_Iterator_base0@2@@0@@Z
	??$_Get_unwrapped@AEAV?$_Vector_const_iterator@V?$_Vector_val@U?$_Simple_types@PEAVEnvironment@testing@@@std@@@std@@@std@@@std@@YA?A_TAEAV?$_Vector_const_iterator@V?$_Vector_val@U?$_Simple_types@PEAVEnvironment@testing@@@std@@@std@@@0@@Z
	??$_Get_unwrapped@AEAV?$_Vector_const_iterator@V?$_Vector_val@U?$_Simple_types@PEAVTestEventListener@testing@@@std@@@std@@@std@@@std@@YA?A_TAEAV?$_Vector_const_iterator@V?$_Vector_val@U?$_Simple_types@PEAVTestEventListener@testing@@@std@@@std@@@0@@Z
	??$_Get_unwrapped@AEAV?$_Vector_const_iterator@V?$_Vector_val@U?$_Simple_types@PEAVTestInfo@testing@@@std@@@std@@@std@@@std@@YA?A_TAEAV?$_Vector_const_iterator@V?$_Vector_val@U?$_Simple_types@PEAVTestInfo@testing@@@std@@@std@@@0@@Z
	??$_Get_unwrapped@AEAV?$_Vector_const_iterator@V?$_Vector_val@U?$_Simple_types@PEAVTestSuite@testing@@@std@@@std@@@std@@@std@@YA?A_TAEAV?$_Vector_const_iterator@V?$_Vector_val@U?$_Simple_types@PEAVTestSuite@testing@@@std@@@std@@@0@@Z
	??$_Get_unwrapped@AEAV?$_Vector_const_iterator@V?$_Vector_val@U?$_Simple_types@V?$basic_string@DU?$char_traits@D@std@@V?$allocator@D@2@@std@@@std@@@std@@@std@@@std@@YA?A_TAEAV?$_Vector_const_iterator@V?$_Vector_val@U?$_Simple_types@V?$basic_string@DU?$char_traits@D@std@@V?$allocator@D@2@@std@@@std@@@std@@@0@@Z
	??$_Get_unwrapped@AEAV?$_Vector_iterator@V?$_Vector_val@U?$_Simple_types@V?$basic_string@DU?$char_traits@D@std@@V?$allocator@D@2@@std@@@std@@@std@@@std@@@std@@YA?A_TAEAV?$_Vector_iterator@V?$_Vector_val@U?$_Simple_types@V?$basic_string@DU?$char_traits@D@std@@V?$allocator@D@2@@std@@@std@@@std@@@0@@Z
	??$_Get_unwrapped@AEAV?$_Vector_iterator@V?$_Vector_val@U?$_Simple_types@VTestProperty@testing@@@std@@@std@@@std@@@std@@YA?A_TAEAV?$_Vector_iterator@V?$_Vector_val@U?$_Simple_types@VTestProperty@testing@@@std@@@std@@@0@@Z
	??$_Get_unwrapped@AEAV?$reverse_iterator@V?$_Vector_iterator@V?$_Vector_val@U?$_Simple_types@PEAVEnvironment@testing@@@std@@@std@@@std@@@std@@@std@@YA?A_TAEAV?$reverse_iterator@V?$_Vector_iterator@V?$_Vector_val@U?$_Simple_types@PEAVEnvironment@testing@@@std@@@std@@@std@@@0@@Z
	??$_Get_unwrapped@AEBQEAD@std@@YA?A_TAEBQEAD@Z
	??$_Get_unwrapped@AEBQEAH@std@@YA?A_TAEBQEAH@Z
	??$_Get_unwrapped@AEBQEAPEAVEnvironment@testing@@@std@@YA?A_TAEBQEAPEAVEnvironment@testing@@@Z
	??$_Get_unwrapped@AEBQEAPEAVExpectationBase@internal@testing@@@std@@YA?A_TAEBQEAPEAVExpectationBase@internal@testing@@@Z
	??$_Get_unwrapped@AEBQEAPEAVTestEventListener@testing@@@std@@YA?A_TAEBQEAPEAVTestEventListener@testing@@@Z
	??$_Get_unwrapped@AEBQEAPEAVTestInfo@testing@@@std@@YA?A_TAEBQEAPEAVTestInfo@testing@@@Z
	??$_Get_unwrapped@AEBQEAPEAVTestSuite@testing@@@std@@YA?A_TAEBQEAPEAVTestSuite@testing@@@Z
	??$_Get_unwrapped@AEBQEAPEBVExpectationBase@internal@testing@@@std@@YA?A_TAEBQEAPEBVExpectationBase@internal@testing@@@Z
	??$_Get_unwrapped@AEBQEAU?$pair@_K_K@std@@@std@@YA?A_TAEBQEAU?$pair@_K_K@0@@Z
	??$_Get_unwrapped@AEBQEAUTraceInfo@internal@testing@@@std@@YA?A_TAEBQEAUTraceInfo@internal@testing@@@Z
	??$_Get_unwrapped@AEBQEAV?$_List_unchecked_const_iterator@V?$_List_val@U?$_List_simple_types@V?$basic_string@DU?$char_traits@D@std@@V?$allocator@D@2@@std@@@std@@@std@@U_Iterator_base0@2@@std@@@std@@YA?A_TAEBQEAV?$_List_unchecked_const_iterator@V?$_List_val@U?$_List_simple_types@V?$basic_string@DU?$char_traits@D@std@@V?$allocator@D@2@@std@@@std@@@std@@U_Iterator_base0@2@@0@@Z
	??$_Get_unwrapped@AEBQEAV?$_List_unchecked_iterator@V?$_List_val@U?$_List_simple_types@U?$pair@$$CBV?$basic_string@DU?$char_traits@D@std@@V?$allocator@D@2@@std@@PEAVTestSuite@testing@@@std@@@std@@@std@@@std@@@std@@YA?A_TAEBQEAV?$_List_unchecked_iterator@V?$_List_val@U?$_List_simple_types@U?$pair@$$CBV?$basic_string@DU?$char_traits@D@std@@V?$allocator@D@2@@std@@PEAVTestSuite@testing@@@std@@@std@@@std@@@0@@Z
	??$_Get_unwrapped@AEBQEAV?$_List_unchecked_iterator@V?$_List_val@U?$_List_simple_types@U?$pair@$$CBV?$basic_string@DU?$char_traits@D@std@@V?$allocator@D@2@@std@@_K@std@@@std@@@std@@@std@@@std@@YA?A_TAEBQEAV?$_List_unchecked_iterator@V?$_List_val@U?$_List_simple_types@U?$pair@$$CBV?$basic_string@DU?$char_traits@D@std@@V?$allocator@D@2@@std@@_K@std@@@std@@@std@@@0@@Z
	??$_Get_unwrapped@AEBQEAV?$_List_unchecked_iterator@V?$_List_val@U?$_List_simple_types@U?$pair@$$CB_KW4CallReaction@internal@testing@@@std@@@std@@@std@@@std@@@std@@YA?A_TAEBQEAV?$_List_unchecked_iterator@V?$_List_val@U?$_List_simple_types@U?$pair@$$CB_KW4CallReaction@internal@testing@@@std@@@std@@@std@@@0@@Z
	??$_Get_unwrapped@AEBQEAV?$basic_string@DU?$char_traits@D@std@@V?$allocator@D@2@@std@@@std@@YA?A_TAEBQEAV?$basic_string@DU?$char_traits@D@std@@V?$allocator@D@2@@0@@Z
	??$_Get_unwrapped@AEBQEAV?$shared_ptr@VThreadLocalValueHolderBase@internal@testing@@@std@@@std@@YA?A_TAEBQEAV?$shared_ptr@VThreadLocalValueHolderBase@internal@testing@@@0@@Z
	??$_Get_unwrapped@AEBQEAVTestPartResult@testing@@@std@@YA?A_TAEBQEAVTestPartResult@testing@@@Z
	??$_Get_unwrapped@AEBQEAVTestProperty@testing@@@std@@YA?A_TAEBQEAVTestProperty@testing@@@Z
	??$_Get_unwrapped@AEBQEAW4EditType@edit_distance@internal@testing@@@std@@YA?A_TAEBQEAW4EditType@edit_distance@internal@testing@@@Z
	??$_Get_unwrapped@AEBQEA_K@std@@YA?A_TAEBQEA_K@Z
	??$_Get_unwrapped@AEBV?$_String_const_iterator@V?$_String_val@U?$_Simple_types@D@std@@@std@@@std@@@std@@YA?A_TAEBV?$_String_const_iterator@V?$_String_val@U?$_Simple_types@D@std@@@std@@@0@@Z
	??$_Get_unwrapped@AEBV?$_Vector_const_iterator@V?$_Vector_val@U?$_Simple_types@V?$basic_string@DU?$char_traits@D@std@@V?$allocator@D@2@@std@@@std@@@std@@@std@@@std@@YA?A_TAEBV?$_Vector_const_iterator@V?$_Vector_val@U?$_Simple_types@V?$basic_string@DU?$char_traits@D@std@@V?$allocator@D@2@@std@@@std@@@std@@@0@@Z
	??$_Get_unwrapped@AEBV?$_Vector_iterator@V?$_Vector_val@U?$_Simple_types@PEAVTestInfo@testing@@@std@@@std@@@std@@@std@@YA?A_TAEBV?$_Vector_iterator@V?$_Vector_val@U?$_Simple_types@PEAVTestInfo@testing@@@std@@@std@@@0@@Z
	??$_Get_unwrapped@AEBV?$_Vector_iterator@V?$_Vector_val@U?$_Simple_types@V?$basic_string@DU?$char_traits@D@std@@V?$allocator@D@2@@std@@@std@@@std@@@std@@@std@@YA?A_TAEBV?$_Vector_iterator@V?$_Vector_val@U?$_Simple_types@V?$basic_string@DU?$char_traits@D@std@@V?$allocator@D@2@@std@@@std@@@std@@@0@@Z
	??$_Get_unwrapped@AEBV?$_Vector_iterator@V?$_Vector_val@U?$_Simple_types@VTestProperty@testing@@@std@@@std@@@std@@@std@@YA?A_TAEBV?$_Vector_iterator@V?$_Vector_val@U?$_Simple_types@VTestProperty@testing@@@std@@@std@@@0@@Z
	??$_Get_unwrapped@AEBV?$_Vector_iterator@V?$_Vector_val@U?$_Simple_types@W4EditType@edit_distance@internal@testing@@@std@@@std@@@std@@@std@@YA?A_TAEBV?$_Vector_iterator@V?$_Vector_val@U?$_Simple_types@W4EditType@edit_distance@internal@testing@@@std@@@std@@@0@@Z
	??$_Get_unwrapped@PEAN@std@@YA?A_T$$QEAPEAN@Z
	??$_Get_unwrapped@PEAV?$basic_string@DU?$char_traits@D@std@@V?$allocator@D@2@@std@@@std@@YA?A_T$$QEAPEAV?$basic_string@DU?$char_traits@D@std@@V?$allocator@D@2@@0@@Z
	??$_Get_unwrapped@PEAW4EditType@edit_distance@internal@testing@@@std@@YA?A_T$$QEAPEAW4EditType@edit_distance@internal@testing@@@Z
	??$_Get_unwrapped@PEBQEBD@std@@YA?A_T$$QEAPEBQEBD@Z
	??$_Get_unwrapped@PEBV?$basic_string@DU?$char_traits@D@std@@V?$allocator@D@2@@std@@@std@@YA?A_T$$QEAPEBV?$basic_string@DU?$char_traits@D@std@@V?$allocator@D@2@@0@@Z
	??$_Get_unwrapped_n@AEAV?$insert_iterator@V?$unordered_set@V?$basic_string@DU?$char_traits@D@std@@V?$allocator@D@2@@std@@U?$hash@V?$basic_string@DU?$char_traits@D@std@@V?$allocator@D@2@@std@@@2@U?$equal_to@V?$basic_string@DU?$char_traits@D@std@@V?$allocator@D@2@@std@@@2@V?$allocator@V?$basic_string@DU?$char_traits@D@std@@V?$allocator@D@2@@std@@@2@@std@@@std@@_J@std@@YA?A_TAEAV?$insert_iterator@V?$unordered_set@V?$basic_string@DU?$char_traits@D@std@@V?$allocator@D@2@@std@@U?$hash@V?$basic_string@DU?$char_traits@D@std@@V?$allocator@D@2@@std@@@2@U?$equal_to@V?$basic_string@DU?$char_traits@D@std@@V?$allocator@D@2@@std@@@2@V?$allocator@V?$basic_string@DU?$char_traits@D@std@@V?$allocator@D@2@@std@@@2@@std@@@0@_J@Z
	??$_Get_unwrapped_n@AEAV?$insert_iterator@V?$vector@V?$basic_string@DU?$char_traits@D@std@@V?$allocator@D@2@@std@@V?$allocator@V?$basic_string@DU?$char_traits@D@std@@V?$allocator@D@2@@std@@@2@@std@@@std@@_J@std@@YA?A_TAEAV?$insert_iterator@V?$vector@V?$basic_string@DU?$char_traits@D@std@@V?$allocator@D@2@@std@@V?$allocator@V?$basic_string@DU?$char_traits@D@std@@V?$allocator@D@2@@std@@@2@@std@@@0@_J@Z
	??$_Getvals@_W@?$time_get@DV?$istreambuf_iterator@DU?$char_traits@D@std@@@std@@@std@@IEAAX_WAEBV_Locinfo@1@@Z
	??$_Getvals@_W@?$time_get@_WV?$istreambuf_iterator@_WU?$char_traits@_W@std@@@std@@@std@@IEAAX_WAEBV_Locinfo@1@@Z
	??$_Hash_array_representation@D@std@@YA_KQEBD_K@Z
	??$_Hash_representation@_K@std@@YA_KAEB_K@Z
	??$_Idl_distance@V?$_Vector_iterator@V?$_Vector_val@U?$_Simple_types@V?$basic_string@DU?$char_traits@D@std@@V?$allocator@D@2@@std@@@std@@@std@@@std@@PEAV?$basic_string@DU?$char_traits@D@std@@V?$allocator@D@2@@2@@std@@YA?A_PAEBQEAV?$basic_string@DU?$char_traits@D@std@@V?$allocator@D@2@@0@0@Z
	??$_Insert_string@DU?$char_traits@D@std@@_K@std@@YAAEAV?$basic_ostream@DU?$char_traits@D@std@@@0@AEAV10@QEBD_K@Z
	??$_Is_all_bits_zero@PEAVExpectationBase@internal@testing@@@std@@YA_NAEBQEAVExpectationBase@internal@testing@@@Z
	??$_Is_all_bits_zero@PEBVExpectationBase@internal@testing@@@std@@YA_NAEBQEBVExpectationBase@internal@testing@@@Z
	??$_Is_all_bits_zero@_K@std@@YA_NAEB_K@Z
	??$_Kfn@$$CBKV?$map@PEBVThreadLocalBase@internal@testing@@V?$shared_ptr@VThreadLocalValueHolderBase@internal@testing@@@std@@U?$less@PEBVThreadLocalBase@internal@testing@@@5@V?$allocator@U?$pair@QEBVThreadLocalBase@internal@testing@@V?$shared_ptr@VThreadLocalValueHolderBase@internal@testing@@@std@@@std@@@5@@std@@@?$_Tmap_traits@KV?$map@PEBVThreadLocalBase@internal@testing@@V?$shared_ptr@VThreadLocalValueHolderBase@internal@testing@@@std@@U?$less@PEBVThreadLocalBase@internal@testing@@@5@V?$allocator@U?$pair@QEBVThreadLocalBase@internal@testing@@V?$shared_ptr@VThreadLocalValueHolderBase@internal@testing@@@std@@@std@@@5@@std@@U?$less@K@2@V?$allocator@U?$pair@$$CBKV?$map@PEBVThreadLocalBase@internal@testing@@V?$shared_ptr@VThreadLocalValueHolderBase@internal@testing@@@std@@U?$less@PEBVThreadLocalBase@internal@testing@@@5@V?$allocator@U?$pair@QEBVThreadLocalBase@internal@testing@@V?$shared_ptr@VThreadLocalValueHolderBase@internal@testing@@@std@@@std@@@5@@std@@@std@@@2@$0A@@std@@SAAEBKAEBU?$pair@$$CBKV?$map@PEBVThreadLocalBase@internal@testing@@V?$shared_ptr@VThreadLocalValueHolderBase@internal@testing@@@std@@U?$less@PEBVThreadLocalBase@internal@testing@@@5@V?$allocator@U?$pair@QEBVThreadLocalBase@internal@testing@@V?$shared_ptr@VThreadLocalValueHolderBase@internal@testing@@@std@@@std@@@5@@std@@@1@@Z
	??$_Kfn@$$CBV?$basic_string@DU?$char_traits@D@std@@V?$allocator@D@2@@std@@PEAVTestSuite@testing@@@?$_Umap_traits@V?$basic_string@DU?$char_traits@D@std@@V?$allocator@D@2@@std@@PEAVTestSuite@testing@@V?$_Uhash_compare@V?$basic_string@DU?$char_traits@D@std@@V?$allocator@D@2@@std@@U?$hash@V?$basic_string@DU?$char_traits@D@std@@V?$allocator@D@2@@std@@@2@U?$equal_to@V?$basic_string@DU?$char_traits@D@std@@V?$allocator@D@2@@std@@@2@@2@V?$allocator@U?$pair@$$CBV?$basic_string@DU?$char_traits@D@std@@V?$allocator@D@2@@std@@PEAVTestSuite@testing@@@std@@@2@$0A@@std@@SAAEBV?$basic_string@DU?$char_traits@D@std@@V?$allocator@D@2@@1@AEBU?$pair@$$CBV?$basic_string@DU?$char_traits@D@std@@V?$allocator@D@2@@std@@PEAVTestSuite@testing@@@1@@Z
	??$_Kfn@$$CBV?$basic_string@DU?$char_traits@D@std@@V?$allocator@D@2@@std@@UCodeLocation@internal@testing@@@?$_Tmap_traits@V?$basic_string@DU?$char_traits@D@std@@V?$allocator@D@2@@std@@UCodeLocation@internal@testing@@U?$less@X@2@V?$allocator@U?$pair@$$CBV?$basic_string@DU?$char_traits@D@std@@V?$allocator@D@2@@std@@UCodeLocation@internal@testing@@@std@@@2@$0A@@std@@SAAEBV?$basic_string@DU?$char_traits@D@std@@V?$allocator@D@2@@1@AEBU?$pair@$$CBV?$basic_string@DU?$char_traits@D@std@@V?$allocator@D@2@@std@@UCodeLocation@internal@testing@@@1@@Z
	??$_Kfn@$$CBV?$basic_string@DU?$char_traits@D@std@@V?$allocator@D@2@@std@@UTypeParameterizedTestSuiteInfo@TypeParameterizedTestSuiteRegistry@internal@testing@@@?$_Tmap_traits@V?$basic_string@DU?$char_traits@D@std@@V?$allocator@D@2@@std@@UTypeParameterizedTestSuiteInfo@TypeParameterizedTestSuiteRegistry@internal@testing@@U?$less@V?$basic_string@DU?$char_traits@D@std@@V?$allocator@D@2@@std@@@2@V?$allocator@U?$pair@$$CBV?$basic_string@DU?$char_traits@D@std@@V?$allocator@D@2@@std@@UTypeParameterizedTestSuiteInfo@TypeParameterizedTestSuiteRegistry@internal@testing@@@std@@@2@$0A@@std@@SAAEBV?$basic_string@DU?$char_traits@D@std@@V?$allocator@D@2@@1@AEBU?$pair@$$CBV?$basic_string@DU?$char_traits@D@std@@V?$allocator@D@2@@std@@UTypeParameterizedTestSuiteInfo@TypeParameterizedTestSuiteRegistry@internal@testing@@@1@@Z
	??$_Kfn@$$CBV?$basic_string@DU?$char_traits@D@std@@V?$allocator@D@2@@std@@_K@?$_Tmap_traits@V?$basic_string@DU?$char_traits@D@std@@V?$allocator@D@2@@std@@_KU?$less@V?$basic_string@DU?$char_traits@D@std@@V?$allocator@D@2@@std@@@2@V?$allocator@U?$pair@$$CBV?$basic_string@DU?$char_traits@D@std@@V?$allocator@D@2@@std@@_K@std@@@2@$0A@@std@@SAAEBV?$basic_string@DU?$char_traits@D@std@@V?$allocator@D@2@@1@AEBU?$pair@$$CBV?$basic_string@DU?$char_traits@D@std@@V?$allocator@D@2@@std@@_K@1@@Z
	??$_Kfn@$$CB_KW4CallReaction@internal@testing@@@?$_Umap_traits@_KW4CallReaction@internal@testing@@V?$_Uhash_compare@_KU?$hash@_K@std@@U?$equal_to@_K@2@@std@@V?$allocator@U?$pair@$$CB_KW4CallReaction@internal@testing@@@std@@@5@$0A@@std@@SAAEB_KAEBU?$pair@$$CB_KW4CallReaction@internal@testing@@@1@@Z
	??$_Kfn@QEBVThreadLocalBase@internal@testing@@V?$shared_ptr@VThreadLocalValueHolderBase@internal@testing@@@std@@@?$_Tmap_traits@PEBVThreadLocalBase@internal@testing@@V?$shared_ptr@VThreadLocalValueHolderBase@internal@testing@@@std@@U?$less@PEBVThreadLocalBase@internal@testing@@@5@V?$allocator@U?$pair@QEBVThreadLocalBase@internal@testing@@V?$shared_ptr@VThreadLocalValueHolderBase@internal@testing@@@std@@@std@@@5@$0A@@std@@SAAEBQEBVThreadLocalBase@internal@testing@@AEBU?$pair@QEBVThreadLocalBase@internal@testing@@V?$shared_ptr@VThreadLocalValueHolderBase@internal@testing@@@std@@@1@@Z
	??$_Lower_bound_duplicate@K@?$_Tree@V?$_Tmap_traits@KV?$map@PEBVThreadLocalBase@internal@testing@@V?$shared_ptr@VThreadLocalValueHolderBase@internal@testing@@@std@@U?$less@PEBVThreadLocalBase@internal@testing@@@5@V?$allocator@U?$pair@QEBVThreadLocalBase@internal@testing@@V?$shared_ptr@VThreadLocalValueHolderBase@internal@testing@@@std@@@std@@@5@@std@@U?$less@K@2@V?$allocator@U?$pair@$$CBKV?$map@PEBVThreadLocalBase@internal@testing@@V?$shared_ptr@VThreadLocalValueHolderBase@internal@testing@@@std@@U?$less@PEBVThreadLocalBase@internal@testing@@@5@V?$allocator@U?$pair@QEBVThreadLocalBase@internal@testing@@V?$shared_ptr@VThreadLocalValueHolderBase@internal@testing@@@std@@@std@@@5@@std@@@std@@@2@$0A@@std@@@std@@IEBA_NQEAU?$_Tree_node@U?$pair@$$CBKV?$map@PEBVThreadLocalBase@internal@testing@@V?$shared_ptr@VThreadLocalValueHolderBase@internal@testing@@@std@@U?$less@PEBVThreadLocalBase@internal@testing@@@5@V?$allocator@U?$pair@QEBVThreadLocalBase@internal@testing@@V?$shared_ptr@VThreadLocalValueHolderBase@internal@testing@@@std@@@std@@@5@@std@@@std@@PEAX@1@AEBK@Z
	??$_Lower_bound_duplicate@PEAVUntypedFunctionMockerBase@internal@testing@@@?$_Tree@V?$_Tset_traits@PEAVUntypedFunctionMockerBase@internal@testing@@U?$less@PEAVUntypedFunctionMockerBase@internal@testing@@@std@@V?$allocator@PEAVUntypedFunctionMockerBase@internal@testing@@@5@$0A@@std@@@std@@IEBA_NQEAU?$_Tree_node@PEAVUntypedFunctionMockerBase@internal@testing@@PEAX@1@AEBQEAVUntypedFunctionMockerBase@internal@testing@@@Z
	??$_Lower_bound_duplicate@PEBVThreadLocalBase@internal@testing@@@?$_Tree@V?$_Tmap_traits@PEBVThreadLocalBase@internal@testing@@V?$shared_ptr@VThreadLocalValueHolderBase@internal@testing@@@std@@U?$less@PEBVThreadLocalBase@internal@testing@@@5@V?$allocator@U?$pair@QEBVThreadLocalBase@internal@testing@@V?$shared_ptr@VThreadLocalValueHolderBase@internal@testing@@@std@@@std@@@5@$0A@@std@@@std@@IEBA_NQEAU?$_Tree_node@U?$pair@QEBVThreadLocalBase@internal@testing@@V?$shared_ptr@VThreadLocalValueHolderBase@internal@testing@@@std@@@std@@PEAX@1@AEBQEBVThreadLocalBase@internal@testing@@@Z
	??$_Lower_bound_duplicate@V?$basic_string@DU?$char_traits@D@std@@V?$allocator@D@2@@std@@@?$_Tree@V?$_Tmap_traits@V?$basic_string@DU?$char_traits@D@std@@V?$allocator@D@2@@std@@UCodeLocation@internal@testing@@U?$less@X@2@V?$allocator@U?$pair@$$CBV?$basic_string@DU?$char_traits@D@std@@V?$allocator@D@2@@std@@UCodeLocation@internal@testing@@@std@@@2@$0A@@std@@@std@@IEBA_NQEAU?$_Tree_node@U?$pair@$$CBV?$basic_string@DU?$char_traits@D@std@@V?$allocator@D@2@@std@@UCodeLocation@internal@testing@@@std@@PEAX@1@AEBV?$basic_string@DU?$char_traits@D@std@@V?$allocator@D@2@@1@@Z
	??$_Lower_bound_duplicate@V?$basic_string@DU?$char_traits@D@std@@V?$allocator@D@2@@std@@@?$_Tree@V?$_Tmap_traits@V?$basic_string@DU?$char_traits@D@std@@V?$allocator@D@2@@std@@UTypeParameterizedTestSuiteInfo@TypeParameterizedTestSuiteRegistry@internal@testing@@U?$less@V?$basic_string@DU?$char_traits@D@std@@V?$allocator@D@2@@std@@@2@V?$allocator@U?$pair@$$CBV?$basic_string@DU?$char_traits@D@std@@V?$allocator@D@2@@std@@UTypeParameterizedTestSuiteInfo@TypeParameterizedTestSuiteRegistry@internal@testing@@@std@@@2@$0A@@std@@@std@@IEBA_NQEAU?$_Tree_node@U?$pair@$$CBV?$basic_string@DU?$char_traits@D@std@@V?$allocator@D@2@@std@@UTypeParameterizedTestSuiteInfo@TypeParameterizedTestSuiteRegistry@internal@testing@@@std@@PEAX@1@AEBV?$basic_string@DU?$char_traits@D@std@@V?$allocator@D@2@@1@@Z
	??$_Lower_bound_duplicate@V?$basic_string@DU?$char_traits@D@std@@V?$allocator@D@2@@std@@@?$_Tree@V?$_Tmap_traits@V?$basic_string@DU?$char_traits@D@std@@V?$allocator@D@2@@std@@_KU?$less@V?$basic_string@DU?$char_traits@D@std@@V?$allocator@D@2@@std@@@2@V?$allocator@U?$pair@$$CBV?$basic_string@DU?$char_traits@D@std@@V?$allocator@D@2@@std@@_K@std@@@2@$0A@@std@@@std@@IEBA_NQEAU?$_Tree_node@U?$pair@$$CBV?$basic_string@DU?$char_traits@D@std@@V?$allocator@D@2@@std@@_K@std@@PEAX@1@AEBV?$basic_string@DU?$char_traits@D@std@@V?$allocator@D@2@@1@@Z
	??$_Lower_bound_duplicate@V?$basic_string@DU?$char_traits@D@std@@V?$allocator@D@2@@std@@@?$_Tree@V?$_Tset_traits@V?$basic_string@DU?$char_traits@D@std@@V?$allocator@D@2@@std@@U?$less@V?$basic_string@DU?$char_traits@D@std@@V?$allocator@D@2@@std@@@2@V?$allocator@V?$basic_string@DU?$char_traits@D@std@@V?$allocator@D@2@@std@@@2@$0A@@std@@@std@@IEBA_NQEAU?$_Tree_node@V?$basic_string@DU?$char_traits@D@std@@V?$allocator@D@2@@std@@PEAX@1@AEBV?$basic_string@DU?$char_traits@D@std@@V?$allocator@D@2@@1@@Z
	??$_Lower_bound_duplicate@VExpectation@testing@@@?$_Tree@V?$_Tset_traits@VExpectation@testing@@VLess@12@V?$allocator@VExpectation@testing@@@std@@$0A@@std@@@std@@IEBA_NQEAU?$_Tree_node@VExpectation@testing@@PEAX@1@AEBVExpectation@testing@@@Z
	??$_Max_limit@_J@std@@YA_JXZ
	??$_Move_backward_unchecked@PEAPEAVTestInfo@testing@@PEAPEAV12@@std@@YAPEAPEAVTestInfo@testing@@PEAPEAV12@00@Z
	??$_Move_backward_unchecked@PEAPEAVTestSuite@testing@@PEAPEAV12@@std@@YAPEAPEAVTestSuite@testing@@PEAPEAV12@00@Z
	??$_Move_backward_unchecked@PEAV?$basic_string@DU?$char_traits@D@std@@V?$allocator@D@2@@std@@PEAV12@@std@@YAPEAV?$basic_string@DU?$char_traits@D@std@@V?$allocator@D@2@@0@PEAV10@00@Z
	??$_Move_construct_from@VThreadLocalValueHolderBase@internal@testing@@@?$_Ptr_base@VThreadLocalValueHolderBase@internal@testing@@@std@@IEAAX$$QEAV01@@Z
	??$_Move_unchecked@PEAPEAVTestEventListener@testing@@PEAPEAV12@@std@@YAPEAPEAVTestEventListener@testing@@PEAPEAV12@00@Z
	??$_Move_unchecked@PEAPEAVTestInfo@testing@@PEAPEAV12@@std@@YAPEAPEAVTestInfo@testing@@PEAPEAV12@00@Z
	??$_Move_unchecked@PEAV?$basic_string@DU?$char_traits@D@std@@V?$allocator@D@2@@std@@V?$insert_iterator@V?$unordered_set@V?$basic_string@DU?$char_traits@D@std@@V?$allocator@D@2@@std@@U?$hash@V?$basic_string@DU?$char_traits@D@std@@V?$allocator@D@2@@std@@@2@U?$equal_to@V?$basic_string@DU?$char_traits@D@std@@V?$allocator@D@2@@std@@@2@V?$allocator@V?$basic_string@DU?$char_traits@D@std@@V?$allocator@D@2@@std@@@2@@std@@@2@@std@@YA?AV?$insert_iterator@V?$unordered_set@V?$basic_string@DU?$char_traits@D@std@@V?$allocator@D@2@@std@@U?$hash@V?$basic_string@DU?$char_traits@D@std@@V?$allocator@D@2@@std@@@2@U?$equal_to@V?$basic_string@DU?$char_traits@D@std@@V?$allocator@D@2@@std@@@2@V?$allocator@V?$basic_string@DU?$char_traits@D@std@@V?$allocator@D@2@@std@@@2@@std@@@0@PEAV?$basic_string@DU?$char_traits@D@std@@V?$allocator@D@2@@0@0V10@@Z
	??$_Move_unchecked@PEAV?$basic_string@DU?$char_traits@D@std@@V?$allocator@D@2@@std@@V?$insert_iterator@V?$vector@V?$basic_string@DU?$char_traits@D@std@@V?$allocator@D@2@@std@@V?$allocator@V?$basic_string@DU?$char_traits@D@std@@V?$allocator@D@2@@std@@@2@@std@@@2@@std@@YA?AV?$insert_iterator@V?$vector@V?$basic_string@DU?$char_traits@D@std@@V?$allocator@D@2@@std@@V?$allocator@V?$basic_string@DU?$char_traits@D@std@@V?$allocator@D@2@@std@@@2@@std@@@0@PEAV?$basic_string@DU?$char_traits@D@std@@V?$allocator@D@2@@0@0V10@@Z
	??$_Next_iter@PEAPEAVTestInfo@testing@@@std@@YAPEAPEAVTestInfo@testing@@PEAPEAV12@@Z
	??$_Pocca@V?$allocator@D@std@@@std@@YAXAEAV?$allocator@D@0@AEBV10@@Z
	??$_Pocma@V?$allocator@D@std@@@std@@YAXAEAV?$allocator@D@0@0@Z
	??$_Pocma@V?$allocator@U?$_List_node@V?$basic_string@DU?$char_traits@D@std@@V?$allocator@D@2@@std@@PEAX@std@@@std@@@std@@YAXAEAV?$allocator@U?$_List_node@V?$basic_string@DU?$char_traits@D@std@@V?$allocator@D@2@@std@@PEAX@std@@@0@0@Z
	??$_Pocma@V?$allocator@V?$_List_unchecked_const_iterator@V?$_List_val@U?$_List_simple_types@V?$basic_string@DU?$char_traits@D@std@@V?$allocator@D@2@@std@@@std@@@std@@U_Iterator_base0@2@@std@@@std@@@std@@YAXAEAV?$allocator@V?$_List_unchecked_const_iterator@V?$_List_val@U?$_List_simple_types@V?$basic_string@DU?$char_traits@D@std@@V?$allocator@D@2@@std@@@std@@@std@@U_Iterator_base0@2@@std@@@0@0@Z
	??$_Pocma@V?$allocator@V?$basic_string@DU?$char_traits@D@std@@V?$allocator@D@2@@std@@@std@@@std@@YAXAEAV?$allocator@V?$basic_string@DU?$char_traits@D@std@@V?$allocator@D@2@@std@@@0@0@Z
	??$_Pocs@V?$allocator@D@std@@@std@@YAXAEAV?$allocator@D@0@0@Z
	??$_Pocs@V?$allocator@V?$basic_string@DU?$char_traits@D@std@@V?$allocator@D@2@@std@@@std@@@std@@YAXAEAV?$allocator@V?$basic_string@DU?$char_traits@D@std@@V?$allocator@D@2@@std@@@0@0@Z
	??$_Pocs@V?$allocator@V?$shared_ptr@VExpectationBase@internal@testing@@@std@@@std@@@std@@YAXAEAV?$allocator@V?$shared_ptr@VExpectationBase@internal@testing@@@std@@@0@0@Z
	??$_Prev_iter@PEAPEAVTestInfo@testing@@@std@@YAPEAPEAVTestInfo@testing@@PEAPEAV12@@Z
	??$_Reallocate@$0A@@?$vector@V?$basic_string@DU?$char_traits@D@std@@V?$allocator@D@2@@std@@V?$allocator@V?$basic_string@DU?$char_traits@D@std@@V?$allocator@D@2@@std@@@2@@std@@AEAAXAEA_K@Z
	??$_Reallocate_for@V<lambda_66f57f934f28d61049862f64df852ff0>@@PEBD@?$basic_string@DU?$char_traits@D@std@@V?$allocator@D@2@@std@@AEAAAEAV01@_KV<lambda_66f57f934f28d61049862f64df852ff0>@@PEBD@Z
	??$_Reallocate_grow_by@V<lambda_1dfe18491bcca09701d8ccb01d0b0af4>@@PEB_W_K@?$basic_string@_WU?$char_traits@_W@std@@V?$allocator@_W@2@@std@@AEAAAEAV01@_KV<lambda_1dfe18491bcca09701d8ccb01d0b0af4>@@PEB_W_K@Z
	??$_Reallocate_grow_by@V<lambda_25953b27f3c43b57ba59f021c7f225c5>@@_W@?$basic_string@_WU?$char_traits@_W@std@@V?$allocator@_W@2@@std@@AEAAAEAV01@_KV<lambda_25953b27f3c43b57ba59f021c7f225c5>@@_W@Z
	??$_Reallocate_grow_by@V<lambda_319d5e083f45f90dcdce5dce53cbb275>@@D@?$basic_string@DU?$char_traits@D@std@@V?$allocator@D@2@@std@@AEAAAEAV01@_KV<lambda_319d5e083f45f90dcdce5dce53cbb275>@@D@Z
	??$_Reallocate_grow_by@V<lambda_65e615be2a453ca0576c979606f46740>@@PEBD_K@?$basic_string@DU?$char_traits@D@std@@V?$allocator@D@2@@std@@AEAAAEAV01@_KV<lambda_65e615be2a453ca0576c979606f46740>@@PEBD_K@Z
	??$_Reallocate_grow_by@V<lambda_9013ee9e23efe4882b67eff5b0ecf103>@@$$V@?$basic_string@DU?$char_traits@D@std@@V?$allocator@D@2@@std@@AEAAAEAV01@_KV<lambda_9013ee9e23efe4882b67eff5b0ecf103>@@@Z
	??$_Reallocate_grow_by@V<lambda_a3050a43f3157934f354774ab3dd2e02>@@_K_W@?$basic_string@_WU?$char_traits@_W@std@@V?$allocator@_W@2@@std@@AEAAAEAV01@_KV<lambda_a3050a43f3157934f354774ab3dd2e02>@@_K_W@Z
	??$_Reallocate_grow_by@V<lambda_e1befb086ad3257e3f042a63030725f7>@@_KD@?$basic_string@DU?$char_traits@D@std@@V?$allocator@D@2@@std@@AEAAAEAV01@_KV<lambda_e1befb086ad3257e3f042a63030725f7>@@_KD@Z
	??$_Reallocate_grow_by@V<lambda_f3a66ab6a0570788f31503db83886f49>@@_KPEBD_K@?$basic_string@DU?$char_traits@D@std@@V?$allocator@D@2@@std@@AEAAAEAV01@_KV<lambda_f3a66ab6a0570788f31503db83886f49>@@_KPEBD2@Z
	??$_Refancy@PEAD$0A@@std@@YAPEADPEAD@Z
	??$_Refancy@PEBD$0A@@std@@YAPEBDPEBD@Z
	??$_Refancy_maybe_null@PEAV?$basic_string@DU?$char_traits@D@std@@V?$allocator@D@2@@std@@$0A@@std@@YAPEAV?$basic_string@DU?$char_traits@D@std@@V?$allocator@D@2@@0@PEAV10@@Z
	??$_Refancy_maybe_null@PEAVTestProperty@testing@@$0A@@std@@YAPEAVTestProperty@testing@@PEAV12@@Z
	??$_Return_temporary_buffer@PEAVTestInfo@testing@@@std@@YAXQEAPEAVTestInfo@testing@@@Z
	??$_Reverse_vectorized@$03@std@@YAXPEAX0@Z
	??$_Reverse_vectorized@$07@std@@YAXPEAX0@Z
	??$_Rotate_one_left@PEAPEAVTestInfo@testing@@@std@@YAXPEAPEAVTestInfo@testing@@00@Z
	??$_Rotate_one_right@PEAPEAVTestInfo@testing@@@std@@YAXPEAPEAVTestInfo@testing@@00@Z
	??$_Search_vectorized@$$CBD$$CBD@std@@YAPEBDQEBD00_K@Z
	??$_Search_vectorized@$$CB_W$$CB_W@std@@YAPEB_WQEB_W00_K@Z
	??$_Seek_wrapped@PEAPEAVTestInfo@testing@@AEAPEAPEAV12@@std@@YAXAEAPEAPEAVTestInfo@testing@@0@Z
	??$_Seek_wrapped@PEAPEAVTestInfo@testing@@PEAPEAV12@@std@@YAXAEAPEAPEAVTestInfo@testing@@$$QEAPEAPEAV12@@Z
	??$_Seek_wrapped@V?$_Vector_const_iterator@V?$_Vector_val@U?$_Simple_types@V?$basic_string@DU?$char_traits@D@std@@V?$allocator@D@2@@std@@@std@@@std@@@std@@PEBV?$basic_string@DU?$char_traits@D@std@@V?$allocator@D@2@@2@@std@@YAXAEAV?$_Vector_const_iterator@V?$_Vector_val@U?$_Simple_types@V?$basic_string@DU?$char_traits@D@std@@V?$allocator@D@2@@std@@@std@@@std@@@0@$$QEAPEBV?$basic_string@DU?$char_traits@D@std@@V?$allocator@D@2@@0@@Z
	??$_Seek_wrapped@V?$_Vector_iterator@V?$_Vector_val@U?$_Simple_types@V?$basic_string@DU?$char_traits@D@std@@V?$allocator@D@2@@std@@@std@@@std@@@std@@AEAPEAV?$basic_string@DU?$char_traits@D@std@@V?$allocator@D@2@@2@@std@@YAXAEAV?$_Vector_iterator@V?$_Vector_val@U?$_Simple_types@V?$basic_string@DU?$char_traits@D@std@@V?$allocator@D@2@@std@@@std@@@std@@@0@AEAPEAV?$basic_string@DU?$char_traits@D@std@@V?$allocator@D@2@@0@@Z
	??$_Seek_wrapped@V?$_Vector_iterator@V?$_Vector_val@U?$_Simple_types@VTestProperty@testing@@@std@@@std@@@std@@AEAPEAVTestProperty@testing@@@std@@YAXAEAV?$_Vector_iterator@V?$_Vector_val@U?$_Simple_types@VTestProperty@testing@@@std@@@std@@@0@AEAPEAVTestProperty@testing@@@Z
	??$_Seek_wrapped@V?$insert_iterator@V?$unordered_set@V?$basic_string@DU?$char_traits@D@std@@V?$allocator@D@2@@std@@U?$hash@V?$basic_string@DU?$char_traits@D@std@@V?$allocator@D@2@@std@@@2@U?$equal_to@V?$basic_string@DU?$char_traits@D@std@@V?$allocator@D@2@@std@@@2@V?$allocator@V?$basic_string@DU?$char_traits@D@std@@V?$allocator@D@2@@std@@@2@@std@@@std@@V12@@std@@YAXAEAV?$insert_iterator@V?$unordered_set@V?$basic_string@DU?$char_traits@D@std@@V?$allocator@D@2@@std@@U?$hash@V?$basic_string@DU?$char_traits@D@std@@V?$allocator@D@2@@std@@@2@U?$equal_to@V?$basic_string@DU?$char_traits@D@std@@V?$allocator@D@2@@std@@@2@V?$allocator@V?$basic_string@DU?$char_traits@D@std@@V?$allocator@D@2@@std@@@2@@std@@@0@$$QEAV10@@Z
	??$_Seek_wrapped@V?$insert_iterator@V?$vector@V?$basic_string@DU?$char_traits@D@std@@V?$allocator@D@2@@std@@V?$allocator@V?$basic_string@DU?$char_traits@D@std@@V?$allocator@D@2@@std@@@2@@std@@@std@@V12@@std@@YAXAEAV?$insert_iterator@V?$vector@V?$basic_string@DU?$char_traits@D@std@@V?$allocator@D@2@@std@@V?$allocator@V?$basic_string@DU?$char_traits@D@std@@V?$allocator@D@2@@std@@@2@@std@@@0@$$QEAV10@@Z
	??$_Set_ptr_rep_and_enable_shared@$$CBVCardinalityInterface@testing@@@?$shared_ptr@$$CBVCardinalityInterface@testing@@@std@@AEAAXQEBVCardinalityInterface@testing@@QEAV_Ref_count_base@1@@Z
	??$_Set_ptr_rep_and_enable_shared@VExpectation@testing@@@?$shared_ptr@VExpectation@testing@@@std@@AEAAXQEAVExpectation@testing@@QEAV_Ref_count_base@1@@Z
	??$_Set_ptr_rep_and_enable_shared@VThreadLocalValueHolderBase@internal@testing@@@?$shared_ptr@VThreadLocalValueHolderBase@internal@testing@@@std@@AEAAXQEAVThreadLocalValueHolderBase@internal@testing@@QEAV_Ref_count_base@1@@Z
	??$_Temporary_buffer_size@_J@std@@YA_J_J@Z
	??$_To_address@PEAD@std@@YA?A_PAEBQEAD@Z
	??$_To_address@PEAH@std@@YA?A_PAEBQEAH@Z
	??$_To_address@PEAN@std@@YA?A_PAEBQEAN@Z
	??$_To_address@PEAPEAVEnvironment@testing@@@std@@YA?A_PAEBQEAPEAVEnvironment@testing@@@Z
	??$_To_address@PEAPEAVExpectationBase@internal@testing@@@std@@YA?A_PAEBQEAPEAVExpectationBase@internal@testing@@@Z
	??$_To_address@PEAPEAVTestEventListener@testing@@@std@@YA?A_PAEBQEAPEAVTestEventListener@testing@@@Z
	??$_To_address@PEAPEAVTestInfo@testing@@@std@@YA?A_PAEBQEAPEAVTestInfo@testing@@@Z
	??$_To_address@PEAPEAVTestSuite@testing@@@std@@YA?A_PAEBQEAPEAVTestSuite@testing@@@Z
	??$_To_address@PEAPEBVExpectationBase@internal@testing@@@std@@YA?A_PAEBQEAPEBVExpectationBase@internal@testing@@@Z
	??$_To_address@PEAU?$pair@_K_K@std@@@std@@YA?A_PAEBQEAU?$pair@_K_K@0@@Z
	??$_To_address@PEAW4EditType@edit_distance@internal@testing@@@std@@YA?A_PAEBQEAW4EditType@edit_distance@internal@testing@@@Z
	??$_To_address@PEA_K@std@@YA?A_PAEBQEA_K@Z
	??$_Traits_compare@U?$char_traits@D@std@@@std@@YAHQEBD_K01@Z
	??$_Traits_equal@U?$char_traits@D@std@@@std@@YA_NQEBD_K01@Z
	??$_Traits_find@U?$char_traits@D@std@@@std@@YA_KQEBD_K101@Z
	??$_Traits_find@U?$char_traits@_W@std@@@std@@YA_KQEB_W_K101@Z
	??$_Traits_find_ch@U?$char_traits@D@std@@@std@@YA_KQEBD_K1D@Z
	??$_Try_emplace@AEBV?$basic_string@DU?$char_traits@D@std@@V?$allocator@D@2@@std@@$$V@?$map@V?$basic_string@DU?$char_traits@D@std@@V?$allocator@D@2@@std@@_KU?$less@V?$basic_string@DU?$char_traits@D@std@@V?$allocator@D@2@@std@@@2@V?$allocator@U?$pair@$$CBV?$basic_string@DU?$char_traits@D@std@@V?$allocator@D@2@@std@@_K@std@@@2@@std@@AEAA?AU?$pair@PEAU?$_Tree_node@U?$pair@$$CBV?$basic_string@DU?$char_traits@D@std@@V?$allocator@D@2@@std@@_K@std@@PEAX@std@@_N@1@AEBV?$basic_string@DU?$char_traits@D@std@@V?$allocator@D@2@@1@@Z
	??$_Try_emplace@AEB_K$$V@?$_Hash@V?$_Umap_traits@_KW4CallReaction@internal@testing@@V?$_Uhash_compare@_KU?$hash@_K@std@@U?$equal_to@_K@2@@std@@V?$allocator@U?$pair@$$CB_KW4CallReaction@internal@testing@@@std@@@5@$0A@@std@@@std@@IEAA?AU?$pair@PEAU?$_List_node@U?$pair@$$CB_KW4CallReaction@internal@testing@@@std@@PEAX@std@@_N@1@AEB_K@Z
	??$_Try_emplace@_K$$V@?$_Hash@V?$_Umap_traits@_KW4CallReaction@internal@testing@@V?$_Uhash_compare@_KU?$hash@_K@std@@U?$equal_to@_K@2@@std@@V?$allocator@U?$pair@$$CB_KW4CallReaction@internal@testing@@@std@@@5@$0A@@std@@@std@@IEAA?AU?$pair@PEAU?$_List_node@U?$pair@$$CB_KW4CallReaction@internal@testing@@@std@@PEAX@std@@_N@1@$$QEA_K@Z
	??$_Tuple_get@$0A@$$QEA_K@std@@YA$$QEA_P$$QEAV?$tuple@$$QEA_K@0@@Z
	??$_Tuple_get@$0A@AEBQEBX@std@@YA$$QEA_P$$QEAV?$tuple@AEBQEBX@0@@Z
	??$_Tuple_get@$0A@AEBV?$basic_string@DU?$char_traits@D@std@@V?$allocator@D@2@@std@@@std@@YA$$QEA_P$$QEAV?$tuple@AEBV?$basic_string@DU?$char_traits@D@std@@V?$allocator@D@2@@std@@@0@@Z
	??$_Tuple_get@$0A@AEB_K@std@@YA$$QEA_P$$QEAV?$tuple@AEB_K@0@@Z
	??$_Unfancy@$$CBD@std@@YAPEBDPEBD@Z
	??$_Unfancy@D@std@@YAPEADPEAD@Z
	??$_Unfancy@H@std@@YAPEAHPEAH@Z
	??$_Unfancy@N@std@@YAPEANPEAN@Z
	??$_Unfancy@PEAVEnvironment@testing@@@std@@YAPEAPEAVEnvironment@testing@@PEAPEAV12@@Z
	??$_Unfancy@PEAVExpectationBase@internal@testing@@@std@@YAPEAPEAVExpectationBase@internal@testing@@PEAPEAV123@@Z
	??$_Unfancy@PEAVTestEventListener@testing@@@std@@YAPEAPEAVTestEventListener@testing@@PEAPEAV12@@Z
	??$_Unfancy@PEAVTestInfo@testing@@@std@@YAPEAPEAVTestInfo@testing@@PEAPEAV12@@Z
	??$_Unfancy@PEAVTestSuite@testing@@@std@@YAPEAPEAVTestSuite@testing@@PEAPEAV12@@Z
	??$_Unfancy@PEBVExpectationBase@internal@testing@@@std@@YAPEAPEBVExpectationBase@internal@testing@@PEAPEBV123@@Z
	??$_Unfancy@U?$pair@_K_K@std@@@std@@YAPEAU?$pair@_K_K@0@PEAU10@@Z
	??$_Unfancy@UTraceInfo@internal@testing@@@std@@YAPEAUTraceInfo@internal@testing@@PEAU123@@Z
	??$_Unfancy@V?$basic_string@DU?$char_traits@D@std@@V?$allocator@D@2@@std@@@std@@YAPEAV?$basic_string@DU?$char_traits@D@std@@V?$allocator@D@2@@0@PEAV10@@Z
	??$_Unfancy@V?$shared_ptr@VExpectationBase@internal@testing@@@std@@@std@@YAPEAV?$shared_ptr@VExpectationBase@internal@testing@@@0@PEAV10@@Z
	??$_Unfancy@V?$shared_ptr@VThreadLocalValueHolderBase@internal@testing@@@std@@@std@@YAPEAV?$shared_ptr@VThreadLocalValueHolderBase@internal@testing@@@0@PEAV10@@Z
	??$_Unfancy@V?$vector@NV?$allocator@N@std@@@std@@@std@@YAPEAV?$vector@NV?$allocator@N@std@@@0@PEAV10@@Z
	??$_Unfancy@V?$vector@W4EditType@edit_distance@internal@testing@@V?$allocator@W4EditType@edit_distance@internal@testing@@@std@@@std@@@std@@YAPEAV?$vector@W4EditType@edit_distance@internal@testing@@V?$allocator@W4EditType@edit_distance@internal@testing@@@std@@@0@PEAV10@@Z
	??$_Unfancy@VTestPartResult@testing@@@std@@YAPEAVTestPartResult@testing@@PEAV12@@Z
	??$_Unfancy@VTestProperty@testing@@@std@@YAPEAVTestProperty@testing@@PEAV12@@Z
	??$_Unfancy@W4EditType@edit_distance@internal@testing@@@std@@YAPEAW4EditType@edit_distance@internal@testing@@PEAW41234@@Z
	??$_Unfancy@_K@std@@YAPEA_KPEA_K@Z
	??$_Unfancy@_S@std@@YAPEA_SPEA_S@Z
	??$_Unfancy@_U@std@@YAPEA_UPEA_U@Z
	??$_Unfancy@_W@std@@YAPEA_WPEA_W@Z
	??$_Unfancy_maybe_null@$$CBD@std@@YAPEBDPEBD@Z
	??$_Unfancy_maybe_null@PEAVEnvironment@testing@@@std@@YAPEAPEAVEnvironment@testing@@PEAPEAV12@@Z
	??$_Unfancy_maybe_null@PEAVParameterizedTestSuiteInfoBase@internal@testing@@@std@@YAPEAPEAVParameterizedTestSuiteInfoBase@internal@testing@@PEAPEAV123@@Z
	??$_Unfancy_maybe_null@PEAVTestEventListener@testing@@@std@@YAPEAPEAVTestEventListener@testing@@PEAPEAV12@@Z
	??$_Unfancy_maybe_null@PEAVTestInfo@testing@@@std@@YAPEAPEAVTestInfo@testing@@PEAPEAV12@@Z
	??$_Unfancy_maybe_null@PEAVTestSuite@testing@@@std@@YAPEAPEAVTestSuite@testing@@PEAPEAV12@@Z
	??$_Unfancy_maybe_null@V?$basic_string@DU?$char_traits@D@std@@V?$allocator@D@2@@std@@@std@@YAPEAV?$basic_string@DU?$char_traits@D@std@@V?$allocator@D@2@@0@PEAV10@@Z
	??$_Unfancy_maybe_null@VTestProperty@testing@@@std@@YAPEAVTestProperty@testing@@PEAV12@@Z
	??$_Unfancy_maybe_null@W4EditType@edit_distance@internal@testing@@@std@@YAPEAW4EditType@edit_distance@internal@testing@@PEAW41234@@Z
	??$_Uninitialized_copy@PEANPEANV?$allocator@N@std@@@std@@YAPEANPEAN00AEAV?$allocator@N@0@@Z
	??$_Uninitialized_copy@PEAV?$basic_string@DU?$char_traits@D@std@@V?$allocator@D@2@@std@@PEAV12@V?$allocator@V?$basic_string@DU?$char_traits@D@std@@V?$allocator@D@2@@std@@@2@@std@@YAPEAV?$basic_string@DU?$char_traits@D@std@@V?$allocator@D@2@@0@PEAV10@00AEAV?$allocator@V?$basic_string@DU?$char_traits@D@std@@V?$allocator@D@2@@std@@@0@@Z
	??$_Uninitialized_copy@PEAW4EditType@edit_distance@internal@testing@@PEAW41234@V?$allocator@W4EditType@edit_distance@internal@testing@@@std@@@std@@YAPEAW4EditType@edit_distance@internal@testing@@PEAW41234@00AEAV?$allocator@W4EditType@edit_distance@internal@testing@@@0@@Z
	??$_Uninitialized_copy@PEBQEBDPEBQEBDV?$allocator@V?$basic_string@DU?$char_traits@D@std@@V?$allocator@D@2@@std@@@std@@@std@@YAPEAV?$basic_string@DU?$char_traits@D@std@@V?$allocator@D@2@@0@PEBQEBD0PEAV10@AEAV?$allocator@V?$basic_string@DU?$char_traits@D@std@@V?$allocator@D@2@@std@@@0@@Z
	??$_Uninitialized_copy@PEBV?$basic_string@DU?$char_traits@D@std@@V?$allocator@D@2@@std@@PEBV12@V?$allocator@V?$basic_string@DU?$char_traits@D@std@@V?$allocator@D@2@@std@@@2@@std@@YAPEAV?$basic_string@DU?$char_traits@D@std@@V?$allocator@D@2@@0@PEBV10@0PEAV10@AEAV?$allocator@V?$basic_string@DU?$char_traits@D@std@@V?$allocator@D@2@@std@@@0@@Z
	??$_Uninitialized_fill_n@V?$allocator@D@std@@@std@@YAPEADPEAD_KAEBDAEAV?$allocator@D@0@@Z
	??$_Uninitialized_fill_n@V?$allocator@PEAVExpectationBase@internal@testing@@@std@@@std@@YAPEAPEAVExpectationBase@internal@testing@@PEAPEAV123@_KAEBQEAV123@AEAV?$allocator@PEAVExpectationBase@internal@testing@@@0@@Z
	??$_Uninitialized_fill_n@V?$allocator@PEBVExpectationBase@internal@testing@@@std@@@std@@YAPEAPEBVExpectationBase@internal@testing@@PEAPEBV123@_KAEBQEBV123@AEAV?$allocator@PEBVExpectationBase@internal@testing@@@0@@Z
	??$_Uninitialized_fill_n@V?$allocator@V?$vector@NV?$allocator@N@std@@@std@@@std@@@std@@YAPEAV?$vector@NV?$allocator@N@std@@@0@PEAV10@_KAEBV10@AEAV?$allocator@V?$vector@NV?$allocator@N@std@@@std@@@0@@Z
	??$_Uninitialized_fill_n@V?$allocator@V?$vector@W4EditType@edit_distance@internal@testing@@V?$allocator@W4EditType@edit_distance@internal@testing@@@std@@@std@@@std@@@std@@YAPEAV?$vector@W4EditType@edit_distance@internal@testing@@V?$allocator@W4EditType@edit_distance@internal@testing@@@std@@@0@PEAV10@_KAEBV10@AEAV?$allocator@V?$vector@W4EditType@edit_distance@internal@testing@@V?$allocator@W4EditType@edit_distance@internal@testing@@@std@@@std@@@0@@Z
	??$_Uninitialized_fill_n@V?$allocator@_K@std@@@std@@YAPEA_KPEA_K_KAEB_KAEAV?$allocator@_K@0@@Z
	??$_Uninitialized_move@PEAHV?$allocator@H@std@@@std@@YAPEAHQEAH0PEAHAEAV?$allocator@H@0@@Z
	??$_Uninitialized_move@PEAPEAVEnvironment@testing@@V?$allocator@PEAVEnvironment@testing@@@std@@@std@@YAPEAPEAVEnvironment@testing@@QEAPEAV12@0PEAPEAV12@AEAV?$allocator@PEAVEnvironment@testing@@@0@@Z
	??$_Uninitialized_move@PEAPEAVExpectationBase@internal@testing@@V?$allocator@PEAVExpectationBase@internal@testing@@@std@@@std@@YAPEAPEAVExpectationBase@internal@testing@@QEAPEAV123@0PEAPEAV123@AEAV?$allocator@PEAVExpectationBase@internal@testing@@@0@@Z
	??$_Uninitialized_move@PEAPEAVTestEventListener@testing@@V?$allocator@PEAVTestEventListener@testing@@@std@@@std@@YAPEAPEAVTestEventListener@testing@@QEAPEAV12@0PEAPEAV12@AEAV?$allocator@PEAVTestEventListener@testing@@@0@@Z
	??$_Uninitialized_move@PEAPEAVTestInfo@testing@@V?$allocator@PEAVTestInfo@testing@@@std@@@std@@YAPEAPEAVTestInfo@testing@@QEAPEAV12@0PEAPEAV12@AEAV?$allocator@PEAVTestInfo@testing@@@0@@Z
	??$_Uninitialized_move@PEAPEAVTestSuite@testing@@V?$allocator@PEAVTestSuite@testing@@@std@@@std@@YAPEAPEAVTestSuite@testing@@QEAPEAV12@0PEAPEAV12@AEAV?$allocator@PEAVTestSuite@testing@@@0@@Z
	??$_Uninitialized_move@PEAPEBVExpectationBase@internal@testing@@V?$allocator@PEBVExpectationBase@internal@testing@@@std@@@std@@YAPEAPEBVExpectationBase@internal@testing@@QEAPEBV123@0PEAPEBV123@AEAV?$allocator@PEBVExpectationBase@internal@testing@@@0@@Z
	??$_Uninitialized_move@PEAU?$pair@_K_K@std@@V?$allocator@U?$pair@_K_K@std@@@2@@std@@YAPEAU?$pair@_K_K@0@QEAU10@0PEAU10@AEAV?$allocator@U?$pair@_K_K@std@@@0@@Z
	??$_Uninitialized_move@PEAUTraceInfo@internal@testing@@V?$allocator@UTraceInfo@internal@testing@@@std@@@std@@YAPEAUTraceInfo@internal@testing@@QEAU123@0PEAU123@AEAV?$allocator@UTraceInfo@internal@testing@@@0@@Z
	??$_Uninitialized_move@PEAV?$basic_string@DU?$char_traits@D@std@@V?$allocator@D@2@@std@@V?$allocator@V?$basic_string@DU?$char_traits@D@std@@V?$allocator@D@2@@std@@@2@@std@@YAPEAV?$basic_string@DU?$char_traits@D@std@@V?$allocator@D@2@@0@QEAV10@0PEAV10@AEAV?$allocator@V?$basic_string@DU?$char_traits@D@std@@V?$allocator@D@2@@std@@@0@@Z
	??$_Uninitialized_move@PEAV?$shared_ptr@VThreadLocalValueHolderBase@internal@testing@@@std@@V?$allocator@V?$shared_ptr@VThreadLocalValueHolderBase@internal@testing@@@std@@@2@@std@@YAPEAV?$shared_ptr@VThreadLocalValueHolderBase@internal@testing@@@0@QEAV10@0PEAV10@AEAV?$allocator@V?$shared_ptr@VThreadLocalValueHolderBase@internal@testing@@@std@@@0@@Z
	??$_Uninitialized_move@PEAVTestPartResult@testing@@V?$allocator@VTestPartResult@testing@@@std@@@std@@YAPEAVTestPartResult@testing@@QEAV12@0PEAV12@AEAV?$allocator@VTestPartResult@testing@@@0@@Z
	??$_Uninitialized_move@PEAVTestProperty@testing@@V?$allocator@VTestProperty@testing@@@std@@@std@@YAPEAVTestProperty@testing@@QEAV12@0PEAV12@AEAV?$allocator@VTestProperty@testing@@@0@@Z
	??$_Uninitialized_move@PEAW4EditType@edit_distance@internal@testing@@V?$allocator@W4EditType@edit_distance@internal@testing@@@std@@@std@@YAPEAW4EditType@edit_distance@internal@testing@@QEAW41234@0PEAW41234@AEAV?$allocator@W4EditType@edit_distance@internal@testing@@@0@@Z
	??$_Uninitialized_move@PEA_KV?$allocator@_K@std@@@std@@YAPEA_KQEA_K0PEA_KAEAV?$allocator@_K@0@@Z
	??$_Uninitialized_move_unchecked@PEAPEAVTestInfo@testing@@PEAPEAV12@@std@@YAPEAPEAVTestInfo@testing@@PEAPEAV12@QEAPEAV12@0@Z
	??$_Uninitialized_value_construct_n@V?$allocator@N@std@@@std@@YAPEANPEAN_KAEAV?$allocator@N@0@@Z
	??$_Uninitialized_value_construct_n@V?$allocator@W4EditType@edit_distance@internal@testing@@@std@@@std@@YAPEAW4EditType@edit_distance@internal@testing@@PEAW41234@_KAEAV?$allocator@W4EditType@edit_distance@internal@testing@@@0@@Z
	??$_Unwrapped@V?$_Vector_iterator@V?$_Vector_val@U?$_Simple_types@PEAVEnvironment@testing@@@std@@@std@@@std@@$0A@@?$reverse_iterator@V?$_Vector_iterator@V?$_Vector_val@U?$_Simple_types@PEAVEnvironment@testing@@@std@@@std@@@std@@@std@@QEGBA?AV?$reverse_iterator@PEAPEAVEnvironment@testing@@@1@XZ
	??$_Zero_range@PEAN@std@@YAPEANQEAN0@Z
	??$_Zero_range@PEAW4EditType@edit_distance@internal@testing@@@std@@YAPEAW4EditType@edit_distance@internal@testing@@QEAW41234@0@Z
	??$addressof@$$CBD@std@@YAPEBDAEBD@Z
	??$addressof@$$CBU?$pair@$$CBV?$basic_string@DU?$char_traits@D@std@@V?$allocator@D@2@@std@@UCodeLocation@internal@testing@@@std@@@std@@YAPEBU?$pair@$$CBV?$basic_string@DU?$char_traits@D@std@@V?$allocator@D@2@@std@@UCodeLocation@internal@testing@@@0@AEBU10@@Z
	??$addressof@$$CBU?$pair@DPEBD@std@@@std@@YAPEBU?$pair@DPEBD@0@AEBU10@@Z
	??$addressof@$$CBV?$_List_val@U?$_List_simple_types@U?$pair@$$CBV?$basic_string@DU?$char_traits@D@std@@V?$allocator@D@2@@std@@PEAVTestSuite@testing@@@std@@@std@@@std@@@std@@YAPEBV?$_List_val@U?$_List_simple_types@U?$pair@$$CBV?$basic_string@DU?$char_traits@D@std@@V?$allocator@D@2@@std@@PEAVTestSuite@testing@@@std@@@std@@@0@AEBV10@@Z
	??$addressof@$$CBV?$_List_val@U?$_List_simple_types@V?$basic_string@DU?$char_traits@D@std@@V?$allocator@D@2@@std@@@std@@@std@@@std@@YAPEBV?$_List_val@U?$_List_simple_types@V?$basic_string@DU?$char_traits@D@std@@V?$allocator@D@2@@std@@@std@@@0@AEBV10@@Z
	??$addressof@$$CBV?$_String_val@U?$_Simple_types@D@std@@@std@@@std@@YAPEBV?$_String_val@U?$_Simple_types@D@std@@@0@AEBV10@@Z
	??$addressof@$$CBV?$_Tree_val@U?$_Tree_simple_types@PEAVUntypedFunctionMockerBase@internal@testing@@@std@@@std@@@std@@YAPEBV?$_Tree_val@U?$_Tree_simple_types@PEAVUntypedFunctionMockerBase@internal@testing@@@std@@@0@AEBV10@@Z
	??$addressof@$$CBV?$_Tree_val@U?$_Tree_simple_types@U?$pair@$$CBKV?$map@PEBVThreadLocalBase@internal@testing@@V?$shared_ptr@VThreadLocalValueHolderBase@internal@testing@@@std@@U?$less@PEBVThreadLocalBase@internal@testing@@@5@V?$allocator@U?$pair@QEBVThreadLocalBase@internal@testing@@V?$shared_ptr@VThreadLocalValueHolderBase@internal@testing@@@std@@@std@@@5@@std@@@std@@@std@@@std@@@std@@YAPEBV?$_Tree_val@U?$_Tree_simple_types@U?$pair@$$CBKV?$map@PEBVThreadLocalBase@internal@testing@@V?$shared_ptr@VThreadLocalValueHolderBase@internal@testing@@@std@@U?$less@PEBVThreadLocalBase@internal@testing@@@5@V?$allocator@U?$pair@QEBVThreadLocalBase@internal@testing@@V?$shared_ptr@VThreadLocalValueHolderBase@internal@testing@@@std@@@std@@@5@@std@@@std@@@std@@@0@AEBV10@@Z
	??$addressof@$$CBV?$_Tree_val@U?$_Tree_simple_types@U?$pair@$$CBV?$basic_string@DU?$char_traits@D@std@@V?$allocator@D@2@@std@@UCodeLocation@internal@testing@@@std@@@std@@@std@@@std@@YAPEBV?$_Tree_val@U?$_Tree_simple_types@U?$pair@$$CBV?$basic_string@DU?$char_traits@D@std@@V?$allocator@D@2@@std@@UCodeLocation@internal@testing@@@std@@@std@@@0@AEBV10@@Z
	??$addressof@$$CBV?$_Tree_val@U?$_Tree_simple_types@U?$pair@$$CBV?$basic_string@DU?$char_traits@D@std@@V?$allocator@D@2@@std@@UTypeParameterizedTestSuiteInfo@TypeParameterizedTestSuiteRegistry@internal@testing@@@std@@@std@@@std@@@std@@YAPEBV?$_Tree_val@U?$_Tree_simple_types@U?$pair@$$CBV?$basic_string@DU?$char_traits@D@std@@V?$allocator@D@2@@std@@UTypeParameterizedTestSuiteInfo@TypeParameterizedTestSuiteRegistry@internal@testing@@@std@@@std@@@0@AEBV10@@Z
	??$addressof@$$CBV?$_Tree_val@U?$_Tree_simple_types@U?$pair@$$CBV?$basic_string@DU?$char_traits@D@std@@V?$allocator@D@2@@std@@_K@std@@@std@@@std@@@std@@YAPEBV?$_Tree_val@U?$_Tree_simple_types@U?$pair@$$CBV?$basic_string@DU?$char_traits@D@std@@V?$allocator@D@2@@std@@_K@std@@@std@@@0@AEBV10@@Z
	??$addressof@$$CBV?$_Tree_val@U?$_Tree_simple_types@U?$pair@QEBVThreadLocalBase@internal@testing@@V?$shared_ptr@VThreadLocalValueHolderBase@internal@testing@@@std@@@std@@@std@@@std@@@std@@YAPEBV?$_Tree_val@U?$_Tree_simple_types@U?$pair@QEBVThreadLocalBase@internal@testing@@V?$shared_ptr@VThreadLocalValueHolderBase@internal@testing@@@std@@@std@@@std@@@0@AEBV10@@Z
	??$addressof@$$CBV?$_Tree_val@U?$_Tree_simple_types@V?$basic_string@DU?$char_traits@D@std@@V?$allocator@D@2@@std@@@std@@@std@@@std@@YAPEBV?$_Tree_val@U?$_Tree_simple_types@V?$basic_string@DU?$char_traits@D@std@@V?$allocator@D@2@@std@@@std@@@0@AEBV10@@Z
	??$addressof@$$CBV?$_Tree_val@U?$_Tree_simple_types@VExpectation@testing@@@std@@@std@@@std@@YAPEBV?$_Tree_val@U?$_Tree_simple_types@VExpectation@testing@@@std@@@0@AEBV10@@Z
	??$addressof@$$CBV?$_Vector_val@U?$_Simple_types@PEAVEnvironment@testing@@@std@@@std@@@std@@YAPEBV?$_Vector_val@U?$_Simple_types@PEAVEnvironment@testing@@@std@@@0@AEBV10@@Z
	??$addressof@$$CBV?$_Vector_val@U?$_Simple_types@PEAVTestEventListener@testing@@@std@@@std@@@std@@YAPEBV?$_Vector_val@U?$_Simple_types@PEAVTestEventListener@testing@@@std@@@0@AEBV10@@Z
	??$addressof@$$CBV?$_Vector_val@U?$_Simple_types@PEAVTestInfo@testing@@@std@@@std@@@std@@YAPEBV?$_Vector_val@U?$_Simple_types@PEAVTestInfo@testing@@@std@@@0@AEBV10@@Z
	??$addressof@$$CBV?$_Vector_val@U?$_Simple_types@PEAVTestSuite@testing@@@std@@@std@@@std@@YAPEBV?$_Vector_val@U?$_Simple_types@PEAVTestSuite@testing@@@std@@@0@AEBV10@@Z
	??$addressof@$$CBV?$_Vector_val@U?$_Simple_types@U?$pair@_K_K@std@@@std@@@std@@@std@@YAPEBV?$_Vector_val@U?$_Simple_types@U?$pair@_K_K@std@@@std@@@0@AEBV10@@Z
	??$addressof@$$CBV?$_Vector_val@U?$_Simple_types@V?$basic_string@DU?$char_traits@D@std@@V?$allocator@D@2@@std@@@std@@@std@@@std@@YAPEBV?$_Vector_val@U?$_Simple_types@V?$basic_string@DU?$char_traits@D@std@@V?$allocator@D@2@@std@@@std@@@0@AEBV10@@Z
	??$addressof@$$CBV?$_Vector_val@U?$_Simple_types@VTestPartResult@testing@@@std@@@std@@@std@@YAPEBV?$_Vector_val@U?$_Simple_types@VTestPartResult@testing@@@std@@@0@AEBV10@@Z
	??$addressof@$$CBV?$_Vector_val@U?$_Simple_types@W4EditType@edit_distance@internal@testing@@@std@@@std@@@std@@YAPEBV?$_Vector_val@U?$_Simple_types@W4EditType@edit_distance@internal@testing@@@std@@@0@AEBV10@@Z
	??$addressof@$$CBV?$basic_string@DU?$char_traits@D@std@@V?$allocator@D@2@@std@@@std@@YAPEBV?$basic_string@DU?$char_traits@D@std@@V?$allocator@D@2@@0@AEBV10@@Z
	??$addressof@$$CBVExpectation@testing@@@std@@YAPEBVExpectation@testing@@AEBV12@@Z
	??$addressof@D@std@@YAPEADAEAD@Z
	??$addressof@H@std@@YAPEAHAEAH@Z
	??$addressof@PEAD@std@@YAPEAPEADAEAPEAD@Z
	??$addressof@PEAU?$_List_node@U?$pair@$$CBV?$basic_string@DU?$char_traits@D@std@@V?$allocator@D@2@@std@@PEAVTestSuite@testing@@@std@@PEAX@std@@@std@@YAPEAPEAU?$_List_node@U?$pair@$$CBV?$basic_string@DU?$char_traits@D@std@@V?$allocator@D@2@@std@@PEAVTestSuite@testing@@@std@@PEAX@0@AEAPEAU10@@Z
	??$addressof@PEAU?$_List_node@U?$pair@$$CBV?$basic_string@DU?$char_traits@D@std@@V?$allocator@D@2@@std@@_K@std@@PEAX@std@@@std@@YAPEAPEAU?$_List_node@U?$pair@$$CBV?$basic_string@DU?$char_traits@D@std@@V?$allocator@D@2@@std@@_K@std@@PEAX@0@AEAPEAU10@@Z
	??$addressof@PEAU?$_List_node@U?$pair@$$CB_KW4CallReaction@internal@testing@@@std@@PEAX@std@@@std@@YAPEAPEAU?$_List_node@U?$pair@$$CB_KW4CallReaction@internal@testing@@@std@@PEAX@0@AEAPEAU10@@Z
	??$addressof@PEAU?$_List_node@U?$pair@DPEBD@std@@PEAX@std@@@std@@YAPEAPEAU?$_List_node@U?$pair@DPEBD@std@@PEAX@0@AEAPEAU10@@Z
	??$addressof@PEAU?$_List_node@V?$basic_string@DU?$char_traits@D@std@@V?$allocator@D@2@@std@@PEAX@std@@@std@@YAPEAPEAU?$_List_node@V?$basic_string@DU?$char_traits@D@std@@V?$allocator@D@2@@std@@PEAX@0@AEAPEAU10@@Z
	??$addressof@PEAU?$_Tree_node@PEAVUntypedFunctionMockerBase@internal@testing@@PEAX@std@@@std@@YAPEAPEAU?$_Tree_node@PEAVUntypedFunctionMockerBase@internal@testing@@PEAX@0@AEAPEAU10@@Z
	??$addressof@PEAU?$_Tree_node@U?$pair@$$CBKV?$map@PEBVThreadLocalBase@internal@testing@@V?$shared_ptr@VThreadLocalValueHolderBase@internal@testing@@@std@@U?$less@PEBVThreadLocalBase@internal@testing@@@5@V?$allocator@U?$pair@QEBVThreadLocalBase@internal@testing@@V?$shared_ptr@VThreadLocalValueHolderBase@internal@testing@@@std@@@std@@@5@@std@@@std@@PEAX@std@@@std@@YAPEAPEAU?$_Tree_node@U?$pair@$$CBKV?$map@PEBVThreadLocalBase@internal@testing@@V?$shared_ptr@VThreadLocalValueHolderBase@internal@testing@@@std@@U?$less@PEBVThreadLocalBase@internal@testing@@@5@V?$allocator@U?$pair@QEBVThreadLocalBase@internal@testing@@V?$shared_ptr@VThreadLocalValueHolderBase@internal@testing@@@std@@@std@@@5@@std@@@std@@PEAX@0@AEAPEAU10@@Z
	??$addressof@PEAU?$_Tree_node@U?$pair@$$CBV?$basic_string@DU?$char_traits@D@std@@V?$allocator@D@2@@std@@UTypeParameterizedTestSuiteInfo@TypeParameterizedTestSuiteRegistry@internal@testing@@@std@@PEAX@std@@@std@@YAPEAPEAU?$_Tree_node@U?$pair@$$CBV?$basic_string@DU?$char_traits@D@std@@V?$allocator@D@2@@std@@UTypeParameterizedTestSuiteInfo@TypeParameterizedTestSuiteRegistry@internal@testing@@@std@@PEAX@0@AEAPEAU10@@Z
	??$addressof@PEAU?$_Tree_node@U?$pair@$$CBV?$basic_string@DU?$char_traits@D@std@@V?$allocator@D@2@@std@@_K@std@@PEAX@std@@@std@@YAPEAPEAU?$_Tree_node@U?$pair@$$CBV?$basic_string@DU?$char_traits@D@std@@V?$allocator@D@2@@std@@_K@std@@PEAX@0@AEAPEAU10@@Z
	??$addressof@PEAU?$_Tree_node@U?$pair@QEBVThreadLocalBase@internal@testing@@V?$shared_ptr@VThreadLocalValueHolderBase@internal@testing@@@std@@@std@@PEAX@std@@@std@@YAPEAPEAU?$_Tree_node@U?$pair@QEBVThreadLocalBase@internal@testing@@V?$shared_ptr@VThreadLocalValueHolderBase@internal@testing@@@std@@@std@@PEAX@0@AEAPEAU10@@Z
	??$addressof@PEAU?$_Tree_node@V?$basic_string@DU?$char_traits@D@std@@V?$allocator@D@2@@std@@PEAX@std@@@std@@YAPEAPEAU?$_Tree_node@V?$basic_string@DU?$char_traits@D@std@@V?$allocator@D@2@@std@@PEAX@0@AEAPEAU10@@Z
	??$addressof@PEAU?$_Tree_node@VExpectation@testing@@PEAX@std@@@std@@YAPEAPEAU?$_Tree_node@VExpectation@testing@@PEAX@0@AEAPEAU10@@Z
	??$addressof@PEAVEnvironment@testing@@@std@@YAPEAPEAVEnvironment@testing@@AEAPEAV12@@Z
	??$addressof@PEAVExpectationBase@internal@testing@@@std@@YAPEAPEAVExpectationBase@internal@testing@@AEAPEAV123@@Z
	??$addressof@PEAVTestEventListener@testing@@@std@@YAPEAPEAVTestEventListener@testing@@AEAPEAV12@@Z
	??$addressof@PEAVTestInfo@testing@@@std@@YAPEAPEAVTestInfo@testing@@AEAPEAV12@@Z
	??$addressof@PEAVTestSuite@testing@@@std@@YAPEAPEAVTestSuite@testing@@AEAPEAV12@@Z
	??$addressof@PEAVUntypedFunctionMockerBase@internal@testing@@@std@@YAPEAPEAVUntypedFunctionMockerBase@internal@testing@@AEAPEAV123@@Z
	??$addressof@PEA_W@std@@YAPEAPEA_WAEAPEA_W@Z
	??$addressof@PEBVExpectationBase@internal@testing@@@std@@YAPEAPEBVExpectationBase@internal@testing@@AEAPEBV123@@Z
	??$addressof@U?$pair@$$CBKV?$map@PEBVThreadLocalBase@internal@testing@@V?$shared_ptr@VThreadLocalValueHolderBase@internal@testing@@@std@@U?$less@PEBVThreadLocalBase@internal@testing@@@5@V?$allocator@U?$pair@QEBVThreadLocalBase@internal@testing@@V?$shared_ptr@VThreadLocalValueHolderBase@internal@testing@@@std@@@std@@@5@@std@@@std@@@std@@YAPEAU?$pair@$$CBKV?$map@PEBVThreadLocalBase@internal@testing@@V?$shared_ptr@VThreadLocalValueHolderBase@internal@testing@@@std@@U?$less@PEBVThreadLocalBase@internal@testing@@@5@V?$allocator@U?$pair@QEBVThreadLocalBase@internal@testing@@V?$shared_ptr@VThreadLocalValueHolderBase@internal@testing@@@std@@@std@@@5@@std@@@0@AEAU10@@Z
	??$addressof@U?$pair@$$CBV?$basic_string@DU?$char_traits@D@std@@V?$allocator@D@2@@std@@PEAVTestSuite@testing@@@std@@@std@@YAPEAU?$pair@$$CBV?$basic_string@DU?$char_traits@D@std@@V?$allocator@D@2@@std@@PEAVTestSuite@testing@@@0@AEAU10@@Z
	??$addressof@U?$pair@$$CBV?$basic_string@DU?$char_traits@D@std@@V?$allocator@D@2@@std@@UTypeParameterizedTestSuiteInfo@TypeParameterizedTestSuiteRegistry@internal@testing@@@std@@@std@@YAPEAU?$pair@$$CBV?$basic_string@DU?$char_traits@D@std@@V?$allocator@D@2@@std@@UTypeParameterizedTestSuiteInfo@TypeParameterizedTestSuiteRegistry@internal@testing@@@0@AEAU10@@Z
	??$addressof@U?$pair@$$CBV?$basic_string@DU?$char_traits@D@std@@V?$allocator@D@2@@std@@_K@std@@@std@@YAPEAU?$pair@$$CBV?$basic_string@DU?$char_traits@D@std@@V?$allocator@D@2@@std@@_K@0@AEAU10@@Z
	??$addressof@U?$pair@$$CB_KW4CallReaction@internal@testing@@@std@@@std@@YAPEAU?$pair@$$CB_KW4CallReaction@internal@testing@@@0@AEAU10@@Z
	??$addressof@U?$pair@DPEBD@std@@@std@@YAPEAU?$pair@DPEBD@0@AEAU10@@Z
	??$addressof@U?$pair@QEBVThreadLocalBase@internal@testing@@V?$shared_ptr@VThreadLocalValueHolderBase@internal@testing@@@std@@@std@@@std@@YAPEAU?$pair@QEBVThreadLocalBase@internal@testing@@V?$shared_ptr@VThreadLocalValueHolderBase@internal@testing@@@std@@@0@AEAU10@@Z
	??$addressof@U?$pair@_K_K@std@@@std@@YAPEAU?$pair@_K_K@0@AEAU10@@Z
	??$addressof@V?$_Hash@V?$_Uset_traits@V?$basic_string@DU?$char_traits@D@std@@V?$allocator@D@2@@std@@V?$_Uhash_compare@V?$basic_string@DU?$char_traits@D@std@@V?$allocator@D@2@@std@@U?$hash@V?$basic_string@DU?$char_traits@D@std@@V?$allocator@D@2@@std@@@2@U?$equal_to@V?$basic_string@DU?$char_traits@D@std@@V?$allocator@D@2@@std@@@2@@2@V?$allocator@V?$basic_string@DU?$char_traits@D@std@@V?$allocator@D@2@@std@@@2@$0A@@std@@@std@@@std@@YAPEAV?$_Hash@V?$_Uset_traits@V?$basic_string@DU?$char_traits@D@std@@V?$allocator@D@2@@std@@V?$_Uhash_compare@V?$basic_string@DU?$char_traits@D@std@@V?$allocator@D@2@@std@@U?$hash@V?$basic_string@DU?$char_traits@D@std@@V?$allocator@D@2@@std@@@2@U?$equal_to@V?$basic_string@DU?$char_traits@D@std@@V?$allocator@D@2@@std@@@2@@2@V?$allocator@V?$basic_string@DU?$char_traits@D@std@@V?$allocator@D@2@@std@@@2@$0A@@std@@@0@AEAV10@@Z
	??$addressof@V?$_List_unchecked_const_iterator@V?$_List_val@U?$_List_simple_types@V?$basic_string@DU?$char_traits@D@std@@V?$allocator@D@2@@std@@@std@@@std@@U_Iterator_base0@2@@std@@@std@@YAPEAV?$_List_unchecked_const_iterator@V?$_List_val@U?$_List_simple_types@V?$basic_string@DU?$char_traits@D@std@@V?$allocator@D@2@@std@@@std@@@std@@U_Iterator_base0@2@@0@AEAV10@@Z
	??$addressof@V?$_List_unchecked_iterator@V?$_List_val@U?$_List_simple_types@U?$pair@$$CBV?$basic_string@DU?$char_traits@D@std@@V?$allocator@D@2@@std@@PEAVTestSuite@testing@@@std@@@std@@@std@@@std@@@std@@YAPEAV?$_List_unchecked_iterator@V?$_List_val@U?$_List_simple_types@U?$pair@$$CBV?$basic_string@DU?$char_traits@D@std@@V?$allocator@D@2@@std@@PEAVTestSuite@testing@@@std@@@std@@@std@@@0@AEAV10@@Z
	??$addressof@V?$_List_unchecked_iterator@V?$_List_val@U?$_List_simple_types@U?$pair@$$CBV?$basic_string@DU?$char_traits@D@std@@V?$allocator@D@2@@std@@_K@std@@@std@@@std@@@std@@@std@@YAPEAV?$_List_unchecked_iterator@V?$_List_val@U?$_List_simple_types@U?$pair@$$CBV?$basic_string@DU?$char_traits@D@std@@V?$allocator@D@2@@std@@_K@std@@@std@@@std@@@0@AEAV10@@Z
	??$addressof@V?$_List_unchecked_iterator@V?$_List_val@U?$_List_simple_types@U?$pair@$$CB_KW4CallReaction@internal@testing@@@std@@@std@@@std@@@std@@@std@@YAPEAV?$_List_unchecked_iterator@V?$_List_val@U?$_List_simple_types@U?$pair@$$CB_KW4CallReaction@internal@testing@@@std@@@std@@@std@@@0@AEAV10@@Z
	??$addressof@V?$_List_val@U?$_List_simple_types@U?$pair@$$CBV?$basic_string@DU?$char_traits@D@std@@V?$allocator@D@2@@std@@PEAVTestSuite@testing@@@std@@@std@@@std@@@std@@YAPEAV?$_List_val@U?$_List_simple_types@U?$pair@$$CBV?$basic_string@DU?$char_traits@D@std@@V?$allocator@D@2@@std@@PEAVTestSuite@testing@@@std@@@std@@@0@AEAV10@@Z
	??$addressof@V?$_List_val@U?$_List_simple_types@U?$pair@DPEBD@std@@@std@@@std@@@std@@YAPEAV?$_List_val@U?$_List_simple_types@U?$pair@DPEBD@std@@@std@@@0@AEAV10@@Z
	??$addressof@V?$_List_val@U?$_List_simple_types@V?$basic_string@DU?$char_traits@D@std@@V?$allocator@D@2@@std@@@std@@@std@@@std@@YAPEAV?$_List_val@U?$_List_simple_types@V?$basic_string@DU?$char_traits@D@std@@V?$allocator@D@2@@std@@@std@@@0@AEAV10@@Z
	??$addressof@V?$_String_val@U?$_Simple_types@D@std@@@std@@@std@@YAPEAV?$_String_val@U?$_Simple_types@D@std@@@0@AEAV10@@Z
	??$addressof@V?$_String_val@U?$_Simple_types@_W@std@@@std@@@std@@YAPEAV?$_String_val@U?$_Simple_types@_W@std@@@0@AEAV10@@Z
	??$addressof@V?$_Tree_val@U?$_Tree_simple_types@PEAVUntypedFunctionMockerBase@internal@testing@@@std@@@std@@@std@@YAPEAV?$_Tree_val@U?$_Tree_simple_types@PEAVUntypedFunctionMockerBase@internal@testing@@@std@@@0@AEAV10@@Z
	??$addressof@V?$_Tree_val@U?$_Tree_simple_types@U?$pair@$$CBKV?$map@PEBVThreadLocalBase@internal@testing@@V?$shared_ptr@VThreadLocalValueHolderBase@internal@testing@@@std@@U?$less@PEBVThreadLocalBase@internal@testing@@@5@V?$allocator@U?$pair@QEBVThreadLocalBase@internal@testing@@V?$shared_ptr@VThreadLocalValueHolderBase@internal@testing@@@std@@@std@@@5@@std@@@std@@@std@@@std@@@std@@YAPEAV?$_Tree_val@U?$_Tree_simple_types@U?$pair@$$CBKV?$map@PEBVThreadLocalBase@internal@testing@@V?$shared_ptr@VThreadLocalValueHolderBase@internal@testing@@@std@@U?$less@PEBVThreadLocalBase@internal@testing@@@5@V?$allocator@U?$pair@QEBVThreadLocalBase@internal@testing@@V?$shared_ptr@VThreadLocalValueHolderBase@internal@testing@@@std@@@std@@@5@@std@@@std@@@std@@@0@AEAV10@@Z
	??$addressof@V?$_Tree_val@U?$_Tree_simple_types@U?$pair@$$CBV?$basic_string@DU?$char_traits@D@std@@V?$allocator@D@2@@std@@UCodeLocation@internal@testing@@@std@@@std@@@std@@@std@@YAPEAV?$_Tree_val@U?$_Tree_simple_types@U?$pair@$$CBV?$basic_string@DU?$char_traits@D@std@@V?$allocator@D@2@@std@@UCodeLocation@internal@testing@@@std@@@std@@@0@AEAV10@@Z
	??$addressof@V?$_Tree_val@U?$_Tree_simple_types@U?$pair@$$CBV?$basic_string@DU?$char_traits@D@std@@V?$allocator@D@2@@std@@UTypeParameterizedTestSuiteInfo@TypeParameterizedTestSuiteRegistry@internal@testing@@@std@@@std@@@std@@@std@@YAPEAV?$_Tree_val@U?$_Tree_simple_types@U?$pair@$$CBV?$basic_string@DU?$char_traits@D@std@@V?$allocator@D@2@@std@@UTypeParameterizedTestSuiteInfo@TypeParameterizedTestSuiteRegistry@internal@testing@@@std@@@std@@@0@AEAV10@@Z
	??$addressof@V?$_Tree_val@U?$_Tree_simple_types@U?$pair@$$CBV?$basic_string@DU?$char_traits@D@std@@V?$allocator@D@2@@std@@_K@std@@@std@@@std@@@std@@YAPEAV?$_Tree_val@U?$_Tree_simple_types@U?$pair@$$CBV?$basic_string@DU?$char_traits@D@std@@V?$allocator@D@2@@std@@_K@std@@@std@@@0@AEAV10@@Z
	??$addressof@V?$_Tree_val@U?$_Tree_simple_types@U?$pair@QEBVThreadLocalBase@internal@testing@@V?$shared_ptr@VThreadLocalValueHolderBase@internal@testing@@@std@@@std@@@std@@@std@@@std@@YAPEAV?$_Tree_val@U?$_Tree_simple_types@U?$pair@QEBVThreadLocalBase@internal@testing@@V?$shared_ptr@VThreadLocalValueHolderBase@internal@testing@@@std@@@std@@@std@@@0@AEAV10@@Z
	??$addressof@V?$_Tree_val@U?$_Tree_simple_types@V?$basic_string@DU?$char_traits@D@std@@V?$allocator@D@2@@std@@@std@@@std@@@std@@YAPEAV?$_Tree_val@U?$_Tree_simple_types@V?$basic_string@DU?$char_traits@D@std@@V?$allocator@D@2@@std@@@std@@@0@AEAV10@@Z
	??$addressof@V?$_Tree_val@U?$_Tree_simple_types@VExpectation@testing@@@std@@@std@@@std@@YAPEAV?$_Tree_val@U?$_Tree_simple_types@VExpectation@testing@@@std@@@0@AEAV10@@Z
	??$addressof@V?$_Vector_val@U?$_Simple_types@PEAVEnvironment@testing@@@std@@@std@@@std@@YAPEAV?$_Vector_val@U?$_Simple_types@PEAVEnvironment@testing@@@std@@@0@AEAV10@@Z
	??$addressof@V?$_Vector_val@U?$_Simple_types@PEAVTestEventListener@testing@@@std@@@std@@@std@@YAPEAV?$_Vector_val@U?$_Simple_types@PEAVTestEventListener@testing@@@std@@@0@AEAV10@@Z
	??$addressof@V?$_Vector_val@U?$_Simple_types@PEAVTestInfo@testing@@@std@@@std@@@std@@YAPEAV?$_Vector_val@U?$_Simple_types@PEAVTestInfo@testing@@@std@@@0@AEAV10@@Z
	??$addressof@V?$_Vector_val@U?$_Simple_types@PEAVTestSuite@testing@@@std@@@std@@@std@@YAPEAV?$_Vector_val@U?$_Simple_types@PEAVTestSuite@testing@@@std@@@0@AEAV10@@Z
	??$addressof@V?$_Vector_val@U?$_Simple_types@V?$basic_string@DU?$char_traits@D@std@@V?$allocator@D@2@@std@@@std@@@std@@@std@@YAPEAV?$_Vector_val@U?$_Simple_types@V?$basic_string@DU?$char_traits@D@std@@V?$allocator@D@2@@std@@@std@@@0@AEAV10@@Z
	??$addressof@V?$_Vector_val@U?$_Simple_types@V?$shared_ptr@VExpectationBase@internal@testing@@@std@@@std@@@std@@@std@@YAPEAV?$_Vector_val@U?$_Simple_types@V?$shared_ptr@VExpectationBase@internal@testing@@@std@@@std@@@0@AEAV10@@Z
	??$addressof@V?$_Vector_val@U?$_Simple_types@VTestProperty@testing@@@std@@@std@@@std@@YAPEAV?$_Vector_val@U?$_Simple_types@VTestProperty@testing@@@std@@@0@AEAV10@@Z
	??$addressof@V?$_Vector_val@U?$_Simple_types@W4EditType@edit_distance@internal@testing@@@std@@@std@@@std@@YAPEAV?$_Vector_val@U?$_Simple_types@W4EditType@edit_distance@internal@testing@@@std@@@0@AEAV10@@Z
	??$addressof@V?$basic_ostream@DU?$char_traits@D@std@@@std@@@std@@YAPEAV?$basic_ostream@DU?$char_traits@D@std@@@0@AEAV10@@Z
	??$addressof@V?$basic_string@DU?$char_traits@D@std@@V?$allocator@D@2@@std@@@std@@YAPEAV?$basic_string@DU?$char_traits@D@std@@V?$allocator@D@2@@0@AEAV10@@Z
	??$addressof@V?$basic_stringbuf@DU?$char_traits@D@std@@V?$allocator@D@2@@std@@@std@@YAPEAV?$basic_stringbuf@DU?$char_traits@D@std@@V?$allocator@D@2@@0@AEAV10@@Z
	??$addressof@V?$list@U?$pair@DPEBD@std@@V?$allocator@U?$pair@DPEBD@std@@@2@@std@@@std@@YAPEAV?$list@U?$pair@DPEBD@std@@V?$allocator@U?$pair@DPEBD@std@@@2@@0@AEAV10@@Z
	??$addressof@V?$shared_ptr@VThreadLocalValueHolderBase@internal@testing@@@std@@@std@@YAPEAV?$shared_ptr@VThreadLocalValueHolderBase@internal@testing@@@0@AEAV10@@Z
	??$addressof@V?$unordered_set@V?$basic_string@DU?$char_traits@D@std@@V?$allocator@D@2@@std@@U?$hash@V?$basic_string@DU?$char_traits@D@std@@V?$allocator@D@2@@std@@@2@U?$equal_to@V?$basic_string@DU?$char_traits@D@std@@V?$allocator@D@2@@std@@@2@V?$allocator@V?$basic_string@DU?$char_traits@D@std@@V?$allocator@D@2@@std@@@2@@std@@@std@@YAPEAV?$unordered_set@V?$basic_string@DU?$char_traits@D@std@@V?$allocator@D@2@@std@@U?$hash@V?$basic_string@DU?$char_traits@D@std@@V?$allocator@D@2@@std@@@2@U?$equal_to@V?$basic_string@DU?$char_traits@D@std@@V?$allocator@D@2@@std@@@2@V?$allocator@V?$basic_string@DU?$char_traits@D@std@@V?$allocator@D@2@@std@@@2@@0@AEAV10@@Z
	??$addressof@V?$vector@V?$basic_string@DU?$char_traits@D@std@@V?$allocator@D@2@@std@@V?$allocator@V?$basic_string@DU?$char_traits@D@std@@V?$allocator@D@2@@std@@@2@@std@@@std@@YAPEAV?$vector@V?$basic_string@DU?$char_traits@D@std@@V?$allocator@D@2@@std@@V?$allocator@V?$basic_string@DU?$char_traits@D@std@@V?$allocator@D@2@@std@@@2@@0@AEAV10@@Z
	??$addressof@V?$vector@V?$shared_ptr@VExpectationBase@internal@testing@@@std@@V?$allocator@V?$shared_ptr@VExpectationBase@internal@testing@@@std@@@2@@std@@@std@@YAPEAV?$vector@V?$shared_ptr@VExpectationBase@internal@testing@@@std@@V?$allocator@V?$shared_ptr@VExpectationBase@internal@testing@@@std@@@2@@0@AEAV10@@Z
	??$addressof@VExpectation@testing@@@std@@YAPEAVExpectation@testing@@AEAV12@@Z
	??$addressof@Vmutex@std@@@std@@YAPEAVmutex@0@AEAV10@@Z
	??$addressof@W4EditType@edit_distance@internal@testing@@@std@@YAPEAW4EditType@edit_distance@internal@testing@@AEAW41234@@Z
	??$addressof@_K@std@@YAPEA_KAEA_K@Z
	??$advance@PEAPEAVTestInfo@testing@@_J@std@@YAXAEAPEAPEAVTestInfo@testing@@_J@Z
	??$advance@V?$_String_iterator@V?$_String_val@U?$_Simple_types@D@std@@@std@@@std@@_J@std@@YAXAEAV?$_String_iterator@V?$_String_val@U?$_Simple_types@D@std@@@std@@@0@_J@Z
	??$construct@DAEBD@?$_Default_allocator_traits@V?$allocator@D@std@@@std@@SAXAEAV?$allocator@D@1@QEADAEBD@Z
	??$construct@HH@?$_Default_allocator_traits@V?$allocator@H@std@@@std@@SAXAEAV?$allocator@H@1@QEAH$$QEAH@Z
	??$construct@N$$V@?$_Default_allocator_traits@V?$allocator@N@std@@@std@@SAXAEAV?$allocator@N@1@QEAN@Z
	??$construct@NAEAN@?$_Default_allocator_traits@V?$allocator@N@std@@@std@@SAXAEAV?$allocator@N@1@QEANAEAN@Z
	??$construct@PEAVEnvironment@testing@@AEBQEAV12@@?$_Default_allocator_traits@V?$allocator@PEAVEnvironment@testing@@@std@@@std@@SAXAEAV?$allocator@PEAVEnvironment@testing@@@1@QEAPEAVEnvironment@testing@@AEBQEAV34@@Z
	??$construct@PEAVEnvironment@testing@@PEAV12@@?$_Default_allocator_traits@V?$allocator@PEAVEnvironment@testing@@@std@@@std@@SAXAEAV?$allocator@PEAVEnvironment@testing@@@1@QEAPEAVEnvironment@testing@@$$QEAPEAV34@@Z
	??$construct@PEAVExpectationBase@internal@testing@@AEBQEAV123@@?$_Default_allocator_traits@V?$allocator@PEAVExpectationBase@internal@testing@@@std@@@std@@SAXAEAV?$allocator@PEAVExpectationBase@internal@testing@@@1@QEAPEAVExpectationBase@internal@testing@@AEBQEAV345@@Z
	??$construct@PEAVExpectationBase@internal@testing@@PEAV123@@?$_Default_allocator_traits@V?$allocator@PEAVExpectationBase@internal@testing@@@std@@@std@@SAXAEAV?$allocator@PEAVExpectationBase@internal@testing@@@1@QEAPEAVExpectationBase@internal@testing@@$$QEAPEAV345@@Z
	??$construct@PEAVTestEventListener@testing@@AEBQEAV12@@?$_Default_allocator_traits@V?$allocator@PEAVTestEventListener@testing@@@std@@@std@@SAXAEAV?$allocator@PEAVTestEventListener@testing@@@1@QEAPEAVTestEventListener@testing@@AEBQEAV34@@Z
	??$construct@PEAVTestEventListener@testing@@PEAV12@@?$_Default_allocator_traits@V?$allocator@PEAVTestEventListener@testing@@@std@@@std@@SAXAEAV?$allocator@PEAVTestEventListener@testing@@@1@QEAPEAVTestEventListener@testing@@$$QEAPEAV34@@Z
	??$construct@PEAVTestInfo@testing@@AEBQEAV12@@?$_Default_allocator_traits@V?$allocator@PEAVTestInfo@testing@@@std@@@std@@SAXAEAV?$allocator@PEAVTestInfo@testing@@@1@QEAPEAVTestInfo@testing@@AEBQEAV34@@Z
	??$construct@PEAVTestInfo@testing@@PEAV12@@?$_Default_allocator_traits@V?$allocator@PEAVTestInfo@testing@@@std@@@std@@SAXAEAV?$allocator@PEAVTestInfo@testing@@@1@QEAPEAVTestInfo@testing@@$$QEAPEAV34@@Z
	??$construct@PEAVTestSuite@testing@@AEBQEAV12@@?$_Default_allocator_traits@V?$allocator@PEAVTestSuite@testing@@@std@@@std@@SAXAEAV?$allocator@PEAVTestSuite@testing@@@1@QEAPEAVTestSuite@testing@@AEBQEAV34@@Z
	??$construct@PEAVTestSuite@testing@@PEAV12@@?$_Default_allocator_traits@V?$allocator@PEAVTestSuite@testing@@@std@@@std@@SAXAEAV?$allocator@PEAVTestSuite@testing@@@1@QEAPEAVTestSuite@testing@@$$QEAPEAV34@@Z
	??$construct@PEAVUntypedFunctionMockerBase@internal@testing@@AEBQEAV123@@?$_Default_allocator_traits@V?$allocator@U?$_Tree_node@PEAVUntypedFunctionMockerBase@internal@testing@@PEAX@std@@@std@@@std@@SAXAEAV?$allocator@U?$_Tree_node@PEAVUntypedFunctionMockerBase@internal@testing@@PEAX@std@@@1@QEAPEAVUntypedFunctionMockerBase@internal@testing@@AEBQEAV345@@Z
	??$construct@PEBVExpectationBase@internal@testing@@AEBQEBV123@@?$_Default_allocator_traits@V?$allocator@PEBVExpectationBase@internal@testing@@@std@@@std@@SAXAEAV?$allocator@PEBVExpectationBase@internal@testing@@@1@QEAPEBVExpectationBase@internal@testing@@AEBQEBV345@@Z
	??$construct@PEBVExpectationBase@internal@testing@@PEBV123@@?$_Default_allocator_traits@V?$allocator@PEBVExpectationBase@internal@testing@@@std@@@std@@SAXAEAV?$allocator@PEBVExpectationBase@internal@testing@@@1@QEAPEBVExpectationBase@internal@testing@@$$QEAPEBV345@@Z
	??$construct@U?$pair@$$CBKV?$map@PEBVThreadLocalBase@internal@testing@@V?$shared_ptr@VThreadLocalValueHolderBase@internal@testing@@@std@@U?$less@PEBVThreadLocalBase@internal@testing@@@5@V?$allocator@U?$pair@QEBVThreadLocalBase@internal@testing@@V?$shared_ptr@VThreadLocalValueHolderBase@internal@testing@@@std@@@std@@@5@@std@@@std@@U?$pair@KV?$map@PEBVThreadLocalBase@internal@testing@@V?$shared_ptr@VThreadLocalValueHolderBase@internal@testing@@@std@@U?$less@PEBVThreadLocalBase@internal@testing@@@5@V?$allocator@U?$pair@QEBVThreadLocalBase@internal@testing@@V?$shared_ptr@VThreadLocalValueHolderBase@internal@testing@@@std@@@std@@@5@@std@@@2@@?$_Default_allocator_traits@V?$allocator@U?$_Tree_node@U?$pair@$$CBKV?$map@PEBVThreadLocalBase@internal@testing@@V?$shared_ptr@VThreadLocalValueHolderBase@internal@testing@@@std@@U?$less@PEBVThreadLocalBase@internal@testing@@@5@V?$allocator@U?$pair@QEBVThreadLocalBase@internal@testing@@V?$shared_ptr@VThreadLocalValueHolderBase@internal@testing@@@std@@@std@@@5@@std@@@std@@PEAX@std@@@std@@@std@@SAXAEAV?$allocator@U?$_Tree_node@U?$pair@$$CBKV?$map@PEBVThreadLocalBase@internal@testing@@V?$shared_ptr@VThreadLocalValueHolderBase@internal@testing@@@std@@U?$less@PEBVThreadLocalBase@internal@testing@@@5@V?$allocator@U?$pair@QEBVThreadLocalBase@internal@testing@@V?$shared_ptr@VThreadLocalValueHolderBase@internal@testing@@@std@@@std@@@5@@std@@@std@@PEAX@std@@@1@QEAU?$pair@$$CBKV?$map@PEBVThreadLocalBase@internal@testing@@V?$shared_ptr@VThreadLocalValueHolderBase@internal@testing@@@std@@U?$less@PEBVThreadLocalBase@internal@testing@@@5@V?$allocator@U?$pair@QEBVThreadLocalBase@internal@testing@@V?$shared_ptr@VThreadLocalValueHolderBase@internal@testing@@@std@@@std@@@5@@std@@@1@$$QEAU?$pair@KV?$map@PEBVThreadLocalBase@internal@testing@@V?$shared_ptr@VThreadLocalValueHolderBase@internal@testing@@@std@@U?$less@PEBVThreadLocalBase@internal@testing@@@5@V?$allocator@U?$pair@QEBVThreadLocalBase@internal@testing@@V?$shared_ptr@VThreadLocalValueHolderBase@internal@testing@@@std@@@std@@@5@@std@@@1@@Z
	??$construct@U?$pair@$$CBV?$basic_string@DU?$char_traits@D@std@@V?$allocator@D@2@@std@@PEAVTestSuite@testing@@@std@@AEBV?$basic_string@DU?$char_traits@D@std@@V?$allocator@D@2@@2@AEBQEAVTestSuite@testing@@@?$_Default_allocator_traits@V?$allocator@U?$_List_node@U?$pair@$$CBV?$basic_string@DU?$char_traits@D@std@@V?$allocator@D@2@@std@@PEAVTestSuite@testing@@@std@@PEAX@std@@@std@@@std@@SAXAEAV?$allocator@U?$_List_node@U?$pair@$$CBV?$basic_string@DU?$char_traits@D@std@@V?$allocator@D@2@@std@@PEAVTestSuite@testing@@@std@@PEAX@std@@@1@QEAU?$pair@$$CBV?$basic_string@DU?$char_traits@D@std@@V?$allocator@D@2@@std@@PEAVTestSuite@testing@@@1@AEBV?$basic_string@DU?$char_traits@D@std@@V?$allocator@D@2@@1@AEBQEAVTestSuite@testing@@@Z
	??$construct@U?$pair@$$CBV?$basic_string@DU?$char_traits@D@std@@V?$allocator@D@2@@std@@UTypeParameterizedTestSuiteInfo@TypeParameterizedTestSuiteRegistry@internal@testing@@@std@@V?$basic_string@DU?$char_traits@D@std@@V?$allocator@D@2@@2@UTypeParameterizedTestSuiteInfo@TypeParameterizedTestSuiteRegistry@internal@testing@@@?$_Default_allocator_traits@V?$allocator@U?$_Tree_node@U?$pair@$$CBV?$basic_string@DU?$char_traits@D@std@@V?$allocator@D@2@@std@@UTypeParameterizedTestSuiteInfo@TypeParameterizedTestSuiteRegistry@internal@testing@@@std@@PEAX@std@@@std@@@std@@SAXAEAV?$allocator@U?$_Tree_node@U?$pair@$$CBV?$basic_string@DU?$char_traits@D@std@@V?$allocator@D@2@@std@@UTypeParameterizedTestSuiteInfo@TypeParameterizedTestSuiteRegistry@internal@testing@@@std@@PEAX@std@@@1@QEAU?$pair@$$CBV?$basic_string@DU?$char_traits@D@std@@V?$allocator@D@2@@std@@UTypeParameterizedTestSuiteInfo@TypeParameterizedTestSuiteRegistry@internal@testing@@@1@$$QEAV?$basic_string@DU?$char_traits@D@std@@V?$allocator@D@2@@1@$$QEAUTypeParameterizedTestSuiteInfo@TypeParameterizedTestSuiteRegistry@internal@testing@@@Z
	??$construct@U?$pair@$$CBV?$basic_string@DU?$char_traits@D@std@@V?$allocator@D@2@@std@@_K@std@@AEBUpiecewise_construct_t@2@V?$tuple@AEBV?$basic_string@DU?$char_traits@D@std@@V?$allocator@D@2@@std@@@2@V?$tuple@$$V@2@@?$_Default_allocator_traits@V?$allocator@U?$_Tree_node@U?$pair@$$CBV?$basic_string@DU?$char_traits@D@std@@V?$allocator@D@2@@std@@_K@std@@PEAX@std@@@std@@@std@@SAXAEAV?$allocator@U?$_Tree_node@U?$pair@$$CBV?$basic_string@DU?$char_traits@D@std@@V?$allocator@D@2@@std@@_K@std@@PEAX@std@@@1@QEAU?$pair@$$CBV?$basic_string@DU?$char_traits@D@std@@V?$allocator@D@2@@std@@_K@1@AEBUpiecewise_construct_t@1@$$QEAV?$tuple@AEBV?$basic_string@DU?$char_traits@D@std@@V?$allocator@D@2@@std@@@1@$$QEAV?$tuple@$$V@1@@Z
	??$construct@U?$pair@$$CB_KW4CallReaction@internal@testing@@@std@@AEBUpiecewise_construct_t@2@V?$tuple@$$QEA_K@2@V?$tuple@$$V@2@@?$_Default_allocator_traits@V?$allocator@U?$_List_node@U?$pair@$$CB_KW4CallReaction@internal@testing@@@std@@PEAX@std@@@std@@@std@@SAXAEAV?$allocator@U?$_List_node@U?$pair@$$CB_KW4CallReaction@internal@testing@@@std@@PEAX@std@@@1@QEAU?$pair@$$CB_KW4CallReaction@internal@testing@@@1@AEBUpiecewise_construct_t@1@$$QEAV?$tuple@$$QEA_K@1@$$QEAV?$tuple@$$V@1@@Z
	??$construct@U?$pair@$$CB_KW4CallReaction@internal@testing@@@std@@AEBUpiecewise_construct_t@2@V?$tuple@AEB_K@2@V?$tuple@$$V@2@@?$_Default_allocator_traits@V?$allocator@U?$_List_node@U?$pair@$$CB_KW4CallReaction@internal@testing@@@std@@PEAX@std@@@std@@@std@@SAXAEAV?$allocator@U?$_List_node@U?$pair@$$CB_KW4CallReaction@internal@testing@@@std@@PEAX@std@@@1@QEAU?$pair@$$CB_KW4CallReaction@internal@testing@@@1@AEBUpiecewise_construct_t@1@$$QEAV?$tuple@AEB_K@1@$$QEAV?$tuple@$$V@1@@Z
	??$construct@U?$pair@DPEBD@std@@U12@@?$_Default_allocator_traits@V?$allocator@U?$_List_node@U?$pair@DPEBD@std@@PEAX@std@@@std@@@std@@SAXAEAV?$allocator@U?$_List_node@U?$pair@DPEBD@std@@PEAX@std@@@1@QEAU?$pair@DPEBD@1@$$QEAU31@@Z
	??$construct@U?$pair@QEBVThreadLocalBase@internal@testing@@V?$shared_ptr@VThreadLocalValueHolderBase@internal@testing@@@std@@@std@@U?$pair@PEBVThreadLocalBase@internal@testing@@V?$shared_ptr@VThreadLocalValueHolderBase@internal@testing@@@std@@@2@@?$_Default_allocator_traits@V?$allocator@U?$_Tree_node@U?$pair@QEBVThreadLocalBase@internal@testing@@V?$shared_ptr@VThreadLocalValueHolderBase@internal@testing@@@std@@@std@@PEAX@std@@@std@@@std@@SAXAEAV?$allocator@U?$_Tree_node@U?$pair@QEBVThreadLocalBase@internal@testing@@V?$shared_ptr@VThreadLocalValueHolderBase@internal@testing@@@std@@@std@@PEAX@std@@@1@QEAU?$pair@QEBVThreadLocalBase@internal@testing@@V?$shared_ptr@VThreadLocalValueHolderBase@internal@testing@@@std@@@1@$$QEAU?$pair@PEBVThreadLocalBase@internal@testing@@V?$shared_ptr@VThreadLocalValueHolderBase@internal@testing@@@std@@@1@@Z
	??$construct@U?$pair@_K_K@std@@U12@@?$_Default_allocator_traits@V?$allocator@U?$pair@_K_K@std@@@std@@@std@@SAXAEAV?$allocator@U?$pair@_K_K@std@@@1@QEAU?$pair@_K_K@1@$$QEAU31@@Z
	??$construct@UTraceInfo@internal@testing@@AEBU123@@?$_Default_allocator_traits@V?$allocator@UTraceInfo@internal@testing@@@std@@@std@@SAXAEAV?$allocator@UTraceInfo@internal@testing@@@1@QEAUTraceInfo@internal@testing@@AEBU345@@Z
	??$construct@UTraceInfo@internal@testing@@U123@@?$_Default_allocator_traits@V?$allocator@UTraceInfo@internal@testing@@@std@@@std@@SAXAEAV?$allocator@UTraceInfo@internal@testing@@@1@QEAUTraceInfo@internal@testing@@$$QEAU345@@Z
	??$construct@V?$basic_string@DU?$char_traits@D@std@@V?$allocator@D@2@@std@@AEAV12@@?$_Default_allocator_traits@V?$allocator@V?$basic_string@DU?$char_traits@D@std@@V?$allocator@D@2@@std@@@std@@@std@@SAXAEAV?$allocator@V?$basic_string@DU?$char_traits@D@std@@V?$allocator@D@2@@std@@@1@QEAV?$basic_string@DU?$char_traits@D@std@@V?$allocator@D@2@@1@AEAV31@@Z
	??$construct@V?$basic_string@DU?$char_traits@D@std@@V?$allocator@D@2@@std@@AEBQEBD@?$_Default_allocator_traits@V?$allocator@V?$basic_string@DU?$char_traits@D@std@@V?$allocator@D@2@@std@@@std@@@std@@SAXAEAV?$allocator@V?$basic_string@DU?$char_traits@D@std@@V?$allocator@D@2@@std@@@1@QEAV?$basic_string@DU?$char_traits@D@std@@V?$allocator@D@2@@1@AEBQEBD@Z
	??$construct@V?$basic_string@DU?$char_traits@D@std@@V?$allocator@D@2@@std@@AEBV12@@?$_Default_allocator_traits@V?$allocator@U?$_Tree_node@V?$basic_string@DU?$char_traits@D@std@@V?$allocator@D@2@@std@@PEAX@std@@@std@@@std@@SAXAEAV?$allocator@U?$_Tree_node@V?$basic_string@DU?$char_traits@D@std@@V?$allocator@D@2@@std@@PEAX@std@@@1@QEAV?$basic_string@DU?$char_traits@D@std@@V?$allocator@D@2@@1@AEBV31@@Z
	??$construct@V?$basic_string@DU?$char_traits@D@std@@V?$allocator@D@2@@std@@AEBV12@@?$_Default_allocator_traits@V?$allocator@V?$basic_string@DU?$char_traits@D@std@@V?$allocator@D@2@@std@@@std@@@std@@SAXAEAV?$allocator@V?$basic_string@DU?$char_traits@D@std@@V?$allocator@D@2@@std@@@1@QEAV?$basic_string@DU?$char_traits@D@std@@V?$allocator@D@2@@1@AEBV31@@Z
	??$construct@V?$basic_string@DU?$char_traits@D@std@@V?$allocator@D@2@@std@@V12@@?$_Default_allocator_traits@V?$allocator@U?$_List_node@V?$basic_string@DU?$char_traits@D@std@@V?$allocator@D@2@@std@@PEAX@std@@@std@@@std@@SAXAEAV?$allocator@U?$_List_node@V?$basic_string@DU?$char_traits@D@std@@V?$allocator@D@2@@std@@PEAX@std@@@1@QEAV?$basic_string@DU?$char_traits@D@std@@V?$allocator@D@2@@1@$$QEAV31@@Z
	??$construct@V?$basic_string@DU?$char_traits@D@std@@V?$allocator@D@2@@std@@V12@@?$_Default_allocator_traits@V?$allocator@U?$_Tree_node@V?$basic_string@DU?$char_traits@D@std@@V?$allocator@D@2@@std@@PEAX@std@@@std@@@std@@SAXAEAV?$allocator@U?$_Tree_node@V?$basic_string@DU?$char_traits@D@std@@V?$allocator@D@2@@std@@PEAX@std@@@1@QEAV?$basic_string@DU?$char_traits@D@std@@V?$allocator@D@2@@1@$$QEAV31@@Z
	??$construct@V?$basic_string@DU?$char_traits@D@std@@V?$allocator@D@2@@std@@V12@@?$_Default_allocator_traits@V?$allocator@V?$basic_string@DU?$char_traits@D@std@@V?$allocator@D@2@@std@@@std@@@std@@SAXAEAV?$allocator@V?$basic_string@DU?$char_traits@D@std@@V?$allocator@D@2@@std@@@1@QEAV?$basic_string@DU?$char_traits@D@std@@V?$allocator@D@2@@1@$$QEAV31@@Z
	??$construct@V?$shared_ptr@VThreadLocalValueHolderBase@internal@testing@@@std@@AEBV12@@?$_Default_allocator_traits@V?$allocator@V?$shared_ptr@VThreadLocalValueHolderBase@internal@testing@@@std@@@std@@@std@@SAXAEAV?$allocator@V?$shared_ptr@VThreadLocalValueHolderBase@internal@testing@@@std@@@1@QEAV?$shared_ptr@VThreadLocalValueHolderBase@internal@testing@@@1@AEBV31@@Z
	??$construct@V?$shared_ptr@VThreadLocalValueHolderBase@internal@testing@@@std@@V12@@?$_Default_allocator_traits@V?$allocator@V?$shared_ptr@VThreadLocalValueHolderBase@internal@testing@@@std@@@std@@@std@@SAXAEAV?$allocator@V?$shared_ptr@VThreadLocalValueHolderBase@internal@testing@@@std@@@1@QEAV?$shared_ptr@VThreadLocalValueHolderBase@internal@testing@@@1@$$QEAV31@@Z
	??$construct@V?$vector@NV?$allocator@N@std@@@std@@AEBV12@@?$_Default_allocator_traits@V?$allocator@V?$vector@NV?$allocator@N@std@@@std@@@std@@@std@@SAXAEAV?$allocator@V?$vector@NV?$allocator@N@std@@@std@@@1@QEAV?$vector@NV?$allocator@N@std@@@1@AEBV31@@Z
	??$construct@V?$vector@W4EditType@edit_distance@internal@testing@@V?$allocator@W4EditType@edit_distance@internal@testing@@@std@@@std@@AEBV12@@?$_Default_allocator_traits@V?$allocator@V?$vector@W4EditType@edit_distance@internal@testing@@V?$allocator@W4EditType@edit_distance@internal@testing@@@std@@@std@@@std@@@std@@SAXAEAV?$allocator@V?$vector@W4EditType@edit_distance@internal@testing@@V?$allocator@W4EditType@edit_distance@internal@testing@@@std@@@std@@@1@QEAV?$vector@W4EditType@edit_distance@internal@testing@@V?$allocator@W4EditType@edit_distance@internal@testing@@@std@@@1@AEBV31@@Z
	??$construct@VExpectation@testing@@AEBV12@@?$_Default_allocator_traits@V?$allocator@U?$_Tree_node@VExpectation@testing@@PEAX@std@@@std@@@std@@SAXAEAV?$allocator@U?$_Tree_node@VExpectation@testing@@PEAX@std@@@1@QEAVExpectation@testing@@AEBV34@@Z
	??$construct@VTestPartResult@testing@@AEBV12@@?$_Default_allocator_traits@V?$allocator@VTestPartResult@testing@@@std@@@std@@SAXAEAV?$allocator@VTestPartResult@testing@@@1@QEAVTestPartResult@testing@@AEBV34@@Z
	??$construct@VTestPartResult@testing@@V12@@?$_Default_allocator_traits@V?$allocator@VTestPartResult@testing@@@std@@@std@@SAXAEAV?$allocator@VTestPartResult@testing@@@1@QEAVTestPartResult@testing@@$$QEAV34@@Z
	??$construct@VTestProperty@testing@@AEBV12@@?$_Default_allocator_traits@V?$allocator@VTestProperty@testing@@@std@@@std@@SAXAEAV?$allocator@VTestProperty@testing@@@1@QEAVTestProperty@testing@@AEBV34@@Z
	??$construct@VTestProperty@testing@@V12@@?$_Default_allocator_traits@V?$allocator@VTestProperty@testing@@@std@@@std@@SAXAEAV?$allocator@VTestProperty@testing@@@1@QEAVTestProperty@testing@@$$QEAV34@@Z
	??$construct@W4EditType@edit_distance@internal@testing@@$$V@?$_Default_allocator_traits@V?$allocator@W4EditType@edit_distance@internal@testing@@@std@@@std@@SAXAEAV?$allocator@W4EditType@edit_distance@internal@testing@@@1@QEAW4EditType@edit_distance@internal@testing@@@Z
	??$construct@W4EditType@edit_distance@internal@testing@@AEAW41234@@?$_Default_allocator_traits@V?$allocator@W4EditType@edit_distance@internal@testing@@@std@@@std@@SAXAEAV?$allocator@W4EditType@edit_distance@internal@testing@@@1@QEAW4EditType@edit_distance@internal@testing@@AEAW43456@@Z
	??$construct@W4EditType@edit_distance@internal@testing@@AEBW41234@@?$_Default_allocator_traits@V?$allocator@W4EditType@edit_distance@internal@testing@@@std@@@std@@SAXAEAV?$allocator@W4EditType@edit_distance@internal@testing@@@1@QEAW4EditType@edit_distance@internal@testing@@AEBW43456@@Z
	??$construct@W4EditType@edit_distance@internal@testing@@W41234@@?$_Default_allocator_traits@V?$allocator@W4EditType@edit_distance@internal@testing@@@std@@@std@@SAXAEAV?$allocator@W4EditType@edit_distance@internal@testing@@@1@QEAW4EditType@edit_distance@internal@testing@@$$QEAW43456@@Z
	??$construct@_KAEB_K@?$_Default_allocator_traits@V?$allocator@_K@std@@@std@@SAXAEAV?$allocator@_K@1@QEA_KAEB_K@Z
	??$construct@_K_K@?$_Default_allocator_traits@V?$allocator@_K@std@@@std@@SAXAEAV?$allocator@_K@1@QEA_K$$QEA_K@Z
	??$destroy@PEAVExpectationBase@internal@testing@@@?$_Default_allocator_traits@V?$allocator@PEAVExpectationBase@internal@testing@@@std@@@std@@SAXAEAV?$allocator@PEAVExpectationBase@internal@testing@@@1@QEAPEAVExpectationBase@internal@testing@@@Z
	??$destroy@PEAVTestEventListener@testing@@@?$_Default_allocator_traits@V?$allocator@PEAVTestEventListener@testing@@@std@@@std@@SAXAEAV?$allocator@PEAVTestEventListener@testing@@@1@QEAPEAVTestEventListener@testing@@@Z
	??$destroy@PEAVTestSuite@testing@@@?$_Default_allocator_traits@V?$allocator@PEAVTestSuite@testing@@@std@@@std@@SAXAEAV?$allocator@PEAVTestSuite@testing@@@1@QEAPEAVTestSuite@testing@@@Z
	??$destroy@PEAVUntypedFunctionMockerBase@internal@testing@@@?$_Default_allocator_traits@V?$allocator@U?$_Tree_node@PEAVUntypedFunctionMockerBase@internal@testing@@PEAX@std@@@std@@@std@@SAXAEAV?$allocator@U?$_Tree_node@PEAVUntypedFunctionMockerBase@internal@testing@@PEAX@std@@@1@QEAPEAVUntypedFunctionMockerBase@internal@testing@@@Z
	??$destroy@PEBVExpectationBase@internal@testing@@@?$_Default_allocator_traits@V?$allocator@PEBVExpectationBase@internal@testing@@@std@@@std@@SAXAEAV?$allocator@PEBVExpectationBase@internal@testing@@@1@QEAPEBVExpectationBase@internal@testing@@@Z
	??$destroy@U?$pair@$$CBKV?$map@PEBVThreadLocalBase@internal@testing@@V?$shared_ptr@VThreadLocalValueHolderBase@internal@testing@@@std@@U?$less@PEBVThreadLocalBase@internal@testing@@@5@V?$allocator@U?$pair@QEBVThreadLocalBase@internal@testing@@V?$shared_ptr@VThreadLocalValueHolderBase@internal@testing@@@std@@@std@@@5@@std@@@std@@@?$_Default_allocator_traits@V?$allocator@U?$_Tree_node@U?$pair@$$CBKV?$map@PEBVThreadLocalBase@internal@testing@@V?$shared_ptr@VThreadLocalValueHolderBase@internal@testing@@@std@@U?$less@PEBVThreadLocalBase@internal@testing@@@5@V?$allocator@U?$pair@QEBVThreadLocalBase@internal@testing@@V?$shared_ptr@VThreadLocalValueHolderBase@internal@testing@@@std@@@std@@@5@@std@@@std@@PEAX@std@@@std@@@std@@SAXAEAV?$allocator@U?$_Tree_node@U?$pair@$$CBKV?$map@PEBVThreadLocalBase@internal@testing@@V?$shared_ptr@VThreadLocalValueHolderBase@internal@testing@@@std@@U?$less@PEBVThreadLocalBase@internal@testing@@@5@V?$allocator@U?$pair@QEBVThreadLocalBase@internal@testing@@V?$shared_ptr@VThreadLocalValueHolderBase@internal@testing@@@std@@@std@@@5@@std@@@std@@PEAX@std@@@1@QEAU?$pair@$$CBKV?$map@PEBVThreadLocalBase@internal@testing@@V?$shared_ptr@VThreadLocalValueHolderBase@internal@testing@@@std@@U?$less@PEBVThreadLocalBase@internal@testing@@@5@V?$allocator@U?$pair@QEBVThreadLocalBase@internal@testing@@V?$shared_ptr@VThreadLocalValueHolderBase@internal@testing@@@std@@@std@@@5@@std@@@1@@Z
	??$destroy@U?$pair@$$CBV?$basic_string@DU?$char_traits@D@std@@V?$allocator@D@2@@std@@PEAVTestSuite@testing@@@std@@@?$_Default_allocator_traits@V?$allocator@U?$_List_node@U?$pair@$$CBV?$basic_string@DU?$char_traits@D@std@@V?$allocator@D@2@@std@@PEAVTestSuite@testing@@@std@@PEAX@std@@@std@@@std@@SAXAEAV?$allocator@U?$_List_node@U?$pair@$$CBV?$basic_string@DU?$char_traits@D@std@@V?$allocator@D@2@@std@@PEAVTestSuite@testing@@@std@@PEAX@std@@@1@QEAU?$pair@$$CBV?$basic_string@DU?$char_traits@D@std@@V?$allocator@D@2@@std@@PEAVTestSuite@testing@@@1@@Z
	??$destroy@U?$pair@$$CBV?$basic_string@DU?$char_traits@D@std@@V?$allocator@D@2@@std@@UTypeParameterizedTestSuiteInfo@TypeParameterizedTestSuiteRegistry@internal@testing@@@std@@@?$_Default_allocator_traits@V?$allocator@U?$_Tree_node@U?$pair@$$CBV?$basic_string@DU?$char_traits@D@std@@V?$allocator@D@2@@std@@UTypeParameterizedTestSuiteInfo@TypeParameterizedTestSuiteRegistry@internal@testing@@@std@@PEAX@std@@@std@@@std@@SAXAEAV?$allocator@U?$_Tree_node@U?$pair@$$CBV?$basic_string@DU?$char_traits@D@std@@V?$allocator@D@2@@std@@UTypeParameterizedTestSuiteInfo@TypeParameterizedTestSuiteRegistry@internal@testing@@@std@@PEAX@std@@@1@QEAU?$pair@$$CBV?$basic_string@DU?$char_traits@D@std@@V?$allocator@D@2@@std@@UTypeParameterizedTestSuiteInfo@TypeParameterizedTestSuiteRegistry@internal@testing@@@1@@Z
	??$destroy@U?$pair@$$CBV?$basic_string@DU?$char_traits@D@std@@V?$allocator@D@2@@std@@_K@std@@@?$_Default_allocator_traits@V?$allocator@U?$_List_node@U?$pair@$$CBV?$basic_string@DU?$char_traits@D@std@@V?$allocator@D@2@@std@@_K@std@@PEAX@std@@@std@@@std@@SAXAEAV?$allocator@U?$_List_node@U?$pair@$$CBV?$basic_string@DU?$char_traits@D@std@@V?$allocator@D@2@@std@@_K@std@@PEAX@std@@@1@QEAU?$pair@$$CBV?$basic_string@DU?$char_traits@D@std@@V?$allocator@D@2@@std@@_K@1@@Z
	??$destroy@U?$pair@$$CBV?$basic_string@DU?$char_traits@D@std@@V?$allocator@D@2@@std@@_K@std@@@?$_Default_allocator_traits@V?$allocator@U?$_Tree_node@U?$pair@$$CBV?$basic_string@DU?$char_traits@D@std@@V?$allocator@D@2@@std@@_K@std@@PEAX@std@@@std@@@std@@SAXAEAV?$allocator@U?$_Tree_node@U?$pair@$$CBV?$basic_string@DU?$char_traits@D@std@@V?$allocator@D@2@@std@@_K@std@@PEAX@std@@@1@QEAU?$pair@$$CBV?$basic_string@DU?$char_traits@D@std@@V?$allocator@D@2@@std@@_K@1@@Z
	??$destroy@U?$pair@$$CB_KW4CallReaction@internal@testing@@@std@@@?$_Default_allocator_traits@V?$allocator@U?$_List_node@U?$pair@$$CB_KW4CallReaction@internal@testing@@@std@@PEAX@std@@@std@@@std@@SAXAEAV?$allocator@U?$_List_node@U?$pair@$$CB_KW4CallReaction@internal@testing@@@std@@PEAX@std@@@1@QEAU?$pair@$$CB_KW4CallReaction@internal@testing@@@1@@Z
	??$destroy@U?$pair@DPEBD@std@@@?$_Default_allocator_traits@V?$allocator@U?$_List_node@U?$pair@DPEBD@std@@PEAX@std@@@std@@@std@@SAXAEAV?$allocator@U?$_List_node@U?$pair@DPEBD@std@@PEAX@std@@@1@QEAU?$pair@DPEBD@1@@Z
	??$destroy@U?$pair@QEBVThreadLocalBase@internal@testing@@V?$shared_ptr@VThreadLocalValueHolderBase@internal@testing@@@std@@@std@@@?$_Default_allocator_traits@V?$allocator@U?$_Tree_node@U?$pair@QEBVThreadLocalBase@internal@testing@@V?$shared_ptr@VThreadLocalValueHolderBase@internal@testing@@@std@@@std@@PEAX@std@@@std@@@std@@SAXAEAV?$allocator@U?$_Tree_node@U?$pair@QEBVThreadLocalBase@internal@testing@@V?$shared_ptr@VThreadLocalValueHolderBase@internal@testing@@@std@@@std@@PEAX@std@@@1@QEAU?$pair@QEBVThreadLocalBase@internal@testing@@V?$shared_ptr@VThreadLocalValueHolderBase@internal@testing@@@std@@@1@@Z
	??$destroy@UTraceInfo@internal@testing@@@?$_Default_allocator_traits@V?$allocator@UTraceInfo@internal@testing@@@std@@@std@@SAXAEAV?$allocator@UTraceInfo@internal@testing@@@1@QEAUTraceInfo@internal@testing@@@Z
	??$destroy@V?$basic_string@DU?$char_traits@D@std@@V?$allocator@D@2@@std@@@?$_Default_allocator_traits@V?$allocator@U?$_List_node@V?$basic_string@DU?$char_traits@D@std@@V?$allocator@D@2@@std@@PEAX@std@@@std@@@std@@SAXAEAV?$allocator@U?$_List_node@V?$basic_string@DU?$char_traits@D@std@@V?$allocator@D@2@@std@@PEAX@std@@@1@QEAV?$basic_string@DU?$char_traits@D@std@@V?$allocator@D@2@@1@@Z
	??$destroy@V?$basic_string@DU?$char_traits@D@std@@V?$allocator@D@2@@std@@@?$_Default_allocator_traits@V?$allocator@U?$_Tree_node@V?$basic_string@DU?$char_traits@D@std@@V?$allocator@D@2@@std@@PEAX@std@@@std@@@std@@SAXAEAV?$allocator@U?$_Tree_node@V?$basic_string@DU?$char_traits@D@std@@V?$allocator@D@2@@std@@PEAX@std@@@1@QEAV?$basic_string@DU?$char_traits@D@std@@V?$allocator@D@2@@1@@Z
	??$destroy@V?$basic_string@DU?$char_traits@D@std@@V?$allocator@D@2@@std@@@?$_Default_allocator_traits@V?$allocator@V?$basic_string@DU?$char_traits@D@std@@V?$allocator@D@2@@std@@@std@@@std@@SAXAEAV?$allocator@V?$basic_string@DU?$char_traits@D@std@@V?$allocator@D@2@@std@@@1@QEAV?$basic_string@DU?$char_traits@D@std@@V?$allocator@D@2@@1@@Z
	??$destroy@V?$shared_ptr@VExpectationBase@internal@testing@@@std@@@?$_Default_allocator_traits@V?$allocator@V?$shared_ptr@VExpectationBase@internal@testing@@@std@@@std@@@std@@SAXAEAV?$allocator@V?$shared_ptr@VExpectationBase@internal@testing@@@std@@@1@QEAV?$shared_ptr@VExpectationBase@internal@testing@@@1@@Z
	??$destroy@V?$shared_ptr@VThreadLocalValueHolderBase@internal@testing@@@std@@@?$_Default_allocator_traits@V?$allocator@V?$shared_ptr@VThreadLocalValueHolderBase@internal@testing@@@std@@@std@@@std@@SAXAEAV?$allocator@V?$shared_ptr@VThreadLocalValueHolderBase@internal@testing@@@std@@@1@QEAV?$shared_ptr@VThreadLocalValueHolderBase@internal@testing@@@1@@Z
	??$destroy@V?$vector@NV?$allocator@N@std@@@std@@@?$_Default_allocator_traits@V?$allocator@V?$vector@NV?$allocator@N@std@@@std@@@std@@@std@@SAXAEAV?$allocator@V?$vector@NV?$allocator@N@std@@@std@@@1@QEAV?$vector@NV?$allocator@N@std@@@1@@Z
	??$destroy@V?$vector@W4EditType@edit_distance@internal@testing@@V?$allocator@W4EditType@edit_distance@internal@testing@@@std@@@std@@@?$_Default_allocator_traits@V?$allocator@V?$vector@W4EditType@edit_distance@internal@testing@@V?$allocator@W4EditType@edit_distance@internal@testing@@@std@@@std@@@std@@@std@@SAXAEAV?$allocator@V?$vector@W4EditType@edit_distance@internal@testing@@V?$allocator@W4EditType@edit_distance@internal@testing@@@std@@@std@@@1@QEAV?$vector@W4EditType@edit_distance@internal@testing@@V?$allocator@W4EditType@edit_distance@internal@testing@@@std@@@1@@Z
	??$destroy@VExpectation@testing@@@?$_Default_allocator_traits@V?$allocator@U?$_Tree_node@VExpectation@testing@@PEAX@std@@@std@@@std@@SAXAEAV?$allocator@U?$_Tree_node@VExpectation@testing@@PEAX@std@@@1@QEAVExpectation@testing@@@Z
	??$destroy@VTestPartResult@testing@@@?$_Default_allocator_traits@V?$allocator@VTestPartResult@testing@@@std@@@std@@SAXAEAV?$allocator@VTestPartResult@testing@@@1@QEAVTestPartResult@testing@@@Z
	??$destroy@VTestProperty@testing@@@?$_Default_allocator_traits@V?$allocator@VTestProperty@testing@@@std@@@std@@SAXAEAV?$allocator@VTestProperty@testing@@@1@QEAVTestProperty@testing@@@Z
	??$distance@PEAPEAVTestInfo@testing@@@std@@YA_JPEAPEAVTestInfo@testing@@0@Z
	??$distance@PEBQEBD@std@@YA_JPEBQEBD0@Z
	??$distance@PEBV?$basic_string@DU?$char_traits@D@std@@V?$allocator@D@2@@std@@@std@@YA_JPEBV?$basic_string@DU?$char_traits@D@std@@V?$allocator@D@2@@0@0@Z
	??$distance@V?$_Tree_unchecked_const_iterator@V?$_Tree_val@U?$_Tree_simple_types@PEAVUntypedFunctionMockerBase@internal@testing@@@std@@@std@@U_Iterator_base0@2@@std@@@std@@YA_JV?$_Tree_unchecked_const_iterator@V?$_Tree_val@U?$_Tree_simple_types@PEAVUntypedFunctionMockerBase@internal@testing@@@std@@@std@@U_Iterator_base0@2@@0@0@Z
	??$distance@V?$_Vector_iterator@V?$_Vector_val@U?$_Simple_types@V?$basic_string@DU?$char_traits@D@std@@V?$allocator@D@2@@std@@@std@@@std@@@std@@@std@@YA_JV?$_Vector_iterator@V?$_Vector_val@U?$_Simple_types@V?$basic_string@DU?$char_traits@D@std@@V?$allocator@D@2@@std@@@std@@@std@@@0@0@Z
	??$duration_cast@V?$duration@_JU?$ratio@$00$0DOI@@std@@@chrono@std@@_JU?$ratio@$00$0DLJKMKAA@@3@$0A@@chrono@std@@YA?AV?$duration@_JU?$ratio@$00$0DOI@@std@@@01@AEBV?$duration@_JU?$ratio@$00$0DLJKMKAA@@std@@@01@@Z
	??$duration_cast@V?$duration@_JU?$ratio@$00$0DOI@@std@@@chrono@std@@_JU?$ratio@$00$0JIJGIA@@3@$0A@@chrono@std@@YA?AV?$duration@_JU?$ratio@$00$0DOI@@std@@@01@AEBV?$duration@_JU?$ratio@$00$0JIJGIA@@std@@@01@@Z
	??$duration_cast@V?$duration@_JU?$ratio@$00$0JIJGIA@@std@@@chrono@std@@_JU?$ratio@$00$00@3@$0A@@chrono@std@@YA?AV?$duration@_JU?$ratio@$00$0JIJGIA@@std@@@01@AEBV?$duration@_JU?$ratio@$00$00@std@@@01@@Z
	??$emplace@AEBQEAVTestSuite@testing@@@?$vector@PEAVTestSuite@testing@@V?$allocator@PEAVTestSuite@testing@@@std@@@std@@QEAA?AV?$_Vector_iterator@V?$_Vector_val@U?$_Simple_types@PEAVTestSuite@testing@@@std@@@std@@@1@V?$_Vector_const_iterator@V?$_Vector_val@U?$_Simple_types@PEAVTestSuite@testing@@@std@@@std@@@1@AEBQEAVTestSuite@testing@@@Z
	??$emplace@AEBV?$basic_string@DU?$char_traits@D@std@@V?$allocator@D@2@@std@@AEBQEAVTestSuite@testing@@@?$_Hash@V?$_Umap_traits@V?$basic_string@DU?$char_traits@D@std@@V?$allocator@D@2@@std@@PEAVTestSuite@testing@@V?$_Uhash_compare@V?$basic_string@DU?$char_traits@D@std@@V?$allocator@D@2@@std@@U?$hash@V?$basic_string@DU?$char_traits@D@std@@V?$allocator@D@2@@std@@@2@U?$equal_to@V?$basic_string@DU?$char_traits@D@std@@V?$allocator@D@2@@std@@@2@@2@V?$allocator@U?$pair@$$CBV?$basic_string@DU?$char_traits@D@std@@V?$allocator@D@2@@std@@PEAVTestSuite@testing@@@std@@@2@$0A@@std@@@std@@QEAA?AU?$pair@V?$_List_iterator@V?$_List_val@U?$_List_simple_types@U?$pair@$$CBV?$basic_string@DU?$char_traits@D@std@@V?$allocator@D@2@@std@@PEAVTestSuite@testing@@@std@@@std@@@std@@@std@@_N@1@AEBV?$basic_string@DU?$char_traits@D@std@@V?$allocator@D@2@@1@AEBQEAVTestSuite@testing@@@Z
	??$emplace@U?$pair@KV?$map@PEBVThreadLocalBase@internal@testing@@V?$shared_ptr@VThreadLocalValueHolderBase@internal@testing@@@std@@U?$less@PEBVThreadLocalBase@internal@testing@@@5@V?$allocator@U?$pair@QEBVThreadLocalBase@internal@testing@@V?$shared_ptr@VThreadLocalValueHolderBase@internal@testing@@@std@@@std@@@5@@std@@@std@@@?$_Tree@V?$_Tmap_traits@KV?$map@PEBVThreadLocalBase@internal@testing@@V?$shared_ptr@VThreadLocalValueHolderBase@internal@testing@@@std@@U?$less@PEBVThreadLocalBase@internal@testing@@@5@V?$allocator@U?$pair@QEBVThreadLocalBase@internal@testing@@V?$shared_ptr@VThreadLocalValueHolderBase@internal@testing@@@std@@@std@@@5@@std@@U?$less@K@2@V?$allocator@U?$pair@$$CBKV?$map@PEBVThreadLocalBase@internal@testing@@V?$shared_ptr@VThreadLocalValueHolderBase@internal@testing@@@std@@U?$less@PEBVThreadLocalBase@internal@testing@@@5@V?$allocator@U?$pair@QEBVThreadLocalBase@internal@testing@@V?$shared_ptr@VThreadLocalValueHolderBase@internal@testing@@@std@@@std@@@5@@std@@@std@@@2@$0A@@std@@@std@@QEAA?AU?$pair@V?$_Tree_iterator@V?$_Tree_val@U?$_Tree_simple_types@U?$pair@$$CBKV?$map@PEBVThreadLocalBase@internal@testing@@V?$shared_ptr@VThreadLocalValueHolderBase@internal@testing@@@std@@U?$less@PEBVThreadLocalBase@internal@testing@@@5@V?$allocator@U?$pair@QEBVThreadLocalBase@internal@testing@@V?$shared_ptr@VThreadLocalValueHolderBase@internal@testing@@@std@@@std@@@5@@std@@@std@@@std@@@std@@@std@@_N@1@$$QEAU?$pair@KV?$map@PEBVThreadLocalBase@internal@testing@@V?$shared_ptr@VThreadLocalValueHolderBase@internal@testing@@@std@@U?$less@PEBVThreadLocalBase@internal@testing@@@5@V?$allocator@U?$pair@QEBVThreadLocalBase@internal@testing@@V?$shared_ptr@VThreadLocalValueHolderBase@internal@testing@@@std@@@std@@@5@@std@@@1@@Z
	??$emplace@U?$pair@PEBVThreadLocalBase@internal@testing@@V?$shared_ptr@VThreadLocalValueHolderBase@internal@testing@@@std@@@std@@@?$_Tree@V?$_Tmap_traits@PEBVThreadLocalBase@internal@testing@@V?$shared_ptr@VThreadLocalValueHolderBase@internal@testing@@@std@@U?$less@PEBVThreadLocalBase@internal@testing@@@5@V?$allocator@U?$pair@QEBVThreadLocalBase@internal@testing@@V?$shared_ptr@VThreadLocalValueHolderBase@internal@testing@@@std@@@std@@@5@$0A@@std@@@std@@QEAA?AU?$pair@V?$_Tree_iterator@V?$_Tree_val@U?$_Tree_simple_types@U?$pair@QEBVThreadLocalBase@internal@testing@@V?$shared_ptr@VThreadLocalValueHolderBase@internal@testing@@@std@@@std@@@std@@@std@@@std@@_N@1@$$QEAU?$pair@PEBVThreadLocalBase@internal@testing@@V?$shared_ptr@VThreadLocalValueHolderBase@internal@testing@@@std@@@1@@Z
	??$emplace@V?$basic_string@DU?$char_traits@D@std@@V?$allocator@D@2@@std@@@?$vector@V?$basic_string@DU?$char_traits@D@std@@V?$allocator@D@2@@std@@V?$allocator@V?$basic_string@DU?$char_traits@D@std@@V?$allocator@D@2@@std@@@2@@std@@QEAA?AV?$_Vector_iterator@V?$_Vector_val@U?$_Simple_types@V?$basic_string@DU?$char_traits@D@std@@V?$allocator@D@2@@std@@@std@@@std@@@1@V?$_Vector_const_iterator@V?$_Vector_val@U?$_Simple_types@V?$basic_string@DU?$char_traits@D@std@@V?$allocator@D@2@@std@@@std@@@std@@@1@$$QEAV?$basic_string@DU?$char_traits@D@std@@V?$allocator@D@2@@1@@Z
	??$emplace@V?$basic_string@DU?$char_traits@D@std@@V?$allocator@D@2@@std@@UTypeParameterizedTestSuiteInfo@TypeParameterizedTestSuiteRegistry@internal@testing@@@?$_Tree@V?$_Tmap_traits@V?$basic_string@DU?$char_traits@D@std@@V?$allocator@D@2@@std@@UTypeParameterizedTestSuiteInfo@TypeParameterizedTestSuiteRegistry@internal@testing@@U?$less@V?$basic_string@DU?$char_traits@D@std@@V?$allocator@D@2@@std@@@2@V?$allocator@U?$pair@$$CBV?$basic_string@DU?$char_traits@D@std@@V?$allocator@D@2@@std@@UTypeParameterizedTestSuiteInfo@TypeParameterizedTestSuiteRegistry@internal@testing@@@std@@@2@$0A@@std@@@std@@QEAA?AU?$pair@V?$_Tree_iterator@V?$_Tree_val@U?$_Tree_simple_types@U?$pair@$$CBV?$basic_string@DU?$char_traits@D@std@@V?$allocator@D@2@@std@@UTypeParameterizedTestSuiteInfo@TypeParameterizedTestSuiteRegistry@internal@testing@@@std@@@std@@@std@@@std@@_N@1@$$QEAV?$basic_string@DU?$char_traits@D@std@@V?$allocator@D@2@@1@$$QEAUTypeParameterizedTestSuiteInfo@TypeParameterizedTestSuiteRegistry@internal@testing@@@Z
	??$emplace_hint@V?$basic_string@DU?$char_traits@D@std@@V?$allocator@D@2@@std@@@?$_Hash@V?$_Uset_traits@V?$basic_string@DU?$char_traits@D@std@@V?$allocator@D@2@@std@@V?$_Uhash_compare@V?$basic_string@DU?$char_traits@D@std@@V?$allocator@D@2@@std@@U?$hash@V?$basic_string@DU?$char_traits@D@std@@V?$allocator@D@2@@std@@@2@U?$equal_to@V?$basic_string@DU?$char_traits@D@std@@V?$allocator@D@2@@std@@@2@@2@V?$allocator@V?$basic_string@DU?$char_traits@D@std@@V?$allocator@D@2@@std@@@2@$0A@@std@@@std@@QEAA?AV?$_List_const_iterator@V?$_List_val@U?$_List_simple_types@V?$basic_string@DU?$char_traits@D@std@@V?$allocator@D@2@@std@@@std@@@std@@@1@V21@$$QEAV?$basic_string@DU?$char_traits@D@std@@V?$allocator@D@2@@1@@Z
	??$endl@DU?$char_traits@D@std@@@std@@YAAEAV?$basic_ostream@DU?$char_traits@D@std@@@0@AEAV10@@Z
	??$erase@V?$_Tree_iterator@V?$_Tree_val@U?$_Tree_simple_types@U?$pair@$$CBKV?$map@PEBVThreadLocalBase@internal@testing@@V?$shared_ptr@VThreadLocalValueHolderBase@internal@testing@@@std@@U?$less@PEBVThreadLocalBase@internal@testing@@@5@V?$allocator@U?$pair@QEBVThreadLocalBase@internal@testing@@V?$shared_ptr@VThreadLocalValueHolderBase@internal@testing@@@std@@@std@@@5@@std@@@std@@@std@@@std@@@std@@$0A@@?$_Tree@V?$_Tmap_traits@KV?$map@PEBVThreadLocalBase@internal@testing@@V?$shared_ptr@VThreadLocalValueHolderBase@internal@testing@@@std@@U?$less@PEBVThreadLocalBase@internal@testing@@@5@V?$allocator@U?$pair@QEBVThreadLocalBase@internal@testing@@V?$shared_ptr@VThreadLocalValueHolderBase@internal@testing@@@std@@@std@@@5@@std@@U?$less@K@2@V?$allocator@U?$pair@$$CBKV?$map@PEBVThreadLocalBase@internal@testing@@V?$shared_ptr@VThreadLocalValueHolderBase@internal@testing@@@std@@U?$less@PEBVThreadLocalBase@internal@testing@@@5@V?$allocator@U?$pair@QEBVThreadLocalBase@internal@testing@@V?$shared_ptr@VThreadLocalValueHolderBase@internal@testing@@@std@@@std@@@5@@std@@@std@@@2@$0A@@std@@@std@@QEAA?AV?$_Tree_iterator@V?$_Tree_val@U?$_Tree_simple_types@U?$pair@$$CBKV?$map@PEBVThreadLocalBase@internal@testing@@V?$shared_ptr@VThreadLocalValueHolderBase@internal@testing@@@std@@U?$less@PEBVThreadLocalBase@internal@testing@@@5@V?$allocator@U?$pair@QEBVThreadLocalBase@internal@testing@@V?$shared_ptr@VThreadLocalValueHolderBase@internal@testing@@@std@@@std@@@5@@std@@@std@@@std@@@std@@@1@V21@@Z
	??$erase@V?$_Tree_iterator@V?$_Tree_val@U?$_Tree_simple_types@U?$pair@QEBVThreadLocalBase@internal@testing@@V?$shared_ptr@VThreadLocalValueHolderBase@internal@testing@@@std@@@std@@@std@@@std@@@std@@$0A@@?$_Tree@V?$_Tmap_traits@PEBVThreadLocalBase@internal@testing@@V?$shared_ptr@VThreadLocalValueHolderBase@internal@testing@@@std@@U?$less@PEBVThreadLocalBase@internal@testing@@@5@V?$allocator@U?$pair@QEBVThreadLocalBase@internal@testing@@V?$shared_ptr@VThreadLocalValueHolderBase@internal@testing@@@std@@@std@@@5@$0A@@std@@@std@@QEAA?AV?$_Tree_iterator@V?$_Tree_val@U?$_Tree_simple_types@U?$pair@QEBVThreadLocalBase@internal@testing@@V?$shared_ptr@VThreadLocalValueHolderBase@internal@testing@@@std@@@std@@@std@@@std@@@1@V21@@Z
	??$exchange@PEAU?$_List_node@U?$pair@$$CBV?$basic_string@DU?$char_traits@D@std@@V?$allocator@D@2@@std@@PEAVTestSuite@testing@@@std@@PEAX@std@@$$T@std@@YAPEAU?$_List_node@U?$pair@$$CBV?$basic_string@DU?$char_traits@D@std@@V?$allocator@D@2@@std@@PEAVTestSuite@testing@@@std@@PEAX@0@AEAPEAU10@$$QEA$$T@Z
	??$exchange@PEAU?$_List_node@U?$pair@$$CB_KW4CallReaction@internal@testing@@@std@@PEAX@std@@$$T@std@@YAPEAU?$_List_node@U?$pair@$$CB_KW4CallReaction@internal@testing@@@std@@PEAX@0@AEAPEAU10@$$QEA$$T@Z
	??$exchange@PEAU?$_List_node@V?$basic_string@DU?$char_traits@D@std@@V?$allocator@D@2@@std@@PEAX@std@@$$T@std@@YAPEAU?$_List_node@V?$basic_string@DU?$char_traits@D@std@@V?$allocator@D@2@@std@@PEAX@0@AEAPEAU10@$$QEA$$T@Z
	??$exchange@PEAU?$_Tree_node@PEAVUntypedFunctionMockerBase@internal@testing@@PEAX@std@@$$T@std@@YAPEAU?$_Tree_node@PEAVUntypedFunctionMockerBase@internal@testing@@PEAX@0@AEAPEAU10@$$QEA$$T@Z
	??$exchange@PEAU?$_Tree_node@PEAVUntypedFunctionMockerBase@internal@testing@@PEAX@std@@AEAPEAU12@@std@@YAPEAU?$_Tree_node@PEAVUntypedFunctionMockerBase@internal@testing@@PEAX@0@AEAPEAU10@0@Z
	??$exchange@PEAU?$_Tree_node@U?$pair@$$CBKV?$map@PEBVThreadLocalBase@internal@testing@@V?$shared_ptr@VThreadLocalValueHolderBase@internal@testing@@@std@@U?$less@PEBVThreadLocalBase@internal@testing@@@5@V?$allocator@U?$pair@QEBVThreadLocalBase@internal@testing@@V?$shared_ptr@VThreadLocalValueHolderBase@internal@testing@@@std@@@std@@@5@@std@@@std@@PEAX@std@@$$T@std@@YAPEAU?$_Tree_node@U?$pair@$$CBKV?$map@PEBVThreadLocalBase@internal@testing@@V?$shared_ptr@VThreadLocalValueHolderBase@internal@testing@@@std@@U?$less@PEBVThreadLocalBase@internal@testing@@@5@V?$allocator@U?$pair@QEBVThreadLocalBase@internal@testing@@V?$shared_ptr@VThreadLocalValueHolderBase@internal@testing@@@std@@@std@@@5@@std@@@std@@PEAX@0@AEAPEAU10@$$QEA$$T@Z
	??$exchange@PEAU?$_Tree_node@U?$pair@$$CBV?$basic_string@DU?$char_traits@D@std@@V?$allocator@D@2@@std@@UTypeParameterizedTestSuiteInfo@TypeParameterizedTestSuiteRegistry@internal@testing@@@std@@PEAX@std@@$$T@std@@YAPEAU?$_Tree_node@U?$pair@$$CBV?$basic_string@DU?$char_traits@D@std@@V?$allocator@D@2@@std@@UTypeParameterizedTestSuiteInfo@TypeParameterizedTestSuiteRegistry@internal@testing@@@std@@PEAX@0@AEAPEAU10@$$QEA$$T@Z
	??$exchange@PEAU?$_Tree_node@U?$pair@$$CBV?$basic_string@DU?$char_traits@D@std@@V?$allocator@D@2@@std@@UTypeParameterizedTestSuiteInfo@TypeParameterizedTestSuiteRegistry@internal@testing@@@std@@PEAX@std@@AEAPEAU12@@std@@YAPEAU?$_Tree_node@U?$pair@$$CBV?$basic_string@DU?$char_traits@D@std@@V?$allocator@D@2@@std@@UTypeParameterizedTestSuiteInfo@TypeParameterizedTestSuiteRegistry@internal@testing@@@std@@PEAX@0@AEAPEAU10@0@Z
	??$exchange@PEAU?$_Tree_node@U?$pair@$$CBV?$basic_string@DU?$char_traits@D@std@@V?$allocator@D@2@@std@@_K@std@@PEAX@std@@$$T@std@@YAPEAU?$_Tree_node@U?$pair@$$CBV?$basic_string@DU?$char_traits@D@std@@V?$allocator@D@2@@std@@_K@std@@PEAX@0@AEAPEAU10@$$QEA$$T@Z
	??$exchange@PEAU?$_Tree_node@U?$pair@$$CBV?$basic_string@DU?$char_traits@D@std@@V?$allocator@D@2@@std@@_K@std@@PEAX@std@@AEAPEAU12@@std@@YAPEAU?$_Tree_node@U?$pair@$$CBV?$basic_string@DU?$char_traits@D@std@@V?$allocator@D@2@@std@@_K@std@@PEAX@0@AEAPEAU10@0@Z
	??$exchange@PEAU?$_Tree_node@U?$pair@QEBVThreadLocalBase@internal@testing@@V?$shared_ptr@VThreadLocalValueHolderBase@internal@testing@@@std@@@std@@PEAX@std@@$$T@std@@YAPEAU?$_Tree_node@U?$pair@QEBVThreadLocalBase@internal@testing@@V?$shared_ptr@VThreadLocalValueHolderBase@internal@testing@@@std@@@std@@PEAX@0@AEAPEAU10@$$QEA$$T@Z
	??$exchange@PEAU?$_Tree_node@U?$pair@QEBVThreadLocalBase@internal@testing@@V?$shared_ptr@VThreadLocalValueHolderBase@internal@testing@@@std@@@std@@PEAX@std@@AEAPEAU12@@std@@YAPEAU?$_Tree_node@U?$pair@QEBVThreadLocalBase@internal@testing@@V?$shared_ptr@VThreadLocalValueHolderBase@internal@testing@@@std@@@std@@PEAX@0@AEAPEAU10@0@Z
	??$exchange@PEAU?$_Tree_node@V?$basic_string@DU?$char_traits@D@std@@V?$allocator@D@2@@std@@PEAX@std@@$$T@std@@YAPEAU?$_Tree_node@V?$basic_string@DU?$char_traits@D@std@@V?$allocator@D@2@@std@@PEAX@0@AEAPEAU10@$$QEA$$T@Z
	??$exchange@PEAU?$_Tree_node@V?$basic_string@DU?$char_traits@D@std@@V?$allocator@D@2@@std@@PEAX@std@@AEAPEAU12@@std@@YAPEAU?$_Tree_node@V?$basic_string@DU?$char_traits@D@std@@V?$allocator@D@2@@std@@PEAX@0@AEAPEAU10@0@Z
	??$exchange@PEAU?$_Tree_node@VExpectation@testing@@PEAX@std@@$$T@std@@YAPEAU?$_Tree_node@VExpectation@testing@@PEAX@0@AEAPEAU10@$$QEA$$T@Z
	??$exchange@PEAU?$_Tree_node@VExpectation@testing@@PEAX@std@@AEAPEAU12@@std@@YAPEAU?$_Tree_node@VExpectation@testing@@PEAX@0@AEAPEAU10@0@Z
	??$exchange@PEAU?$pair@_K_K@std@@$$T@std@@YAPEAU?$pair@_K_K@0@AEAPEAU10@$$QEA$$T@Z
	??$exchange@PEAV?$basic_string@DU?$char_traits@D@std@@V?$allocator@D@2@@std@@$$T@std@@YAPEAV?$basic_string@DU?$char_traits@D@std@@V?$allocator@D@2@@0@AEAPEAV10@$$QEA$$T@Z
	??$exchange@PEAV?$basic_string@DU?$char_traits@D@std@@V?$allocator@D@2@@std@@AEAPEAV12@@std@@YAPEAV?$basic_string@DU?$char_traits@D@std@@V?$allocator@D@2@@0@AEAPEAV10@0@Z
	??$exchange@PEAVInternalRunDeathTestFlag@internal@testing@@AEAPEAV123@@std@@YAPEAVInternalRunDeathTestFlag@internal@testing@@AEAPEAV123@0@Z
	??$exchange@PEAW4EditType@edit_distance@internal@testing@@$$T@std@@YAPEAW4EditType@edit_distance@internal@testing@@AEAPEAW41234@$$QEA$$T@Z
	??$fill@PEADD@std@@YAXQEAD0AEBD@Z
	??$fill@PEAV?$_List_unchecked_const_iterator@V?$_List_val@U?$_List_simple_types@V?$basic_string@DU?$char_traits@D@std@@V?$allocator@D@2@@std@@@std@@@std@@U_Iterator_base0@2@@std@@V12@@std@@YAXQEAV?$_List_unchecked_const_iterator@V?$_List_val@U?$_List_simple_types@V?$basic_string@DU?$char_traits@D@std@@V?$allocator@D@2@@std@@@std@@@std@@U_Iterator_base0@2@@0@0AEBV10@@Z
	??$fill@PEAV?$_List_unchecked_iterator@V?$_List_val@U?$_List_simple_types@U?$pair@$$CBV?$basic_string@DU?$char_traits@D@std@@V?$allocator@D@2@@std@@PEAVTestSuite@testing@@@std@@@std@@@std@@@std@@V12@@std@@YAXQEAV?$_List_unchecked_iterator@V?$_List_val@U?$_List_simple_types@U?$pair@$$CBV?$basic_string@DU?$char_traits@D@std@@V?$allocator@D@2@@std@@PEAVTestSuite@testing@@@std@@@std@@@std@@@0@0AEBV10@@Z
	??$fill@PEAV?$_List_unchecked_iterator@V?$_List_val@U?$_List_simple_types@U?$pair@$$CBV?$basic_string@DU?$char_traits@D@std@@V?$allocator@D@2@@std@@_K@std@@@std@@@std@@@std@@V12@@std@@YAXQEAV?$_List_unchecked_iterator@V?$_List_val@U?$_List_simple_types@U?$pair@$$CBV?$basic_string@DU?$char_traits@D@std@@V?$allocator@D@2@@std@@_K@std@@@std@@@std@@@0@0AEBV10@@Z
	??$fill@PEAV?$_List_unchecked_iterator@V?$_List_val@U?$_List_simple_types@U?$pair@$$CB_KW4CallReaction@internal@testing@@@std@@@std@@@std@@@std@@V12@@std@@YAXQEAV?$_List_unchecked_iterator@V?$_List_val@U?$_List_simple_types@U?$pair@$$CB_KW4CallReaction@internal@testing@@@std@@@std@@@std@@@0@0AEBV10@@Z
	??$find@V?$_Vector_const_iterator@V?$_Vector_val@U?$_Simple_types@V?$basic_string@DU?$char_traits@D@std@@V?$allocator@D@2@@std@@@std@@@std@@@std@@V?$basic_string@DU?$char_traits@D@std@@V?$allocator@D@2@@2@@std@@YA?AV?$_Vector_const_iterator@V?$_Vector_val@U?$_Simple_types@V?$basic_string@DU?$char_traits@D@std@@V?$allocator@D@2@@std@@@std@@@std@@@0@V10@V10@AEBV?$basic_string@DU?$char_traits@D@std@@V?$allocator@D@2@@0@@Z
	??$find_if@V?$_Vector_iterator@V?$_Vector_val@U?$_Simple_types@VTestProperty@testing@@@std@@@std@@@std@@VTestPropertyKeyIs@internal@testing@@@std@@YA?AV?$_Vector_iterator@V?$_Vector_val@U?$_Simple_types@VTestProperty@testing@@@std@@@std@@@0@V10@V10@VTestPropertyKeyIs@internal@testing@@@Z
	??$flush@DU?$char_traits@D@std@@@std@@YAAEAV?$basic_ostream@DU?$char_traits@D@std@@@0@AEAV10@@Z
	??$for_each@V?$_Vector_const_iterator@V?$_Vector_val@U?$_Simple_types@PEAVEnvironment@testing@@@std@@@std@@@std@@P6AXPEAVEnvironment@testing@@@Z@std@@YAP6AXPEAVEnvironment@testing@@@ZV?$_Vector_const_iterator@V?$_Vector_val@U?$_Simple_types@PEAVEnvironment@testing@@@std@@@std@@@0@1P6AX0@Z@Z
	??$for_each@V?$_Vector_const_iterator@V?$_Vector_val@U?$_Simple_types@PEAVTestEventListener@testing@@@std@@@std@@@std@@P6AXPEAVTestEventListener@testing@@@Z@std@@YAP6AXPEAVTestEventListener@testing@@@ZV?$_Vector_const_iterator@V?$_Vector_val@U?$_Simple_types@PEAVTestEventListener@testing@@@std@@@std@@@0@1P6AX0@Z@Z
	??$for_each@V?$_Vector_const_iterator@V?$_Vector_val@U?$_Simple_types@PEAVTestInfo@testing@@@std@@@std@@@std@@P6AXPEAVTestInfo@testing@@@Z@std@@YAP6AXPEAVTestInfo@testing@@@ZV?$_Vector_const_iterator@V?$_Vector_val@U?$_Simple_types@PEAVTestInfo@testing@@@std@@@std@@@0@1P6AX0@Z@Z
	??$for_each@V?$_Vector_const_iterator@V?$_Vector_val@U?$_Simple_types@PEAVTestSuite@testing@@@std@@@std@@@std@@P6AXPEAVTestSuite@testing@@@Z@std@@YAP6AXPEAVTestSuite@testing@@@ZV?$_Vector_const_iterator@V?$_Vector_val@U?$_Simple_types@PEAVTestSuite@testing@@@std@@@std@@@0@1P6AX0@Z@Z
	??$for_each@V?$reverse_iterator@V?$_Vector_iterator@V?$_Vector_val@U?$_Simple_types@PEAVEnvironment@testing@@@std@@@std@@@std@@@std@@P6AXPEAVEnvironment@testing@@@Z@std@@YAP6AXPEAVEnvironment@testing@@@ZV?$reverse_iterator@V?$_Vector_iterator@V?$_Vector_val@U?$_Simple_types@PEAVEnvironment@testing@@@std@@@std@@@std@@@0@1P6AX0@Z@Z
	??$forward@$$T@std@@YA$$QEA$$TAEA$$T@Z
	??$forward@AEAK@std@@YAAEAKAEAK@Z
	??$forward@AEAN@std@@YAAEANAEAN@Z
	??$forward@AEAPEAD@std@@YAAEAPEADAEAPEAD@Z
	??$forward@AEAPEAPEAVTestInfo@testing@@@std@@YAAEAPEAPEAVTestInfo@testing@@AEAPEAPEAV12@@Z
	??$forward@AEAPEAU?$_List_node@U?$pair@$$CBV?$basic_string@DU?$char_traits@D@std@@V?$allocator@D@2@@std@@PEAVTestSuite@testing@@@std@@PEAX@std@@@std@@YAAEAPEAU?$_List_node@U?$pair@$$CBV?$basic_string@DU?$char_traits@D@std@@V?$allocator@D@2@@std@@PEAVTestSuite@testing@@@std@@PEAX@0@AEAPEAU10@@Z
	??$forward@AEAPEAU?$_List_node@U?$pair@$$CBV?$basic_string@DU?$char_traits@D@std@@V?$allocator@D@2@@std@@_K@std@@PEAX@std@@@std@@YAAEAPEAU?$_List_node@U?$pair@$$CBV?$basic_string@DU?$char_traits@D@std@@V?$allocator@D@2@@std@@_K@std@@PEAX@0@AEAPEAU10@@Z
	??$forward@AEAPEAU?$_List_node@U?$pair@$$CB_KW4CallReaction@internal@testing@@@std@@PEAX@std@@@std@@YAAEAPEAU?$_List_node@U?$pair@$$CB_KW4CallReaction@internal@testing@@@std@@PEAX@0@AEAPEAU10@@Z
	??$forward@AEAPEAU?$_List_node@U?$pair@DPEBD@std@@PEAX@std@@@std@@YAAEAPEAU?$_List_node@U?$pair@DPEBD@std@@PEAX@0@AEAPEAU10@@Z
	??$forward@AEAPEAU?$_List_node@V?$basic_string@DU?$char_traits@D@std@@V?$allocator@D@2@@std@@PEAX@std@@@std@@YAAEAPEAU?$_List_node@V?$basic_string@DU?$char_traits@D@std@@V?$allocator@D@2@@std@@PEAX@0@AEAPEAU10@@Z
	??$forward@AEAPEAU?$_Tree_node@PEAVUntypedFunctionMockerBase@internal@testing@@PEAX@std@@@std@@YAAEAPEAU?$_Tree_node@PEAVUntypedFunctionMockerBase@internal@testing@@PEAX@0@AEAPEAU10@@Z
	??$forward@AEAPEAU?$_Tree_node@U?$pair@$$CBKV?$map@PEBVThreadLocalBase@internal@testing@@V?$shared_ptr@VThreadLocalValueHolderBase@internal@testing@@@std@@U?$less@PEBVThreadLocalBase@internal@testing@@@5@V?$allocator@U?$pair@QEBVThreadLocalBase@internal@testing@@V?$shared_ptr@VThreadLocalValueHolderBase@internal@testing@@@std@@@std@@@5@@std@@@std@@PEAX@std@@@std@@YAAEAPEAU?$_Tree_node@U?$pair@$$CBKV?$map@PEBVThreadLocalBase@internal@testing@@V?$shared_ptr@VThreadLocalValueHolderBase@internal@testing@@@std@@U?$less@PEBVThreadLocalBase@internal@testing@@@5@V?$allocator@U?$pair@QEBVThreadLocalBase@internal@testing@@V?$shared_ptr@VThreadLocalValueHolderBase@internal@testing@@@std@@@std@@@5@@std@@@std@@PEAX@0@AEAPEAU10@@Z
	??$forward@AEAPEAU?$_Tree_node@U?$pair@$$CBV?$basic_string@DU?$char_traits@D@std@@V?$allocator@D@2@@std@@UTypeParameterizedTestSuiteInfo@TypeParameterizedTestSuiteRegistry@internal@testing@@@std@@PEAX@std@@@std@@YAAEAPEAU?$_Tree_node@U?$pair@$$CBV?$basic_string@DU?$char_traits@D@std@@V?$allocator@D@2@@std@@UTypeParameterizedTestSuiteInfo@TypeParameterizedTestSuiteRegistry@internal@testing@@@std@@PEAX@0@AEAPEAU10@@Z
	??$forward@AEAPEAU?$_Tree_node@U?$pair@$$CBV?$basic_string@DU?$char_traits@D@std@@V?$allocator@D@2@@std@@_K@std@@PEAX@std@@@std@@YAAEAPEAU?$_Tree_node@U?$pair@$$CBV?$basic_string@DU?$char_traits@D@std@@V?$allocator@D@2@@std@@_K@std@@PEAX@0@AEAPEAU10@@Z
	??$forward@AEAPEAU?$_Tree_node@U?$pair@QEBVThreadLocalBase@internal@testing@@V?$shared_ptr@VThreadLocalValueHolderBase@internal@testing@@@std@@@std@@PEAX@std@@@std@@YAAEAPEAU?$_Tree_node@U?$pair@QEBVThreadLocalBase@internal@testing@@V?$shared_ptr@VThreadLocalValueHolderBase@internal@testing@@@std@@@std@@PEAX@0@AEAPEAU10@@Z
	??$forward@AEAPEAU?$_Tree_node@V?$basic_string@DU?$char_traits@D@std@@V?$allocator@D@2@@std@@PEAX@std@@@std@@YAAEAPEAU?$_Tree_node@V?$basic_string@DU?$char_traits@D@std@@V?$allocator@D@2@@std@@PEAX@0@AEAPEAU10@@Z
	??$forward@AEAPEAU?$_Tree_node@VExpectation@testing@@PEAX@std@@@std@@YAAEAPEAU?$_Tree_node@VExpectation@testing@@PEAX@0@AEAPEAU10@@Z
	??$forward@AEAPEAV?$basic_string@DU?$char_traits@D@std@@V?$allocator@D@2@@std@@@std@@YAAEAPEAV?$basic_string@DU?$char_traits@D@std@@V?$allocator@D@2@@0@AEAPEAV10@@Z
	??$forward@AEAPEAV?$basic_stringstream@DU?$char_traits@D@std@@V?$allocator@D@2@@std@@@std@@YAAEAPEAV?$basic_stringstream@DU?$char_traits@D@std@@V?$allocator@D@2@@0@AEAPEAV10@@Z
	??$forward@AEAPEAVDeathTestFactory@internal@testing@@@std@@YAAEAPEAVDeathTestFactory@internal@testing@@AEAPEAV123@@Z
	??$forward@AEAPEAVGTestFlagSaver@internal@testing@@@std@@YAAEAPEAVGTestFlagSaver@internal@testing@@AEAPEAV123@@Z
	??$forward@AEAPEAVRunnable@ThreadWithParamBase@internal@testing@@@std@@YAAEAPEAVRunnable@ThreadWithParamBase@internal@testing@@AEAPEAV1234@@Z
	??$forward@AEAPEAVTestProperty@testing@@@std@@YAAEAPEAVTestProperty@testing@@AEAPEAV12@@Z
	??$forward@AEAPEAVValueHolderFactory@?$ThreadLocal@PEAVSequence@testing@@@internal@testing@@@std@@YAAEAPEAVValueHolderFactory@?$ThreadLocal@PEAVSequence@testing@@@internal@testing@@AEAPEAV1234@@Z
	??$forward@AEAPEAVValueHolderFactory@?$ThreadLocal@PEAVTestPartResultReporterInterface@testing@@@internal@testing@@@std@@YAAEAPEAVValueHolderFactory@?$ThreadLocal@PEAVTestPartResultReporterInterface@testing@@@internal@testing@@AEAPEAV1234@@Z
	??$forward@AEAPEAVValueHolderFactory@?$ThreadLocal@V?$vector@UTraceInfo@internal@testing@@V?$allocator@UTraceInfo@internal@testing@@@std@@@std@@@internal@testing@@@std@@YAAEAPEAVValueHolderFactory@?$ThreadLocal@V?$vector@UTraceInfo@internal@testing@@V?$allocator@UTraceInfo@internal@testing@@@std@@@std@@@internal@testing@@AEAPEAV1234@@Z
	??$forward@AEAPEA_W@std@@YAAEAPEA_WAEAPEA_W@Z
	??$forward@AEAPEBD@std@@YAAEAPEBDAEAPEBD@Z
	??$forward@AEAPEBV?$basic_string@DU?$char_traits@D@std@@V?$allocator@D@2@@std@@@std@@YAAEAPEBV?$basic_string@DU?$char_traits@D@std@@V?$allocator@D@2@@0@AEAPEBV10@@Z
	??$forward@AEAPEBVThreadLocalBase@internal@testing@@@std@@YAAEAPEBVThreadLocalBase@internal@testing@@AEAPEBV123@@Z
	??$forward@AEAV?$allocator@D@std@@@std@@YAAEAV?$allocator@D@0@AEAV10@@Z
	??$forward@AEAV?$basic_string@DU?$char_traits@D@std@@V?$allocator@D@2@@std@@@std@@YAAEAV?$basic_string@DU?$char_traits@D@std@@V?$allocator@D@2@@0@AEAV10@@Z
	??$forward@AEAW4EditType@edit_distance@internal@testing@@@std@@YAAEAW4EditType@edit_distance@internal@testing@@AEAW41234@@Z
	??$forward@AEA_J@std@@YAAEA_JAEA_J@Z
	??$forward@AEA_K@std@@YAAEA_KAEA_K@Z
	??$forward@AEBD@std@@YAAEBDAEBD@Z
	??$forward@AEBQEAD@std@@YAAEBQEADAEBQEAD@Z
	??$forward@AEBQEAN@std@@YAAEBQEANAEBQEAN@Z
	??$forward@AEBQEAU?$_List_node@U?$pair@$$CBV?$basic_string@DU?$char_traits@D@std@@V?$allocator@D@2@@std@@PEAVTestSuite@testing@@@std@@PEAX@std@@@std@@YAAEBQEAU?$_List_node@U?$pair@$$CBV?$basic_string@DU?$char_traits@D@std@@V?$allocator@D@2@@std@@PEAVTestSuite@testing@@@std@@PEAX@0@AEBQEAU10@@Z
	??$forward@AEBQEAU?$_List_node@U?$pair@$$CB_KW4CallReaction@internal@testing@@@std@@PEAX@std@@@std@@YAAEBQEAU?$_List_node@U?$pair@$$CB_KW4CallReaction@internal@testing@@@std@@PEAX@0@AEBQEAU10@@Z
	??$forward@AEBQEAU?$_List_node@U?$pair@DPEBD@std@@PEAX@std@@@std@@YAAEBQEAU?$_List_node@U?$pair@DPEBD@std@@PEAX@0@AEBQEAU10@@Z
	??$forward@AEBQEAU?$_List_node@V?$basic_string@DU?$char_traits@D@std@@V?$allocator@D@2@@std@@PEAX@std@@@std@@YAAEBQEAU?$_List_node@V?$basic_string@DU?$char_traits@D@std@@V?$allocator@D@2@@std@@PEAX@0@AEBQEAU10@@Z
	??$forward@AEBQEAU?$_Tree_node@PEAVUntypedFunctionMockerBase@internal@testing@@PEAX@std@@@std@@YAAEBQEAU?$_Tree_node@PEAVUntypedFunctionMockerBase@internal@testing@@PEAX@0@AEBQEAU10@@Z
	??$forward@AEBQEAU?$_Tree_node@U?$pair@$$CBKV?$map@PEBVThreadLocalBase@internal@testing@@V?$shared_ptr@VThreadLocalValueHolderBase@internal@testing@@@std@@U?$less@PEBVThreadLocalBase@internal@testing@@@5@V?$allocator@U?$pair@QEBVThreadLocalBase@internal@testing@@V?$shared_ptr@VThreadLocalValueHolderBase@internal@testing@@@std@@@std@@@5@@std@@@std@@PEAX@std@@@std@@YAAEBQEAU?$_Tree_node@U?$pair@$$CBKV?$map@PEBVThreadLocalBase@internal@testing@@V?$shared_ptr@VThreadLocalValueHolderBase@internal@testing@@@std@@U?$less@PEBVThreadLocalBase@internal@testing@@@5@V?$allocator@U?$pair@QEBVThreadLocalBase@internal@testing@@V?$shared_ptr@VThreadLocalValueHolderBase@internal@testing@@@std@@@std@@@5@@std@@@std@@PEAX@0@AEBQEAU10@@Z
	??$forward@AEBQEAU?$_Tree_node@U?$pair@$$CBV?$basic_string@DU?$char_traits@D@std@@V?$allocator@D@2@@std@@UTypeParameterizedTestSuiteInfo@TypeParameterizedTestSuiteRegistry@internal@testing@@@std@@PEAX@std@@@std@@YAAEBQEAU?$_Tree_node@U?$pair@$$CBV?$basic_string@DU?$char_traits@D@std@@V?$allocator@D@2@@std@@UTypeParameterizedTestSuiteInfo@TypeParameterizedTestSuiteRegistry@internal@testing@@@std@@PEAX@0@AEBQEAU10@@Z
	??$forward@AEBQEAU?$_Tree_node@U?$pair@$$CBV?$basic_string@DU?$char_traits@D@std@@V?$allocator@D@2@@std@@_K@std@@PEAX@std@@@std@@YAAEBQEAU?$_Tree_node@U?$pair@$$CBV?$basic_string@DU?$char_traits@D@std@@V?$allocator@D@2@@std@@_K@std@@PEAX@0@AEBQEAU10@@Z
	??$forward@AEBQEAU?$_Tree_node@U?$pair@QEBVThreadLocalBase@internal@testing@@V?$shared_ptr@VThreadLocalValueHolderBase@internal@testing@@@std@@@std@@PEAX@std@@@std@@YAAEBQEAU?$_Tree_node@U?$pair@QEBVThreadLocalBase@internal@testing@@V?$shared_ptr@VThreadLocalValueHolderBase@internal@testing@@@std@@@std@@PEAX@0@AEBQEAU10@@Z
	??$forward@AEBQEAU?$_Tree_node@V?$basic_string@DU?$char_traits@D@std@@V?$allocator@D@2@@std@@PEAX@std@@@std@@YAAEBQEAU?$_Tree_node@V?$basic_string@DU?$char_traits@D@std@@V?$allocator@D@2@@std@@PEAX@0@AEBQEAU10@@Z
	??$forward@AEBQEAU?$_Tree_node@VExpectation@testing@@PEAX@std@@@std@@YAAEBQEAU?$_Tree_node@VExpectation@testing@@PEAX@0@AEBQEAU10@@Z
	??$forward@AEBQEAV?$basic_string@DU?$char_traits@D@std@@V?$allocator@D@2@@std@@@std@@YAAEBQEAV?$basic_string@DU?$char_traits@D@std@@V?$allocator@D@2@@0@AEBQEAV10@@Z
	??$forward@AEBQEAVEnvironment@testing@@@std@@YAAEBQEAVEnvironment@testing@@AEBQEAV12@@Z
	??$forward@AEBQEAVExpectationBase@internal@testing@@@std@@YAAEBQEAVExpectationBase@internal@testing@@AEBQEAV123@@Z
	??$forward@AEBQEAVTestEventListener@testing@@@std@@YAAEBQEAVTestEventListener@testing@@AEBQEAV12@@Z
	??$forward@AEBQEAVTestInfo@testing@@@std@@YAAEBQEAVTestInfo@testing@@AEBQEAV12@@Z
	??$forward@AEBQEAVTestSuite@testing@@@std@@YAAEBQEAVTestSuite@testing@@AEBQEAV12@@Z
	??$forward@AEBQEAVUntypedFunctionMockerBase@internal@testing@@@std@@YAAEBQEAVUntypedFunctionMockerBase@internal@testing@@AEBQEAV123@@Z
	??$forward@AEBQEAW4EditType@edit_distance@internal@testing@@@std@@YAAEBQEAW4EditType@edit_distance@internal@testing@@AEBQEAW41234@@Z
	??$forward@AEBQEA_W@std@@YAAEBQEA_WAEBQEA_W@Z
	??$forward@AEBQEBD@std@@YAAEBQEBDAEBQEBD@Z
	??$forward@AEBQEBVExpectationBase@internal@testing@@@std@@YAAEBQEBVExpectationBase@internal@testing@@AEBQEBV123@@Z
	??$forward@AEBQEBX@std@@YAAEBQEBXAEBQEBX@Z
	??$forward@AEBU?$less@K@std@@@std@@YAAEBU?$less@K@0@AEBU10@@Z
	??$forward@AEBU?$less@PEAVUntypedFunctionMockerBase@internal@testing@@@std@@@std@@YAAEBU?$less@PEAVUntypedFunctionMockerBase@internal@testing@@@0@AEBU10@@Z
	??$forward@AEBU?$less@PEBVThreadLocalBase@internal@testing@@@std@@@std@@YAAEBU?$less@PEBVThreadLocalBase@internal@testing@@@0@AEBU10@@Z
	??$forward@AEBU?$less@PEBX@std@@@std@@YAAEBU?$less@PEBX@0@AEBU10@@Z
	??$forward@AEBU?$less@V?$basic_string@DU?$char_traits@D@std@@V?$allocator@D@2@@std@@@std@@@std@@YAAEBU?$less@V?$basic_string@DU?$char_traits@D@std@@V?$allocator@D@2@@std@@@0@AEBU10@@Z
	??$forward@AEBUTraceInfo@internal@testing@@@std@@YAAEBUTraceInfo@internal@testing@@AEBU123@@Z
	??$forward@AEBUpiecewise_construct_t@std@@@std@@YAAEBUpiecewise_construct_t@0@AEBU10@@Z
	??$forward@AEBV?$_List_unchecked_const_iterator@V?$_List_val@U?$_List_simple_types@V?$basic_string@DU?$char_traits@D@std@@V?$allocator@D@2@@std@@@std@@@std@@U_Iterator_base0@2@@std@@@std@@YAAEBV?$_List_unchecked_const_iterator@V?$_List_val@U?$_List_simple_types@V?$basic_string@DU?$char_traits@D@std@@V?$allocator@D@2@@std@@@std@@@std@@U_Iterator_base0@2@@0@AEBV10@@Z
	??$forward@AEBV?$_List_unchecked_iterator@V?$_List_val@U?$_List_simple_types@U?$pair@$$CBV?$basic_string@DU?$char_traits@D@std@@V?$allocator@D@2@@std@@PEAVTestSuite@testing@@@std@@@std@@@std@@@std@@@std@@YAAEBV?$_List_unchecked_iterator@V?$_List_val@U?$_List_simple_types@U?$pair@$$CBV?$basic_string@DU?$char_traits@D@std@@V?$allocator@D@2@@std@@PEAVTestSuite@testing@@@std@@@std@@@std@@@0@AEBV10@@Z
	??$forward@AEBV?$_List_unchecked_iterator@V?$_List_val@U?$_List_simple_types@U?$pair@$$CBV?$basic_string@DU?$char_traits@D@std@@V?$allocator@D@2@@std@@_K@std@@@std@@@std@@@std@@@std@@YAAEBV?$_List_unchecked_iterator@V?$_List_val@U?$_List_simple_types@U?$pair@$$CBV?$basic_string@DU?$char_traits@D@std@@V?$allocator@D@2@@std@@_K@std@@@std@@@std@@@0@AEBV10@@Z
	??$forward@AEBV?$_List_unchecked_iterator@V?$_List_val@U?$_List_simple_types@U?$pair@$$CB_KW4CallReaction@internal@testing@@@std@@@std@@@std@@@std@@@std@@YAAEBV?$_List_unchecked_iterator@V?$_List_val@U?$_List_simple_types@U?$pair@$$CB_KW4CallReaction@internal@testing@@@std@@@std@@@std@@@0@AEBV10@@Z
	??$forward@AEBV?$allocator@D@std@@@std@@YAAEBV?$allocator@D@0@AEBV10@@Z
	??$forward@AEBV?$allocator@N@std@@@std@@YAAEBV?$allocator@N@0@AEBV10@@Z
	??$forward@AEBV?$allocator@PEAVExpectationBase@internal@testing@@@std@@@std@@YAAEBV?$allocator@PEAVExpectationBase@internal@testing@@@0@AEBV10@@Z
	??$forward@AEBV?$allocator@PEBVExpectationBase@internal@testing@@@std@@@std@@YAAEBV?$allocator@PEBVExpectationBase@internal@testing@@@0@AEBV10@@Z
	??$forward@AEBV?$allocator@U?$pair@$$CBV?$basic_string@DU?$char_traits@D@std@@V?$allocator@D@2@@std@@PEAVTestSuite@testing@@@std@@@std@@@std@@YAAEBV?$allocator@U?$pair@$$CBV?$basic_string@DU?$char_traits@D@std@@V?$allocator@D@2@@std@@PEAVTestSuite@testing@@@std@@@0@AEBV10@@Z
	??$forward@AEBV?$allocator@U?$pair@$$CBV?$basic_string@DU?$char_traits@D@std@@V?$allocator@D@2@@std@@_K@std@@@std@@@std@@YAAEBV?$allocator@U?$pair@$$CBV?$basic_string@DU?$char_traits@D@std@@V?$allocator@D@2@@std@@_K@std@@@0@AEBV10@@Z
	??$forward@AEBV?$allocator@U?$pair@$$CB_KW4CallReaction@internal@testing@@@std@@@std@@@std@@YAAEBV?$allocator@U?$pair@$$CB_KW4CallReaction@internal@testing@@@std@@@0@AEBV10@@Z
	??$forward@AEBV?$allocator@V?$basic_string@DU?$char_traits@D@std@@V?$allocator@D@2@@std@@@std@@@std@@YAAEBV?$allocator@V?$basic_string@DU?$char_traits@D@std@@V?$allocator@D@2@@std@@@0@AEBV10@@Z
	??$forward@AEBV?$allocator@V?$vector@NV?$allocator@N@std@@@std@@@std@@@std@@YAAEBV?$allocator@V?$vector@NV?$allocator@N@std@@@std@@@0@AEBV10@@Z
	??$forward@AEBV?$allocator@V?$vector@W4EditType@edit_distance@internal@testing@@V?$allocator@W4EditType@edit_distance@internal@testing@@@std@@@std@@@std@@@std@@YAAEBV?$allocator@V?$vector@W4EditType@edit_distance@internal@testing@@V?$allocator@W4EditType@edit_distance@internal@testing@@@std@@@std@@@0@AEBV10@@Z
	??$forward@AEBV?$allocator@W4EditType@edit_distance@internal@testing@@@std@@@std@@YAAEBV?$allocator@W4EditType@edit_distance@internal@testing@@@0@AEBV10@@Z
	??$forward@AEBV?$allocator@_K@std@@@std@@YAAEBV?$allocator@_K@0@AEBV10@@Z
	??$forward@AEBV?$basic_string@DU?$char_traits@D@std@@V?$allocator@D@2@@std@@@std@@YAAEBV?$basic_string@DU?$char_traits@D@std@@V?$allocator@D@2@@0@AEBV10@@Z
	??$forward@AEBV?$shared_ptr@VThreadLocalValueHolderBase@internal@testing@@@std@@@std@@YAAEBV?$shared_ptr@VThreadLocalValueHolderBase@internal@testing@@@0@AEBV10@@Z
	??$forward@AEBV?$vector@NV?$allocator@N@std@@@std@@@std@@YAAEBV?$vector@NV?$allocator@N@std@@@0@AEBV10@@Z
	??$forward@AEBV?$vector@W4EditType@edit_distance@internal@testing@@V?$allocator@W4EditType@edit_distance@internal@testing@@@std@@@std@@@std@@YAAEBV?$vector@W4EditType@edit_distance@internal@testing@@V?$allocator@W4EditType@edit_distance@internal@testing@@@std@@@0@AEBV10@@Z
	??$forward@AEBVExpectation@testing@@@std@@YAAEBVExpectation@testing@@AEBV12@@Z
	??$forward@AEBVLess@Expectation@testing@@@std@@YAAEBVLess@Expectation@testing@@AEBV123@@Z
	??$forward@AEBVTestPartResult@testing@@@std@@YAAEBVTestPartResult@testing@@AEBV12@@Z
	??$forward@AEBVTestProperty@testing@@@std@@YAAEBVTestProperty@testing@@AEBV12@@Z
	??$forward@AEBW4EditType@edit_distance@internal@testing@@@std@@YAAEBW4EditType@edit_distance@internal@testing@@AEBW41234@@Z
	??$forward@AEB_K@std@@YAAEB_KAEB_K@Z
	??$forward@AEB_N@std@@YAAEB_NAEB_N@Z
	??$forward@D@std@@YA$$QEADAEAD@Z
	??$forward@H@std@@YA$$QEAHAEAH@Z
	??$forward@K@std@@YA$$QEAKAEAK@Z
	??$forward@M@std@@YA$$QEAMAEAM@Z
	??$forward@PEAPEAVTestInfo@testing@@@std@@YA$$QEAPEAPEAVTestInfo@testing@@AEAPEAPEAV12@@Z
	??$forward@PEAU?$_List_node@U?$pair@$$CB_KW4CallReaction@internal@testing@@@std@@PEAX@std@@@std@@YA$$QEAPEAU?$_List_node@U?$pair@$$CB_KW4CallReaction@internal@testing@@@std@@PEAX@0@AEAPEAU10@@Z
	??$forward@PEAU?$_Tree_node@PEAVUntypedFunctionMockerBase@internal@testing@@PEAX@std@@@std@@YA$$QEAPEAU?$_Tree_node@PEAVUntypedFunctionMockerBase@internal@testing@@PEAX@0@AEAPEAU10@@Z
	??$forward@PEAU?$_Tree_node@U?$pair@$$CBKV?$map@PEBVThreadLocalBase@internal@testing@@V?$shared_ptr@VThreadLocalValueHolderBase@internal@testing@@@std@@U?$less@PEBVThreadLocalBase@internal@testing@@@5@V?$allocator@U?$pair@QEBVThreadLocalBase@internal@testing@@V?$shared_ptr@VThreadLocalValueHolderBase@internal@testing@@@std@@@std@@@5@@std@@@std@@PEAX@std@@@std@@YA$$QEAPEAU?$_Tree_node@U?$pair@$$CBKV?$map@PEBVThreadLocalBase@internal@testing@@V?$shared_ptr@VThreadLocalValueHolderBase@internal@testing@@@std@@U?$less@PEBVThreadLocalBase@internal@testing@@@5@V?$allocator@U?$pair@QEBVThreadLocalBase@internal@testing@@V?$shared_ptr@VThreadLocalValueHolderBase@internal@testing@@@std@@@std@@@5@@std@@@std@@PEAX@0@AEAPEAU10@@Z
	??$forward@PEAU?$_Tree_node@U?$pair@$$CBV?$basic_string@DU?$char_traits@D@std@@V?$allocator@D@2@@std@@UTypeParameterizedTestSuiteInfo@TypeParameterizedTestSuiteRegistry@internal@testing@@@std@@PEAX@std@@@std@@YA$$QEAPEAU?$_Tree_node@U?$pair@$$CBV?$basic_string@DU?$char_traits@D@std@@V?$allocator@D@2@@std@@UTypeParameterizedTestSuiteInfo@TypeParameterizedTestSuiteRegistry@internal@testing@@@std@@PEAX@0@AEAPEAU10@@Z
	??$forward@PEAU?$_Tree_node@U?$pair@$$CBV?$basic_string@DU?$char_traits@D@std@@V?$allocator@D@2@@std@@_K@std@@PEAX@std@@@std@@YA$$QEAPEAU?$_Tree_node@U?$pair@$$CBV?$basic_string@DU?$char_traits@D@std@@V?$allocator@D@2@@std@@_K@std@@PEAX@0@AEAPEAU10@@Z
	??$forward@PEAU?$_Tree_node@U?$pair@QEBVThreadLocalBase@internal@testing@@V?$shared_ptr@VThreadLocalValueHolderBase@internal@testing@@@std@@@std@@PEAX@std@@@std@@YA$$QEAPEAU?$_Tree_node@U?$pair@QEBVThreadLocalBase@internal@testing@@V?$shared_ptr@VThreadLocalValueHolderBase@internal@testing@@@std@@@std@@PEAX@0@AEAPEAU10@@Z
	??$forward@PEAU?$_Tree_node@V?$basic_string@DU?$char_traits@D@std@@V?$allocator@D@2@@std@@PEAX@std@@@std@@YA$$QEAPEAU?$_Tree_node@V?$basic_string@DU?$char_traits@D@std@@V?$allocator@D@2@@std@@PEAX@0@AEAPEAU10@@Z
	??$forward@PEAU?$_Tree_node@VExpectation@testing@@PEAX@std@@@std@@YA$$QEAPEAU?$_Tree_node@VExpectation@testing@@PEAX@0@AEAPEAU10@@Z
	??$forward@PEAU?$pair@_K_K@std@@@std@@YA$$QEAPEAU?$pair@_K_K@0@AEAPEAU10@@Z
	??$forward@PEAV?$basic_string@DU?$char_traits@D@std@@V?$allocator@D@2@@std@@@std@@YA$$QEAPEAV?$basic_string@DU?$char_traits@D@std@@V?$allocator@D@2@@0@AEAPEAV10@@Z
	??$forward@PEAVEnvironment@testing@@@std@@YA$$QEAPEAVEnvironment@testing@@AEAPEAV12@@Z
	??$forward@PEAVExpectationBase@internal@testing@@@std@@YA$$QEAPEAVExpectationBase@internal@testing@@AEAPEAV123@@Z
	??$forward@PEAVTestEventListener@testing@@@std@@YA$$QEAPEAVTestEventListener@testing@@AEAPEAV12@@Z
	??$forward@PEAVTestInfo@testing@@@std@@YA$$QEAPEAVTestInfo@testing@@AEAPEAV12@@Z
	??$forward@PEAVTestSuite@testing@@@std@@YA$$QEAPEAVTestSuite@testing@@AEAPEAV12@@Z
	??$forward@PEAW4EditType@edit_distance@internal@testing@@@std@@YA$$QEAPEAW4EditType@edit_distance@internal@testing@@AEAPEAW41234@@Z
	??$forward@PEBQEBD@std@@YA$$QEAPEBQEBDAEAPEBQEBD@Z
	??$forward@PEBV?$EqMatcher@V?$basic_string@DU?$char_traits@D@std@@V?$allocator@D@2@@std@@@internal@testing@@@std@@YA$$QEAPEBV?$EqMatcher@V?$basic_string@DU?$char_traits@D@std@@V?$allocator@D@2@@std@@@internal@testing@@AEAPEBV123@@Z
	??$forward@PEBV?$MatcherBase@AEBV?$basic_string@DU?$char_traits@D@std@@V?$allocator@D@2@@std@@@internal@testing@@@std@@YA$$QEAPEBV?$MatcherBase@AEBV?$basic_string@DU?$char_traits@D@std@@V?$allocator@D@2@@std@@@internal@testing@@AEAPEBV123@@Z
	??$forward@PEBV?$MatcherBase@AEBV?$basic_string_view@DU?$char_traits@D@std@@@std@@@internal@testing@@@std@@YA$$QEAPEBV?$MatcherBase@AEBV?$basic_string_view@DU?$char_traits@D@std@@@std@@@internal@testing@@AEAPEBV123@@Z
	??$forward@PEBV?$MatcherBase@V?$basic_string@DU?$char_traits@D@std@@V?$allocator@D@2@@std@@@internal@testing@@@std@@YA$$QEAPEBV?$MatcherBase@V?$basic_string@DU?$char_traits@D@std@@V?$allocator@D@2@@std@@@internal@testing@@AEAPEBV123@@Z
	??$forward@PEBV?$MatcherBase@V?$basic_string_view@DU?$char_traits@D@std@@@std@@@internal@testing@@@std@@YA$$QEAPEBV?$MatcherBase@V?$basic_string_view@DU?$char_traits@D@std@@@std@@@internal@testing@@AEAPEBV123@@Z
	??$forward@PEBV?$basic_string@DU?$char_traits@D@std@@V?$allocator@D@2@@std@@@std@@YA$$QEAPEBV?$basic_string@DU?$char_traits@D@std@@V?$allocator@D@2@@0@AEAPEBV10@@Z
	??$forward@PEBVExpectationBase@internal@testing@@@std@@YA$$QEAPEBVExpectationBase@internal@testing@@AEAPEBV123@@Z
	??$forward@PEBVThreadLocalBase@internal@testing@@@std@@YA$$QEAPEBVThreadLocalBase@internal@testing@@AEAPEBV123@@Z
	??$forward@U?$default_delete@V?$basic_string@DU?$char_traits@D@std@@V?$allocator@D@2@@std@@@std@@@std@@YA$$QEAU?$default_delete@V?$basic_string@DU?$char_traits@D@std@@V?$allocator@D@2@@std@@@0@AEAU10@@Z
	??$forward@U?$less@PEBVThreadLocalBase@internal@testing@@@std@@@std@@YA$$QEAU?$less@PEBVThreadLocalBase@internal@testing@@@0@AEAU10@@Z
	??$forward@U?$pair@DPEBD@std@@@std@@YA$$QEAU?$pair@DPEBD@0@AEAU10@@Z
	??$forward@U?$pair@KV?$map@PEBVThreadLocalBase@internal@testing@@V?$shared_ptr@VThreadLocalValueHolderBase@internal@testing@@@std@@U?$less@PEBVThreadLocalBase@internal@testing@@@5@V?$allocator@U?$pair@QEBVThreadLocalBase@internal@testing@@V?$shared_ptr@VThreadLocalValueHolderBase@internal@testing@@@std@@@std@@@5@@std@@@std@@@std@@YA$$QEAU?$pair@KV?$map@PEBVThreadLocalBase@internal@testing@@V?$shared_ptr@VThreadLocalValueHolderBase@internal@testing@@@std@@U?$less@PEBVThreadLocalBase@internal@testing@@@5@V?$allocator@U?$pair@QEBVThreadLocalBase@internal@testing@@V?$shared_ptr@VThreadLocalValueHolderBase@internal@testing@@@std@@@std@@@5@@std@@@0@AEAU10@@Z
	??$forward@U?$pair@PEBVThreadLocalBase@internal@testing@@V?$shared_ptr@VThreadLocalValueHolderBase@internal@testing@@@std@@@std@@@std@@YA$$QEAU?$pair@PEBVThreadLocalBase@internal@testing@@V?$shared_ptr@VThreadLocalValueHolderBase@internal@testing@@@std@@@0@AEAU10@@Z
	??$forward@U?$pair@_K_K@std@@@std@@YA$$QEAU?$pair@_K_K@0@AEAU10@@Z
	??$forward@UTraceInfo@internal@testing@@@std@@YA$$QEAUTraceInfo@internal@testing@@AEAU123@@Z
	??$forward@UTypeParameterizedTestSuiteInfo@TypeParameterizedTestSuiteRegistry@internal@testing@@@std@@YA$$QEAUTypeParameterizedTestSuiteInfo@TypeParameterizedTestSuiteRegistry@internal@testing@@AEAU1234@@Z
	??$forward@U_One_then_variadic_args_t@std@@@std@@YA$$QEAU_One_then_variadic_args_t@0@AEAU10@@Z
	??$forward@U_Zero_then_variadic_args_t@std@@@std@@YA$$QEAU_Zero_then_variadic_args_t@0@AEAU10@@Z
	??$forward@V?$EqMatcher@V?$basic_string@DU?$char_traits@D@std@@V?$allocator@D@2@@std@@@internal@testing@@@std@@YA$$QEAV?$EqMatcher@V?$basic_string@DU?$char_traits@D@std@@V?$allocator@D@2@@std@@@internal@testing@@AEAV123@@Z
	??$forward@V?$_List_iterator@V?$_List_val@U?$_List_simple_types@U?$pair@$$CBV?$basic_string@DU?$char_traits@D@std@@V?$allocator@D@2@@std@@PEAVTestSuite@testing@@@std@@@std@@@std@@@std@@@std@@YA$$QEAV?$_List_iterator@V?$_List_val@U?$_List_simple_types@U?$pair@$$CBV?$basic_string@DU?$char_traits@D@std@@V?$allocator@D@2@@std@@PEAVTestSuite@testing@@@std@@@std@@@std@@@0@AEAV10@@Z
	??$forward@V?$_Tree_const_iterator@V?$_Tree_val@U?$_Tree_simple_types@PEAVUntypedFunctionMockerBase@internal@testing@@@std@@@std@@@std@@@std@@YA$$QEAV?$_Tree_const_iterator@V?$_Tree_val@U?$_Tree_simple_types@PEAVUntypedFunctionMockerBase@internal@testing@@@std@@@std@@@0@AEAV10@@Z
	??$forward@V?$_Tree_const_iterator@V?$_Tree_val@U?$_Tree_simple_types@V?$basic_string@DU?$char_traits@D@std@@V?$allocator@D@2@@std@@@std@@@std@@@std@@@std@@YA$$QEAV?$_Tree_const_iterator@V?$_Tree_val@U?$_Tree_simple_types@V?$basic_string@DU?$char_traits@D@std@@V?$allocator@D@2@@std@@@std@@@std@@@0@AEAV10@@Z
	??$forward@V?$_Tree_const_iterator@V?$_Tree_val@U?$_Tree_simple_types@VExpectation@testing@@@std@@@std@@@std@@@std@@YA$$QEAV?$_Tree_const_iterator@V?$_Tree_val@U?$_Tree_simple_types@VExpectation@testing@@@std@@@std@@@0@AEAV10@@Z
	??$forward@V?$_Tree_iterator@V?$_Tree_val@U?$_Tree_simple_types@U?$pair@$$CBKV?$map@PEBVThreadLocalBase@internal@testing@@V?$shared_ptr@VThreadLocalValueHolderBase@internal@testing@@@std@@U?$less@PEBVThreadLocalBase@internal@testing@@@5@V?$allocator@U?$pair@QEBVThreadLocalBase@internal@testing@@V?$shared_ptr@VThreadLocalValueHolderBase@internal@testing@@@std@@@std@@@5@@std@@@std@@@std@@@std@@@std@@@std@@YA$$QEAV?$_Tree_iterator@V?$_Tree_val@U?$_Tree_simple_types@U?$pair@$$CBKV?$map@PEBVThreadLocalBase@internal@testing@@V?$shared_ptr@VThreadLocalValueHolderBase@internal@testing@@@std@@U?$less@PEBVThreadLocalBase@internal@testing@@@5@V?$allocator@U?$pair@QEBVThreadLocalBase@internal@testing@@V?$shared_ptr@VThreadLocalValueHolderBase@internal@testing@@@std@@@std@@@5@@std@@@std@@@std@@@std@@@0@AEAV10@@Z
	??$forward@V?$_Tree_iterator@V?$_Tree_val@U?$_Tree_simple_types@U?$pair@$$CBV?$basic_string@DU?$char_traits@D@std@@V?$allocator@D@2@@std@@UTypeParameterizedTestSuiteInfo@TypeParameterizedTestSuiteRegistry@internal@testing@@@std@@@std@@@std@@@std@@@std@@YA$$QEAV?$_Tree_iterator@V?$_Tree_val@U?$_Tree_simple_types@U?$pair@$$CBV?$basic_string@DU?$char_traits@D@std@@V?$allocator@D@2@@std@@UTypeParameterizedTestSuiteInfo@TypeParameterizedTestSuiteRegistry@internal@testing@@@std@@@std@@@std@@@0@AEAV10@@Z
	??$forward@V?$_Tree_iterator@V?$_Tree_val@U?$_Tree_simple_types@U?$pair@QEBVThreadLocalBase@internal@testing@@V?$shared_ptr@VThreadLocalValueHolderBase@internal@testing@@@std@@@std@@@std@@@std@@@std@@@std@@YA$$QEAV?$_Tree_iterator@V?$_Tree_val@U?$_Tree_simple_types@U?$pair@QEBVThreadLocalBase@internal@testing@@V?$shared_ptr@VThreadLocalValueHolderBase@internal@testing@@@std@@@std@@@std@@@std@@@0@AEAV10@@Z
	??$forward@V?$allocator@D@std@@@std@@YA$$QEAV?$allocator@D@0@AEAV10@@Z
	??$forward@V?$allocator@N@std@@@std@@YA$$QEAV?$allocator@N@0@AEAV10@@Z
	??$forward@V?$allocator@U?$_Tree_node@U?$pair@QEBVThreadLocalBase@internal@testing@@V?$shared_ptr@VThreadLocalValueHolderBase@internal@testing@@@std@@@std@@PEAX@std@@@std@@@std@@YA$$QEAV?$allocator@U?$_Tree_node@U?$pair@QEBVThreadLocalBase@internal@testing@@V?$shared_ptr@VThreadLocalValueHolderBase@internal@testing@@@std@@@std@@PEAX@std@@@0@AEAV10@@Z
	??$forward@V?$allocator@U?$pair@_K_K@std@@@std@@@std@@YA$$QEAV?$allocator@U?$pair@_K_K@std@@@0@AEAV10@@Z
	??$forward@V?$allocator@V?$basic_string@DU?$char_traits@D@std@@V?$allocator@D@2@@std@@@std@@@std@@YA$$QEAV?$allocator@V?$basic_string@DU?$char_traits@D@std@@V?$allocator@D@2@@std@@@0@AEAV10@@Z
	??$forward@V?$allocator@W4EditType@edit_distance@internal@testing@@@std@@@std@@YA$$QEAV?$allocator@W4EditType@edit_distance@internal@testing@@@0@AEAV10@@Z
	??$forward@V?$allocator@_W@std@@@std@@YA$$QEAV?$allocator@_W@0@AEAV10@@Z
	??$forward@V?$basic_string@DU?$char_traits@D@std@@V?$allocator@D@2@@std@@@std@@YA$$QEAV?$basic_string@DU?$char_traits@D@std@@V?$allocator@D@2@@0@AEAV10@@Z
	??$forward@V?$insert_iterator@V?$unordered_set@V?$basic_string@DU?$char_traits@D@std@@V?$allocator@D@2@@std@@U?$hash@V?$basic_string@DU?$char_traits@D@std@@V?$allocator@D@2@@std@@@2@U?$equal_to@V?$basic_string@DU?$char_traits@D@std@@V?$allocator@D@2@@std@@@2@V?$allocator@V?$basic_string@DU?$char_traits@D@std@@V?$allocator@D@2@@std@@@2@@std@@@std@@@std@@YA$$QEAV?$insert_iterator@V?$unordered_set@V?$basic_string@DU?$char_traits@D@std@@V?$allocator@D@2@@std@@U?$hash@V?$basic_string@DU?$char_traits@D@std@@V?$allocator@D@2@@std@@@2@U?$equal_to@V?$basic_string@DU?$char_traits@D@std@@V?$allocator@D@2@@std@@@2@V?$allocator@V?$basic_string@DU?$char_traits@D@std@@V?$allocator@D@2@@std@@@2@@std@@@0@AEAV10@@Z
	??$forward@V?$insert_iterator@V?$vector@V?$basic_string@DU?$char_traits@D@std@@V?$allocator@D@2@@std@@V?$allocator@V?$basic_string@DU?$char_traits@D@std@@V?$allocator@D@2@@std@@@2@@std@@@std@@@std@@YA$$QEAV?$insert_iterator@V?$vector@V?$basic_string@DU?$char_traits@D@std@@V?$allocator@D@2@@std@@V?$allocator@V?$basic_string@DU?$char_traits@D@std@@V?$allocator@D@2@@std@@@2@@std@@@0@AEAV10@@Z
	??$forward@V?$map@PEBVThreadLocalBase@internal@testing@@V?$shared_ptr@VThreadLocalValueHolderBase@internal@testing@@@std@@U?$less@PEBVThreadLocalBase@internal@testing@@@5@V?$allocator@U?$pair@QEBVThreadLocalBase@internal@testing@@V?$shared_ptr@VThreadLocalValueHolderBase@internal@testing@@@std@@@std@@@5@@std@@@std@@YA$$QEAV?$map@PEBVThreadLocalBase@internal@testing@@V?$shared_ptr@VThreadLocalValueHolderBase@internal@testing@@@std@@U?$less@PEBVThreadLocalBase@internal@testing@@@5@V?$allocator@U?$pair@QEBVThreadLocalBase@internal@testing@@V?$shared_ptr@VThreadLocalValueHolderBase@internal@testing@@@std@@@std@@@5@@0@AEAV10@@Z
	??$forward@V?$shared_ptr@VThreadLocalValueHolderBase@internal@testing@@@std@@@std@@YA$$QEAV?$shared_ptr@VThreadLocalValueHolderBase@internal@testing@@@0@AEAV10@@Z
	??$forward@V?$tuple@$$QEA_K@std@@@std@@YA$$QEAV?$tuple@$$QEA_K@0@AEAV10@@Z
	??$forward@V?$tuple@$$V@std@@@std@@YA$$QEAV?$tuple@$$V@0@AEAV10@@Z
	??$forward@V?$tuple@AEBQEBX@std@@@std@@YA$$QEAV?$tuple@AEBQEBX@0@AEAV10@@Z
	??$forward@V?$tuple@AEBV?$basic_string@DU?$char_traits@D@std@@V?$allocator@D@2@@std@@@std@@@std@@YA$$QEAV?$tuple@AEBV?$basic_string@DU?$char_traits@D@std@@V?$allocator@D@2@@std@@@0@AEAV10@@Z
	??$forward@V?$tuple@AEB_K@std@@@std@@YA$$QEAV?$tuple@AEB_K@0@AEAV10@@Z
	??$forward@VTestPartResult@testing@@@std@@YA$$QEAVTestPartResult@testing@@AEAV12@@Z
	??$forward@VTestProperty@testing@@@std@@YA$$QEAVTestProperty@testing@@AEAV12@@Z
	??$forward@W4EditType@edit_distance@internal@testing@@@std@@YA$$QEAW4EditType@edit_distance@internal@testing@@AEAW41234@@Z
	??$forward@_K@std@@YA$$QEA_KAEA_K@Z
	??$forward@_N@std@@YA$$QEA_NAEA_N@Z
	??$forward_as_tuple@$$V@std@@YA?AV?$tuple@$$V@0@XZ
	??$forward_as_tuple@AEBQEBX@std@@YA?AV?$tuple@AEBQEBX@0@AEBQEBX@Z
	??$forward_as_tuple@AEBV?$basic_string@DU?$char_traits@D@std@@V?$allocator@D@2@@std@@@std@@YA?AV?$tuple@AEBV?$basic_string@DU?$char_traits@D@std@@V?$allocator@D@2@@std@@@0@AEBV?$basic_string@DU?$char_traits@D@std@@V?$allocator@D@2@@0@@Z
	??$forward_as_tuple@AEB_K@std@@YA?AV?$tuple@AEB_K@0@AEB_K@Z
	??$forward_as_tuple@_K@std@@YA?AV?$tuple@$$QEA_K@0@$$QEA_K@Z
	??$get@$0A@PEBV?$MatcherBase@AEBV?$basic_string@DU?$char_traits@D@std@@V?$allocator@D@2@@std@@@internal@testing@@PEBV?$EqMatcher@V?$basic_string@DU?$char_traits@D@std@@V?$allocator@D@2@@std@@@23@@std@@YA$$QEAPEBV?$MatcherBase@AEBV?$basic_string@DU?$char_traits@D@std@@V?$allocator@D@2@@std@@@internal@testing@@$$QEAV?$tuple@PEBV?$MatcherBase@AEBV?$basic_string@DU?$char_traits@D@std@@V?$allocator@D@2@@std@@@internal@testing@@PEBV?$EqMatcher@V?$basic_string@DU?$char_traits@D@std@@V?$allocator@D@2@@std@@@23@@0@@Z
	??$get@$0A@PEBV?$MatcherBase@AEBV?$basic_string_view@DU?$char_traits@D@std@@@std@@@internal@testing@@PEBV?$EqMatcher@V?$basic_string@DU?$char_traits@D@std@@V?$allocator@D@2@@std@@@23@@std@@YA$$QEAPEBV?$MatcherBase@AEBV?$basic_string_view@DU?$char_traits@D@std@@@std@@@internal@testing@@$$QEAV?$tuple@PEBV?$MatcherBase@AEBV?$basic_string_view@DU?$char_traits@D@std@@@std@@@internal@testing@@PEBV?$EqMatcher@V?$basic_string@DU?$char_traits@D@std@@V?$allocator@D@2@@std@@@23@@0@@Z
	??$get@$0A@PEBV?$MatcherBase@V?$basic_string@DU?$char_traits@D@std@@V?$allocator@D@2@@std@@@internal@testing@@PEBV?$EqMatcher@V?$basic_string@DU?$char_traits@D@std@@V?$allocator@D@2@@std@@@23@@std@@YA$$QEAPEBV?$MatcherBase@V?$basic_string@DU?$char_traits@D@std@@V?$allocator@D@2@@std@@@internal@testing@@$$QEAV?$tuple@PEBV?$MatcherBase@V?$basic_string@DU?$char_traits@D@std@@V?$allocator@D@2@@std@@@internal@testing@@PEBV?$EqMatcher@V?$basic_string@DU?$char_traits@D@std@@V?$allocator@D@2@@std@@@23@@0@@Z
	??$get@$0A@PEBV?$MatcherBase@V?$basic_string_view@DU?$char_traits@D@std@@@std@@@internal@testing@@PEBV?$EqMatcher@V?$basic_string@DU?$char_traits@D@std@@V?$allocator@D@2@@std@@@23@@std@@YA$$QEAPEBV?$MatcherBase@V?$basic_string_view@DU?$char_traits@D@std@@@std@@@internal@testing@@$$QEAV?$tuple@PEBV?$MatcherBase@V?$basic_string_view@DU?$char_traits@D@std@@@std@@@internal@testing@@PEBV?$EqMatcher@V?$basic_string@DU?$char_traits@D@std@@V?$allocator@D@2@@std@@@23@@0@@Z
	??$insert@$0A@$0A@@?$_Tree@V?$_Tset_traits@PEAVUntypedFunctionMockerBase@internal@testing@@U?$less@PEAVUntypedFunctionMockerBase@internal@testing@@@std@@V?$allocator@PEAVUntypedFunctionMockerBase@internal@testing@@@5@$0A@@std@@@std@@QEAA?AU?$pair@V?$_Tree_const_iterator@V?$_Tree_val@U?$_Tree_simple_types@PEAVUntypedFunctionMockerBase@internal@testing@@@std@@@std@@@std@@_N@1@AEBQEAVUntypedFunctionMockerBase@internal@testing@@@Z
	??$insert@$0A@$0A@@?$_Tree@V?$_Tset_traits@V?$basic_string@DU?$char_traits@D@std@@V?$allocator@D@2@@std@@U?$less@V?$basic_string@DU?$char_traits@D@std@@V?$allocator@D@2@@std@@@2@V?$allocator@V?$basic_string@DU?$char_traits@D@std@@V?$allocator@D@2@@std@@@2@$0A@@std@@@std@@QEAA?AU?$pair@V?$_Tree_const_iterator@V?$_Tree_val@U?$_Tree_simple_types@V?$basic_string@DU?$char_traits@D@std@@V?$allocator@D@2@@std@@@std@@@std@@@std@@_N@1@$$QEAV?$basic_string@DU?$char_traits@D@std@@V?$allocator@D@2@@1@@Z
	??$insert@$0A@$0A@@?$_Tree@V?$_Tset_traits@V?$basic_string@DU?$char_traits@D@std@@V?$allocator@D@2@@std@@U?$less@V?$basic_string@DU?$char_traits@D@std@@V?$allocator@D@2@@std@@@2@V?$allocator@V?$basic_string@DU?$char_traits@D@std@@V?$allocator@D@2@@std@@@2@$0A@@std@@@std@@QEAA?AU?$pair@V?$_Tree_const_iterator@V?$_Tree_val@U?$_Tree_simple_types@V?$basic_string@DU?$char_traits@D@std@@V?$allocator@D@2@@std@@@std@@@std@@@std@@_N@1@AEBV?$basic_string@DU?$char_traits@D@std@@V?$allocator@D@2@@1@@Z
	??$insert@$0A@$0A@@?$_Tree@V?$_Tset_traits@VExpectation@testing@@VLess@12@V?$allocator@VExpectation@testing@@@std@@$0A@@std@@@std@@QEAA?AU?$pair@V?$_Tree_const_iterator@V?$_Tree_val@U?$_Tree_simple_types@VExpectation@testing@@@std@@@std@@@std@@_N@1@AEBVExpectation@testing@@@Z
	??$insert@U?$pair@KV?$map@PEBVThreadLocalBase@internal@testing@@V?$shared_ptr@VThreadLocalValueHolderBase@internal@testing@@@std@@U?$less@PEBVThreadLocalBase@internal@testing@@@5@V?$allocator@U?$pair@QEBVThreadLocalBase@internal@testing@@V?$shared_ptr@VThreadLocalValueHolderBase@internal@testing@@@std@@@std@@@5@@std@@@std@@$0A@@?$map@KV?$map@PEBVThreadLocalBase@internal@testing@@V?$shared_ptr@VThreadLocalValueHolderBase@internal@testing@@@std@@U?$less@PEBVThreadLocalBase@internal@testing@@@5@V?$allocator@U?$pair@QEBVThreadLocalBase@internal@testing@@V?$shared_ptr@VThreadLocalValueHolderBase@internal@testing@@@std@@@std@@@5@@std@@U?$less@K@2@V?$allocator@U?$pair@$$CBKV?$map@PEBVThreadLocalBase@internal@testing@@V?$shared_ptr@VThreadLocalValueHolderBase@internal@testing@@@std@@U?$less@PEBVThreadLocalBase@internal@testing@@@5@V?$allocator@U?$pair@QEBVThreadLocalBase@internal@testing@@V?$shared_ptr@VThreadLocalValueHolderBase@internal@testing@@@std@@@std@@@5@@std@@@std@@@2@@std@@QEAA?AU?$pair@V?$_Tree_iterator@V?$_Tree_val@U?$_Tree_simple_types@U?$pair@$$CBKV?$map@PEBVThreadLocalBase@internal@testing@@V?$shared_ptr@VThreadLocalValueHolderBase@internal@testing@@@std@@U?$less@PEBVThreadLocalBase@internal@testing@@@5@V?$allocator@U?$pair@QEBVThreadLocalBase@internal@testing@@V?$shared_ptr@VThreadLocalValueHolderBase@internal@testing@@@std@@@std@@@5@@std@@@std@@@std@@@std@@@std@@_N@1@$$QEAU?$pair@KV?$map@PEBVThreadLocalBase@internal@testing@@V?$shared_ptr@VThreadLocalValueHolderBase@internal@testing@@@std@@U?$less@PEBVThreadLocalBase@internal@testing@@@5@V?$allocator@U?$pair@QEBVThreadLocalBase@internal@testing@@V?$shared_ptr@VThreadLocalValueHolderBase@internal@testing@@@std@@@std@@@5@@std@@@1@@Z
	??$insert@U?$pair@PEBVThreadLocalBase@internal@testing@@V?$shared_ptr@VThreadLocalValueHolderBase@internal@testing@@@std@@@std@@$0A@@?$map@PEBVThreadLocalBase@internal@testing@@V?$shared_ptr@VThreadLocalValueHolderBase@internal@testing@@@std@@U?$less@PEBVThreadLocalBase@internal@testing@@@5@V?$allocator@U?$pair@QEBVThreadLocalBase@internal@testing@@V?$shared_ptr@VThreadLocalValueHolderBase@internal@testing@@@std@@@std@@@5@@std@@QEAA?AU?$pair@V?$_Tree_iterator@V?$_Tree_val@U?$_Tree_simple_types@U?$pair@QEBVThreadLocalBase@internal@testing@@V?$shared_ptr@VThreadLocalValueHolderBase@internal@testing@@@std@@@std@@@std@@@std@@@std@@_N@1@$$QEAU?$pair@PEBVThreadLocalBase@internal@testing@@V?$shared_ptr@VThreadLocalValueHolderBase@internal@testing@@@std@@@1@@Z
	??$inserter@V?$unordered_set@V?$basic_string@DU?$char_traits@D@std@@V?$allocator@D@2@@std@@U?$hash@V?$basic_string@DU?$char_traits@D@std@@V?$allocator@D@2@@std@@@2@U?$equal_to@V?$basic_string@DU?$char_traits@D@std@@V?$allocator@D@2@@std@@@2@V?$allocator@V?$basic_string@DU?$char_traits@D@std@@V?$allocator@D@2@@std@@@2@@std@@@std@@YA?AV?$insert_iterator@V?$unordered_set@V?$basic_string@DU?$char_traits@D@std@@V?$allocator@D@2@@std@@U?$hash@V?$basic_string@DU?$char_traits@D@std@@V?$allocator@D@2@@std@@@2@U?$equal_to@V?$basic_string@DU?$char_traits@D@std@@V?$allocator@D@2@@std@@@2@V?$allocator@V?$basic_string@DU?$char_traits@D@std@@V?$allocator@D@2@@std@@@2@@std@@@0@AEAV?$unordered_set@V?$basic_string@DU?$char_traits@D@std@@V?$allocator@D@2@@std@@U?$hash@V?$basic_string@DU?$char_traits@D@std@@V?$allocator@D@2@@std@@@2@U?$equal_to@V?$basic_string@DU?$char_traits@D@std@@V?$allocator@D@2@@std@@@2@V?$allocator@V?$basic_string@DU?$char_traits@D@std@@V?$allocator@D@2@@std@@@2@@0@V?$_List_const_iterator@V?$_List_val@U?$_List_simple_types@V?$basic_string@DU?$char_traits@D@std@@V?$allocator@D@2@@std@@@std@@@std@@@0@@Z
	??$inserter@V?$vector@V?$basic_string@DU?$char_traits@D@std@@V?$allocator@D@2@@std@@V?$allocator@V?$basic_string@DU?$char_traits@D@std@@V?$allocator@D@2@@std@@@2@@std@@@std@@YA?AV?$insert_iterator@V?$vector@V?$basic_string@DU?$char_traits@D@std@@V?$allocator@D@2@@std@@V?$allocator@V?$basic_string@DU?$char_traits@D@std@@V?$allocator@D@2@@std@@@2@@std@@@0@AEAV?$vector@V?$basic_string@DU?$char_traits@D@std@@V?$allocator@D@2@@std@@V?$allocator@V?$basic_string@DU?$char_traits@D@std@@V?$allocator@D@2@@std@@@2@@0@V?$_Vector_iterator@V?$_Vector_val@U?$_Simple_types@V?$basic_string@DU?$char_traits@D@std@@V?$allocator@D@2@@std@@@std@@@std@@@0@@Z
	??$isinf@N@@YA_NN@Z
	??$isnan@N@@YA_NN@Z
	??$make_pair@AEAKV?$map@PEBVThreadLocalBase@internal@testing@@V?$shared_ptr@VThreadLocalValueHolderBase@internal@testing@@@std@@U?$less@PEBVThreadLocalBase@internal@testing@@@5@V?$allocator@U?$pair@QEBVThreadLocalBase@internal@testing@@V?$shared_ptr@VThreadLocalValueHolderBase@internal@testing@@@std@@@std@@@5@@std@@@std@@YA?AU?$pair@KV?$map@PEBVThreadLocalBase@internal@testing@@V?$shared_ptr@VThreadLocalValueHolderBase@internal@testing@@@std@@U?$less@PEBVThreadLocalBase@internal@testing@@@5@V?$allocator@U?$pair@QEBVThreadLocalBase@internal@testing@@V?$shared_ptr@VThreadLocalValueHolderBase@internal@testing@@@std@@@std@@@5@@std@@@0@AEAK$$QEAV?$map@PEBVThreadLocalBase@internal@testing@@V?$shared_ptr@VThreadLocalValueHolderBase@internal@testing@@@std@@U?$less@PEBVThreadLocalBase@internal@testing@@@5@V?$allocator@U?$pair@QEBVThreadLocalBase@internal@testing@@V?$shared_ptr@VThreadLocalValueHolderBase@internal@testing@@@std@@@std@@@5@@0@@Z
	??$make_pair@AEAPEBVThreadLocalBase@internal@testing@@V?$shared_ptr@VThreadLocalValueHolderBase@internal@testing@@@std@@@std@@YA?AU?$pair@PEBVThreadLocalBase@internal@testing@@V?$shared_ptr@VThreadLocalValueHolderBase@internal@testing@@@std@@@0@AEAPEBVThreadLocalBase@internal@testing@@$$QEAV?$shared_ptr@VThreadLocalValueHolderBase@internal@testing@@@0@@Z
	??$make_pair@DAEAPEBD@std@@YA?AU?$pair@DPEBD@0@$$QEADAEAPEBD@Z
	??$make_tuple@PEBV?$MatcherBase@AEBV?$basic_string@DU?$char_traits@D@std@@V?$allocator@D@2@@std@@@internal@testing@@PEBV?$EqMatcher@V?$basic_string@DU?$char_traits@D@std@@V?$allocator@D@2@@std@@@23@@std@@YA?AV?$tuple@PEBV?$MatcherBase@AEBV?$basic_string@DU?$char_traits@D@std@@V?$allocator@D@2@@std@@@internal@testing@@PEBV?$EqMatcher@V?$basic_string@DU?$char_traits@D@std@@V?$allocator@D@2@@std@@@23@@0@$$QEAPEBV?$MatcherBase@AEBV?$basic_string@DU?$char_traits@D@std@@V?$allocator@D@2@@std@@@internal@testing@@$$QEAPEBV?$EqMatcher@V?$basic_string@DU?$char_traits@D@std@@V?$allocator@D@2@@std@@@34@@Z
	??$make_tuple@PEBV?$MatcherBase@AEBV?$basic_string_view@DU?$char_traits@D@std@@@std@@@internal@testing@@PEBV?$EqMatcher@V?$basic_string@DU?$char_traits@D@std@@V?$allocator@D@2@@std@@@23@@std@@YA?AV?$tuple@PEBV?$MatcherBase@AEBV?$basic_string_view@DU?$char_traits@D@std@@@std@@@internal@testing@@PEBV?$EqMatcher@V?$basic_string@DU?$char_traits@D@std@@V?$allocator@D@2@@std@@@23@@0@$$QEAPEBV?$MatcherBase@AEBV?$basic_string_view@DU?$char_traits@D@std@@@std@@@internal@testing@@$$QEAPEBV?$EqMatcher@V?$basic_string@DU?$char_traits@D@std@@V?$allocator@D@2@@std@@@34@@Z
	??$make_tuple@PEBV?$MatcherBase@V?$basic_string@DU?$char_traits@D@std@@V?$allocator@D@2@@std@@@internal@testing@@PEBV?$EqMatcher@V?$basic_string@DU?$char_traits@D@std@@V?$allocator@D@2@@std@@@23@@std@@YA?AV?$tuple@PEBV?$MatcherBase@V?$basic_string@DU?$char_traits@D@std@@V?$allocator@D@2@@std@@@internal@testing@@PEBV?$EqMatcher@V?$basic_string@DU?$char_traits@D@std@@V?$allocator@D@2@@std@@@23@@0@$$QEAPEBV?$MatcherBase@V?$basic_string@DU?$char_traits@D@std@@V?$allocator@D@2@@std@@@internal@testing@@$$QEAPEBV?$EqMatcher@V?$basic_string@DU?$char_traits@D@std@@V?$allocator@D@2@@std@@@34@@Z
	??$make_tuple@PEBV?$MatcherBase@V?$basic_string_view@DU?$char_traits@D@std@@@std@@@internal@testing@@PEBV?$EqMatcher@V?$basic_string@DU?$char_traits@D@std@@V?$allocator@D@2@@std@@@23@@std@@YA?AV?$tuple@PEBV?$MatcherBase@V?$basic_string_view@DU?$char_traits@D@std@@@std@@@internal@testing@@PEBV?$EqMatcher@V?$basic_string@DU?$char_traits@D@std@@V?$allocator@D@2@@std@@@23@@0@$$QEAPEBV?$MatcherBase@V?$basic_string_view@DU?$char_traits@D@std@@@std@@@internal@testing@@$$QEAPEBV?$EqMatcher@V?$basic_string@DU?$char_traits@D@std@@V?$allocator@D@2@@std@@@34@@Z
	??$make_unique@V?$basic_string@DU?$char_traits@D@std@@V?$allocator@D@2@@std@@$$V$0A@@std@@YA?AV?$unique_ptr@V?$basic_string@DU?$char_traits@D@std@@V?$allocator@D@2@@std@@U?$default_delete@V?$basic_string@DU?$char_traits@D@std@@V?$allocator@D@2@@std@@@2@@0@XZ
	??$max@PEAD@std@@YAAEBQEADAEBQEAD0@Z
	??$max@_K@std@@YAAEB_KAEB_K0@Z
	??$min@N@std@@YAAEBNAEBN0@Z
	??$min@_J@std@@YAAEB_JAEB_J0@Z
	??$min@_K@std@@YAAEB_KAEB_K0@Z
	??$move@AEAD@std@@YA$$QEADAEAD@Z
	??$move@AEAH@std@@YA$$QEAHAEAH@Z
	??$move@AEAPEAD@std@@YA$$QEAPEADAEAPEAD@Z
	??$move@AEAPEAH@std@@YA$$QEAPEAHAEAPEAH@Z
	??$move@AEAPEAN@std@@YA$$QEAPEANAEAPEAN@Z
	??$move@AEAPEAPEAVEnvironment@testing@@@std@@YA$$QEAPEAPEAVEnvironment@testing@@AEAPEAPEAV12@@Z
	??$move@AEAPEAPEAVExpectationBase@internal@testing@@@std@@YA$$QEAPEAPEAVExpectationBase@internal@testing@@AEAPEAPEAV123@@Z
	??$move@AEAPEAPEAVTestEventListener@testing@@@std@@YA$$QEAPEAPEAVTestEventListener@testing@@AEAPEAPEAV12@@Z
	??$move@AEAPEAPEAVTestInfo@testing@@@std@@YA$$QEAPEAPEAVTestInfo@testing@@AEAPEAPEAV12@@Z
	??$move@AEAPEAPEAVTestSuite@testing@@@std@@YA$$QEAPEAPEAVTestSuite@testing@@AEAPEAPEAV12@@Z
	??$move@AEAPEAPEBVExpectationBase@internal@testing@@@std@@YA$$QEAPEAPEBVExpectationBase@internal@testing@@AEAPEAPEBV123@@Z
	??$move@AEAPEAU?$_List_node@V?$basic_string@DU?$char_traits@D@std@@V?$allocator@D@2@@std@@PEAX@std@@@std@@YA$$QEAPEAU?$_List_node@V?$basic_string@DU?$char_traits@D@std@@V?$allocator@D@2@@std@@PEAX@0@AEAPEAU10@@Z
	??$move@AEAPEAU?$_Tree_node@U?$pair@QEBVThreadLocalBase@internal@testing@@V?$shared_ptr@VThreadLocalValueHolderBase@internal@testing@@@std@@@std@@PEAX@std@@@std@@YA$$QEAPEAU?$_Tree_node@U?$pair@QEBVThreadLocalBase@internal@testing@@V?$shared_ptr@VThreadLocalValueHolderBase@internal@testing@@@std@@@std@@PEAX@0@AEAPEAU10@@Z
	??$move@AEAPEAU?$pair@_K_K@std@@@std@@YA$$QEAPEAU?$pair@_K_K@0@AEAPEAU10@@Z
	??$move@AEAPEAV?$_List_unchecked_const_iterator@V?$_List_val@U?$_List_simple_types@V?$basic_string@DU?$char_traits@D@std@@V?$allocator@D@2@@std@@@std@@@std@@U_Iterator_base0@2@@std@@@std@@YA$$QEAPEAV?$_List_unchecked_const_iterator@V?$_List_val@U?$_List_simple_types@V?$basic_string@DU?$char_traits@D@std@@V?$allocator@D@2@@std@@@std@@@std@@U_Iterator_base0@2@@0@AEAPEAV10@@Z
	??$move@AEAPEAV?$basic_string@DU?$char_traits@D@std@@V?$allocator@D@2@@std@@@std@@YA$$QEAPEAV?$basic_string@DU?$char_traits@D@std@@V?$allocator@D@2@@0@AEAPEAV10@@Z
	??$move@AEAPEAV?$shared_ptr@VExpectationBase@internal@testing@@@std@@@std@@YA$$QEAPEAV?$shared_ptr@VExpectationBase@internal@testing@@@0@AEAPEAV10@@Z
	??$move@AEAPEAVEnvironment@testing@@@std@@YA$$QEAPEAVEnvironment@testing@@AEAPEAV12@@Z
	??$move@AEAPEAVExpectationBase@internal@testing@@@std@@YA$$QEAPEAVExpectationBase@internal@testing@@AEAPEAV123@@Z
	??$move@AEAPEAVTestEventListener@testing@@@std@@YA$$QEAPEAVTestEventListener@testing@@AEAPEAV12@@Z
	??$move@AEAPEAVTestInfo@testing@@@std@@YA$$QEAPEAVTestInfo@testing@@AEAPEAV12@@Z
	??$move@AEAPEAVTestSuite@testing@@@std@@YA$$QEAPEAVTestSuite@testing@@AEAPEAV12@@Z
	??$move@AEAPEAV_Ref_count_base@std@@@std@@YA$$QEAPEAV_Ref_count_base@0@AEAPEAV10@@Z
	??$move@AEAPEAW4EditType@edit_distance@internal@testing@@@std@@YA$$QEAPEAW4EditType@edit_distance@internal@testing@@AEAPEAW41234@@Z
	??$move@AEAPEA_K@std@@YA$$QEAPEA_KAEAPEA_K@Z
	??$move@AEAPEBQEBD@std@@YA$$QEAPEBQEBDAEAPEBQEBD@Z
	??$move@AEAPEBV?$basic_string@DU?$char_traits@D@std@@V?$allocator@D@2@@std@@@std@@YA$$QEAPEBV?$basic_string@DU?$char_traits@D@std@@V?$allocator@D@2@@0@AEAPEBV10@@Z
	??$move@AEAPEBVCardinalityInterface@testing@@@std@@YA$$QEAPEBVCardinalityInterface@testing@@AEAPEBV12@@Z
	??$move@AEAPEBVExpectationBase@internal@testing@@@std@@YA$$QEAPEBVExpectationBase@internal@testing@@AEAPEBV123@@Z
	??$move@AEAU?$default_delete@V?$basic_string@DU?$char_traits@D@std@@V?$allocator@D@2@@std@@@std@@@std@@YA$$QEAU?$default_delete@V?$basic_string@DU?$char_traits@D@std@@V?$allocator@D@2@@std@@@0@AEAU10@@Z
	??$move@AEAU?$pair@DPEBD@std@@@std@@YA$$QEAU?$pair@DPEBD@0@AEAU10@@Z
	??$move@AEAU?$pair@_K_K@std@@@std@@YA$$QEAU?$pair@_K_K@0@AEAU10@@Z
	??$move@AEAUCodeLocation@internal@testing@@@std@@YA$$QEAUCodeLocation@internal@testing@@AEAU123@@Z
	??$move@AEAUTraceInfo@internal@testing@@@std@@YA$$QEAUTraceInfo@internal@testing@@AEAU123@@Z
	??$move@AEAV?$EqMatcher@V?$basic_string@DU?$char_traits@D@std@@V?$allocator@D@2@@std@@@internal@testing@@@std@@YA$$QEAV?$EqMatcher@V?$basic_string@DU?$char_traits@D@std@@V?$allocator@D@2@@std@@@internal@testing@@AEAV123@@Z
	??$move@AEAV?$Matcher@AEBV?$basic_string@DU?$char_traits@D@std@@V?$allocator@D@2@@std@@@testing@@@std@@YA$$QEAV?$Matcher@AEBV?$basic_string@DU?$char_traits@D@std@@V?$allocator@D@2@@std@@@testing@@AEAV12@@Z
	??$move@AEAV?$_List_const_iterator@V?$_List_val@U?$_List_simple_types@V?$basic_string@DU?$char_traits@D@std@@V?$allocator@D@2@@std@@@std@@@std@@@std@@@std@@YA$$QEAV?$_List_const_iterator@V?$_List_val@U?$_List_simple_types@V?$basic_string@DU?$char_traits@D@std@@V?$allocator@D@2@@std@@@std@@@std@@@0@AEAV10@@Z
	??$move@AEAV?$_String_const_iterator@V?$_String_val@U?$_Simple_types@D@std@@@std@@@std@@@std@@YA$$QEAV?$_String_const_iterator@V?$_String_val@U?$_Simple_types@D@std@@@std@@@0@AEAV10@@Z
	??$move@AEAV?$_Vector_iterator@V?$_Vector_val@U?$_Simple_types@PEAVEnvironment@testing@@@std@@@std@@@std@@@std@@YA$$QEAV?$_Vector_iterator@V?$_Vector_val@U?$_Simple_types@PEAVEnvironment@testing@@@std@@@std@@@0@AEAV10@@Z
	??$move@AEAV?$_Vector_iterator@V?$_Vector_val@U?$_Simple_types@PEAVTestSuite@testing@@@std@@@std@@@std@@@std@@YA$$QEAV?$_Vector_iterator@V?$_Vector_val@U?$_Simple_types@PEAVTestSuite@testing@@@std@@@std@@@0@AEAV10@@Z
	??$move@AEAV?$_Vector_iterator@V?$_Vector_val@U?$_Simple_types@V?$basic_string@DU?$char_traits@D@std@@V?$allocator@D@2@@std@@@std@@@std@@@std@@@std@@YA$$QEAV?$_Vector_iterator@V?$_Vector_val@U?$_Simple_types@V?$basic_string@DU?$char_traits@D@std@@V?$allocator@D@2@@std@@@std@@@std@@@0@AEAV10@@Z
	??$move@AEAV?$allocator@D@std@@@std@@YA$$QEAV?$allocator@D@0@AEAV10@@Z
	??$move@AEAV?$allocator@U?$_List_node@V?$basic_string@DU?$char_traits@D@std@@V?$allocator@D@2@@std@@PEAX@std@@@std@@@std@@YA$$QEAV?$allocator@U?$_List_node@V?$basic_string@DU?$char_traits@D@std@@V?$allocator@D@2@@std@@PEAX@std@@@0@AEAV10@@Z
	??$move@AEAV?$allocator@U?$_Tree_node@U?$pair@QEBVThreadLocalBase@internal@testing@@V?$shared_ptr@VThreadLocalValueHolderBase@internal@testing@@@std@@@std@@PEAX@std@@@std@@@std@@YA$$QEAV?$allocator@U?$_Tree_node@U?$pair@QEBVThreadLocalBase@internal@testing@@V?$shared_ptr@VThreadLocalValueHolderBase@internal@testing@@@std@@@std@@PEAX@std@@@0@AEAV10@@Z
	??$move@AEAV?$allocator@U?$pair@_K_K@std@@@std@@@std@@YA$$QEAV?$allocator@U?$pair@_K_K@std@@@0@AEAV10@@Z
	??$move@AEAV?$allocator@V?$_List_unchecked_const_iterator@V?$_List_val@U?$_List_simple_types@V?$basic_string@DU?$char_traits@D@std@@V?$allocator@D@2@@std@@@std@@@std@@U_Iterator_base0@2@@std@@@std@@@std@@YA$$QEAV?$allocator@V?$_List_unchecked_const_iterator@V?$_List_val@U?$_List_simple_types@V?$basic_string@DU?$char_traits@D@std@@V?$allocator@D@2@@std@@@std@@@std@@U_Iterator_base0@2@@std@@@0@AEAV10@@Z
	??$move@AEAV?$allocator@V?$basic_string@DU?$char_traits@D@std@@V?$allocator@D@2@@std@@@std@@@std@@YA$$QEAV?$allocator@V?$basic_string@DU?$char_traits@D@std@@V?$allocator@D@2@@std@@@0@AEAV10@@Z
	??$move@AEAV?$allocator@W4EditType@edit_distance@internal@testing@@@std@@@std@@YA$$QEAV?$allocator@W4EditType@edit_distance@internal@testing@@@0@AEAV10@@Z
	??$move@AEAV?$allocator@_W@std@@@std@@YA$$QEAV?$allocator@_W@0@AEAV10@@Z
	??$move@AEAV?$basic_string@DU?$char_traits@D@std@@V?$allocator@D@2@@std@@@std@@YA$$QEAV?$basic_string@DU?$char_traits@D@std@@V?$allocator@D@2@@0@AEAV10@@Z
	??$move@AEAV?$map@PEBVThreadLocalBase@internal@testing@@V?$shared_ptr@VThreadLocalValueHolderBase@internal@testing@@@std@@U?$less@PEBVThreadLocalBase@internal@testing@@@5@V?$allocator@U?$pair@QEBVThreadLocalBase@internal@testing@@V?$shared_ptr@VThreadLocalValueHolderBase@internal@testing@@@std@@@std@@@5@@std@@@std@@YA$$QEAV?$map@PEBVThreadLocalBase@internal@testing@@V?$shared_ptr@VThreadLocalValueHolderBase@internal@testing@@@std@@U?$less@PEBVThreadLocalBase@internal@testing@@@5@V?$allocator@U?$pair@QEBVThreadLocalBase@internal@testing@@V?$shared_ptr@VThreadLocalValueHolderBase@internal@testing@@@std@@@std@@@5@@0@AEAV10@@Z
	??$move@AEAV?$shared_ptr@VThreadLocalValueHolderBase@internal@testing@@@std@@@std@@YA$$QEAV?$shared_ptr@VThreadLocalValueHolderBase@internal@testing@@@0@AEAV10@@Z
	??$move@AEAV?$tuple@$$QEA_K@std@@@std@@YA$$QEAV?$tuple@$$QEA_K@0@AEAV10@@Z
	??$move@AEAV?$tuple@AEBQEBX@std@@@std@@YA$$QEAV?$tuple@AEBQEBX@0@AEAV10@@Z
	??$move@AEAV?$tuple@AEBV?$basic_string@DU?$char_traits@D@std@@V?$allocator@D@2@@std@@@std@@@std@@YA$$QEAV?$tuple@AEBV?$basic_string@DU?$char_traits@D@std@@V?$allocator@D@2@@std@@@0@AEAV10@@Z
	??$move@AEAV?$tuple@AEB_K@std@@@std@@YA$$QEAV?$tuple@AEB_K@0@AEAV10@@Z
	??$move@AEAV?$unordered_set@V?$basic_string@DU?$char_traits@D@std@@V?$allocator@D@2@@std@@U?$hash@V?$basic_string@DU?$char_traits@D@std@@V?$allocator@D@2@@std@@@2@U?$equal_to@V?$basic_string@DU?$char_traits@D@std@@V?$allocator@D@2@@std@@@2@V?$allocator@V?$basic_string@DU?$char_traits@D@std@@V?$allocator@D@2@@std@@@2@@std@@@std@@YA$$QEAV?$unordered_set@V?$basic_string@DU?$char_traits@D@std@@V?$allocator@D@2@@std@@U?$hash@V?$basic_string@DU?$char_traits@D@std@@V?$allocator@D@2@@std@@@2@U?$equal_to@V?$basic_string@DU?$char_traits@D@std@@V?$allocator@D@2@@std@@@2@V?$allocator@V?$basic_string@DU?$char_traits@D@std@@V?$allocator@D@2@@std@@@2@@0@AEAV10@@Z
	??$move@AEAVTestPartResult@testing@@@std@@YA$$QEAVTestPartResult@testing@@AEAV12@@Z
	??$move@AEAVTestProperty@testing@@@std@@YA$$QEAVTestProperty@testing@@AEAV12@@Z
	??$move@AEAW4EditType@edit_distance@internal@testing@@@std@@YA$$QEAW4EditType@edit_distance@internal@testing@@AEAW41234@@Z
	??$move@AEA_K@std@@YA$$QEA_KAEA_K@Z
	??$move@AEA_N@std@@YA$$QEA_NAEA_N@Z
	??$move@V?$_Vector_iterator@V?$_Vector_val@U?$_Simple_types@V?$basic_string@DU?$char_traits@D@std@@V?$allocator@D@2@@std@@@std@@@std@@@std@@V?$insert_iterator@V?$unordered_set@V?$basic_string@DU?$char_traits@D@std@@V?$allocator@D@2@@std@@U?$hash@V?$basic_string@DU?$char_traits@D@std@@V?$allocator@D@2@@std@@@2@U?$equal_to@V?$basic_string@DU?$char_traits@D@std@@V?$allocator@D@2@@std@@@2@V?$allocator@V?$basic_string@DU?$char_traits@D@std@@V?$allocator@D@2@@std@@@2@@std@@@2@@std@@YA?AV?$insert_iterator@V?$unordered_set@V?$basic_string@DU?$char_traits@D@std@@V?$allocator@D@2@@std@@U?$hash@V?$basic_string@DU?$char_traits@D@std@@V?$allocator@D@2@@std@@@2@U?$equal_to@V?$basic_string@DU?$char_traits@D@std@@V?$allocator@D@2@@std@@@2@V?$allocator@V?$basic_string@DU?$char_traits@D@std@@V?$allocator@D@2@@std@@@2@@std@@@0@V?$_Vector_iterator@V?$_Vector_val@U?$_Simple_types@V?$basic_string@DU?$char_traits@D@std@@V?$allocator@D@2@@std@@@std@@@std@@@0@0V10@@Z
	??$move@V?$_Vector_iterator@V?$_Vector_val@U?$_Simple_types@V?$basic_string@DU?$char_traits@D@std@@V?$allocator@D@2@@std@@@std@@@std@@@std@@V?$insert_iterator@V?$vector@V?$basic_string@DU?$char_traits@D@std@@V?$allocator@D@2@@std@@V?$allocator@V?$basic_string@DU?$char_traits@D@std@@V?$allocator@D@2@@std@@@2@@std@@@2@@std@@YA?AV?$insert_iterator@V?$vector@V?$basic_string@DU?$char_traits@D@std@@V?$allocator@D@2@@std@@V?$allocator@V?$basic_string@DU?$char_traits@D@std@@V?$allocator@D@2@@std@@@2@@std@@@0@V?$_Vector_iterator@V?$_Vector_val@U?$_Simple_types@V?$basic_string@DU?$char_traits@D@std@@V?$allocator@D@2@@std@@@std@@@std@@@0@0V10@@Z
	??$next@PEAPEAVTestInfo@testing@@@std@@YAPEAPEAVTestInfo@testing@@PEAPEAV12@_J@Z
	??$partition@V?$_Vector_iterator@V?$_Vector_val@U?$_Simple_types@V?$basic_string@DU?$char_traits@D@std@@V?$allocator@D@2@@std@@@std@@@std@@@std@@P6A_NAEBV?$basic_string@DU?$char_traits@D@std@@V?$allocator@D@2@@2@@Z@std@@YA?AV?$_Vector_iterator@V?$_Vector_val@U?$_Simple_types@V?$basic_string@DU?$char_traits@D@std@@V?$allocator@D@2@@std@@@std@@@std@@@0@V10@V10@P6A_NAEBV?$basic_string@DU?$char_traits@D@std@@V?$allocator@D@2@@0@@Z@Z
	??$prev@V?$_String_iterator@V?$_String_val@U?$_Simple_types@D@std@@@std@@@std@@@std@@YA?AV?$_String_iterator@V?$_String_val@U?$_Simple_types@D@std@@@std@@@0@V10@_J@Z
	??$reverse@PEAPEAVTestInfo@testing@@@std@@YAXQEAPEAVTestInfo@testing@@0@Z
	??$reverse@V?$_Vector_iterator@V?$_Vector_val@U?$_Simple_types@W4EditType@edit_distance@internal@testing@@@std@@@std@@@std@@@std@@YAXV?$_Vector_iterator@V?$_Vector_val@U?$_Simple_types@W4EditType@edit_distance@internal@testing@@@std@@@std@@@0@0@Z
	??$rotate@PEAPEAVTestInfo@testing@@@std@@YAPEAPEAVTestInfo@testing@@PEAPEAV12@00@Z
	??$setfill@D@std@@YA?AU?$_Fillobj@D@0@D@Z
	??$swap@D$0A@@std@@YAXAEAD0@Z
	??$swap@DU?$char_traits@D@std@@V?$allocator@D@2@@std@@YAXAEAV?$basic_string@DU?$char_traits@D@std@@V?$allocator@D@2@@0@0@Z
	??$swap@H$0A@@std@@YAXAEAH0@Z
	??$swap@PEAD$0A@@std@@YAXAEAPEAD0@Z
	??$swap@PEAU?$_List_node@V?$basic_string@DU?$char_traits@D@std@@V?$allocator@D@2@@std@@PEAX@std@@$0A@@std@@YAXAEAPEAU?$_List_node@V?$basic_string@DU?$char_traits@D@std@@V?$allocator@D@2@@std@@PEAX@0@0@Z
	??$swap@PEAU?$_Tree_node@U?$pair@QEBVThreadLocalBase@internal@testing@@V?$shared_ptr@VThreadLocalValueHolderBase@internal@testing@@@std@@@std@@PEAX@std@@$0A@@std@@YAXAEAPEAU?$_Tree_node@U?$pair@QEBVThreadLocalBase@internal@testing@@V?$shared_ptr@VThreadLocalValueHolderBase@internal@testing@@@std@@@std@@PEAX@0@0@Z
	??$swap@PEAV?$_List_unchecked_const_iterator@V?$_List_val@U?$_List_simple_types@V?$basic_string@DU?$char_traits@D@std@@V?$allocator@D@2@@std@@@std@@@std@@U_Iterator_base0@2@@std@@$0A@@std@@YAXAEAPEAV?$_List_unchecked_const_iterator@V?$_List_val@U?$_List_simple_types@V?$basic_string@DU?$char_traits@D@std@@V?$allocator@D@2@@std@@@std@@@std@@U_Iterator_base0@2@@0@0@Z
	??$swap@PEAV?$basic_string@DU?$char_traits@D@std@@V?$allocator@D@2@@std@@$0A@@std@@YAXAEAPEAV?$basic_string@DU?$char_traits@D@std@@V?$allocator@D@2@@0@0@Z
	??$swap@PEAV?$shared_ptr@VExpectationBase@internal@testing@@@std@@$0A@@std@@YAXAEAPEAV?$shared_ptr@VExpectationBase@internal@testing@@@0@0@Z
	??$swap@PEAVExpectationBase@internal@testing@@$0A@@std@@YAXAEAPEAVExpectationBase@internal@testing@@0@Z
	??$swap@PEAVTestInfo@testing@@$0A@@std@@YAXAEAPEAVTestInfo@testing@@0@Z
	??$swap@PEAV_Ref_count_base@std@@$0A@@std@@YAXAEAPEAV_Ref_count_base@0@0@Z
	??$swap@PEBVCardinalityInterface@testing@@$0A@@std@@YAXAEAPEBVCardinalityInterface@testing@@0@Z
	??$swap@U?$default_delete@V?$basic_string@DU?$char_traits@D@std@@V?$allocator@D@2@@std@@@std@@$0A@@std@@YAXAEAU?$default_delete@V?$basic_string@DU?$char_traits@D@std@@V?$allocator@D@2@@std@@@0@0@Z
	??$swap@V?$basic_string@DU?$char_traits@D@std@@V?$allocator@D@2@@std@@U?$default_delete@V?$basic_string@DU?$char_traits@D@std@@V?$allocator@D@2@@std@@@2@$0A@@std@@YAXAEAV?$unique_ptr@V?$basic_string@DU?$char_traits@D@std@@V?$allocator@D@2@@std@@U?$default_delete@V?$basic_string@DU?$char_traits@D@std@@V?$allocator@D@2@@std@@@2@@0@0@Z
	??$swap@W4EditType@edit_distance@internal@testing@@$0A@@std@@YAXAEAW4EditType@edit_distance@internal@testing@@0@Z
	??$swap@_K$0A@@std@@YAXAEA_K0@Z
	??$swap@_N$0A@@std@@YAXAEA_N0@Z
	??$uninitialized_fill@PEAV?$_List_unchecked_const_iterator@V?$_List_val@U?$_List_simple_types@V?$basic_string@DU?$char_traits@D@std@@V?$allocator@D@2@@std@@@std@@@std@@U_Iterator_base0@2@@std@@V12@@std@@YAXQEAV?$_List_unchecked_const_iterator@V?$_List_val@U?$_List_simple_types@V?$basic_string@DU?$char_traits@D@std@@V?$allocator@D@2@@std@@@std@@@std@@U_Iterator_base0@2@@0@0AEBV10@@Z
	??$uninitialized_fill@PEAV?$_List_unchecked_iterator@V?$_List_val@U?$_List_simple_types@U?$pair@$$CBV?$basic_string@DU?$char_traits@D@std@@V?$allocator@D@2@@std@@PEAVTestSuite@testing@@@std@@@std@@@std@@@std@@V12@@std@@YAXQEAV?$_List_unchecked_iterator@V?$_List_val@U?$_List_simple_types@U?$pair@$$CBV?$basic_string@DU?$char_traits@D@std@@V?$allocator@D@2@@std@@PEAVTestSuite@testing@@@std@@@std@@@std@@@0@0AEBV10@@Z
	??$uninitialized_fill@PEAV?$_List_unchecked_iterator@V?$_List_val@U?$_List_simple_types@U?$pair@$$CBV?$basic_string@DU?$char_traits@D@std@@V?$allocator@D@2@@std@@_K@std@@@std@@@std@@@std@@V12@@std@@YAXQEAV?$_List_unchecked_iterator@V?$_List_val@U?$_List_simple_types@U?$pair@$$CBV?$basic_string@DU?$char_traits@D@std@@V?$allocator@D@2@@std@@_K@std@@@std@@@std@@@0@0AEBV10@@Z
	??$uninitialized_fill@PEAV?$_List_unchecked_iterator@V?$_List_val@U?$_List_simple_types@U?$pair@$$CB_KW4CallReaction@internal@testing@@@std@@@std@@@std@@@std@@V12@@std@@YAXQEAV?$_List_unchecked_iterator@V?$_List_val@U?$_List_simple_types@U?$pair@$$CB_KW4CallReaction@internal@testing@@@std@@@std@@@std@@@0@0AEBV10@@Z
	??$wait@V<lambda_c2b0314b67745cbf0ed11dc9e0337c67>@@@condition_variable@std@@QEAAXAEAV?$unique_lock@Vmutex@std@@@1@V<lambda_c2b0314b67745cbf0ed11dc9e0337c67>@@@Z
	??0<lambda_c2b0314b67745cbf0ed11dc9e0337c67>@@QEAA@PEAVNotification@internal@testing@@@Z
	??0?$ComparisonBase@V?$EqMatcher@V?$basic_string@DU?$char_traits@D@std@@V?$allocator@D@2@@std@@@internal@testing@@V?$basic_string@DU?$char_traits@D@std@@V?$allocator@D@2@@std@@U?$equal_to@X@5@@internal@testing@@QEAA@$$QEAV012@@Z
	??0?$ComparisonBase@V?$EqMatcher@V?$basic_string@DU?$char_traits@D@std@@V?$allocator@D@2@@std@@@internal@testing@@V?$basic_string@DU?$char_traits@D@std@@V?$allocator@D@2@@std@@U?$equal_to@X@5@@internal@testing@@QEAA@AEBV?$basic_string@DU?$char_traits@D@std@@V?$allocator@D@2@@std@@@Z
	??0?$EqMatcher@V?$basic_string@DU?$char_traits@D@std@@V?$allocator@D@2@@std@@@internal@testing@@QEAA@$$QEAV012@@Z
	??0?$EqMatcher@V?$basic_string@DU?$char_traits@D@std@@V?$allocator@D@2@@std@@@internal@testing@@QEAA@AEBV?$basic_string@DU?$char_traits@D@std@@V?$allocator@D@2@@std@@@Z
	??0?$FloatingPoint@M@internal@testing@@QEAA@M@Z
	??0?$FloatingPoint@N@internal@testing@@QEAA@N@Z
	??0?$Matcher@AEBV?$basic_string@DU?$char_traits@D@std@@V?$allocator@D@2@@std@@@testing@@QEAA@$$QEAV01@@Z
	??0?$Matcher@AEBV?$basic_string@DU?$char_traits@D@std@@V?$allocator@D@2@@std@@@testing@@QEAA@AEBV?$basic_string@DU?$char_traits@D@std@@V?$allocator@D@2@@std@@@Z
	??0?$Matcher@AEBV?$basic_string@DU?$char_traits@D@std@@V?$allocator@D@2@@std@@@testing@@QEAA@PEBD@Z
	??0?$Matcher@AEBV?$basic_string_view@DU?$char_traits@D@std@@@std@@@testing@@QEAA@AEBV?$basic_string@DU?$char_traits@D@std@@V?$allocator@D@2@@std@@@Z
	??0?$Matcher@AEBV?$basic_string_view@DU?$char_traits@D@std@@@std@@@testing@@QEAA@PEBD@Z
	??0?$Matcher@AEBV?$basic_string_view@DU?$char_traits@D@std@@@std@@@testing@@QEAA@V?$basic_string_view@DU?$char_traits@D@std@@@std@@@Z
	??0?$Matcher@V?$basic_string@DU?$char_traits@D@std@@V?$allocator@D@2@@std@@@testing@@QEAA@AEBV?$basic_string@DU?$char_traits@D@std@@V?$allocator@D@2@@std@@@Z
	??0?$Matcher@V?$basic_string@DU?$char_traits@D@std@@V?$allocator@D@2@@std@@@testing@@QEAA@PEBD@Z
	??0?$Matcher@V?$basic_string_view@DU?$char_traits@D@std@@@std@@@testing@@QEAA@AEBV?$basic_string@DU?$char_traits@D@std@@V?$allocator@D@2@@std@@@Z
	??0?$Matcher@V?$basic_string_view@DU?$char_traits@D@std@@@std@@@testing@@QEAA@PEBD@Z
	??0?$Matcher@V?$basic_string_view@DU?$char_traits@D@std@@@std@@@testing@@QEAA@V?$basic_string_view@DU?$char_traits@D@std@@@std@@@Z
	??0?$MatcherBase@AEBV?$basic_string@DU?$char_traits@D@std@@V?$allocator@D@2@@std@@@internal@testing@@IEAA@$$QEAV012@@Z
	??0?$MatcherBase@AEBV?$basic_string@DU?$char_traits@D@std@@V?$allocator@D@2@@std@@@internal@testing@@IEAA@XZ
	??0?$MatcherBase@AEBV?$basic_string_view@DU?$char_traits@D@std@@@std@@@internal@testing@@IEAA@XZ
	??0?$MatcherBase@V?$basic_string@DU?$char_traits@D@std@@V?$allocator@D@2@@std@@@internal@testing@@IEAA@XZ
	??0?$MatcherBase@V?$basic_string_view@DU?$char_traits@D@std@@@std@@@internal@testing@@IEAA@XZ
	??0?$SharedPayload@V?$EqMatcher@V?$basic_string@DU?$char_traits@D@std@@V?$allocator@D@2@@std@@@internal@testing@@@internal@testing@@QEAA@$$QEAV?$EqMatcher@V?$basic_string@DU?$char_traits@D@std@@V?$allocator@D@2@@std@@@12@@Z
	??0?$ThreadLocal@PEAVSequence@testing@@@internal@testing@@QEAA@XZ
	??0?$ThreadLocal@PEAVTestPartResultReporterInterface@testing@@@internal@testing@@QEAA@AEBQEAVTestPartResultReporterInterface@2@@Z
	??0?$ThreadLocal@V?$vector@UTraceInfo@internal@testing@@V?$allocator@UTraceInfo@internal@testing@@@std@@@std@@@internal@testing@@QEAA@XZ
	??0?$_Alloc_construct_ptr@V?$allocator@U?$_List_node@U?$pair@$$CBV?$basic_string@DU?$char_traits@D@std@@V?$allocator@D@2@@std@@PEAVTestSuite@testing@@@std@@PEAX@std@@@std@@@std@@QEAA@AEAV?$allocator@U?$_List_node@U?$pair@$$CBV?$basic_string@DU?$char_traits@D@std@@V?$allocator@D@2@@std@@PEAVTestSuite@testing@@@std@@PEAX@std@@@1@@Z
	??0?$_Alloc_construct_ptr@V?$allocator@U?$_List_node@U?$pair@$$CB_KW4CallReaction@internal@testing@@@std@@PEAX@std@@@std@@@std@@QEAA@AEAV?$allocator@U?$_List_node@U?$pair@$$CB_KW4CallReaction@internal@testing@@@std@@PEAX@std@@@1@@Z
	??0?$_Alloc_construct_ptr@V?$allocator@U?$_List_node@U?$pair@DPEBD@std@@PEAX@std@@@std@@@std@@QEAA@AEAV?$allocator@U?$_List_node@U?$pair@DPEBD@std@@PEAX@std@@@1@@Z
	??0?$_Alloc_construct_ptr@V?$allocator@U?$_List_node@V?$basic_string@DU?$char_traits@D@std@@V?$allocator@D@2@@std@@PEAX@std@@@std@@@std@@QEAA@AEAV?$allocator@U?$_List_node@V?$basic_string@DU?$char_traits@D@std@@V?$allocator@D@2@@std@@PEAX@std@@@1@@Z
	??0?$_Alloc_construct_ptr@V?$allocator@U?$_Tree_node@PEAVUntypedFunctionMockerBase@internal@testing@@PEAX@std@@@std@@@std@@QEAA@AEAV?$allocator@U?$_Tree_node@PEAVUntypedFunctionMockerBase@internal@testing@@PEAX@std@@@1@@Z
	??0?$_Alloc_construct_ptr@V?$allocator@U?$_Tree_node@U?$pair@$$CBKV?$map@PEBVThreadLocalBase@internal@testing@@V?$shared_ptr@VThreadLocalValueHolderBase@internal@testing@@@std@@U?$less@PEBVThreadLocalBase@internal@testing@@@5@V?$allocator@U?$pair@QEBVThreadLocalBase@internal@testing@@V?$shared_ptr@VThreadLocalValueHolderBase@internal@testing@@@std@@@std@@@5@@std@@@std@@PEAX@std@@@std@@@std@@QEAA@AEAV?$allocator@U?$_Tree_node@U?$pair@$$CBKV?$map@PEBVThreadLocalBase@internal@testing@@V?$shared_ptr@VThreadLocalValueHolderBase@internal@testing@@@std@@U?$less@PEBVThreadLocalBase@internal@testing@@@5@V?$allocator@U?$pair@QEBVThreadLocalBase@internal@testing@@V?$shared_ptr@VThreadLocalValueHolderBase@internal@testing@@@std@@@std@@@5@@std@@@std@@PEAX@std@@@1@@Z
	??0?$_Alloc_construct_ptr@V?$allocator@U?$_Tree_node@U?$pair@$$CBV?$basic_string@DU?$char_traits@D@std@@V?$allocator@D@2@@std@@UTypeParameterizedTestSuiteInfo@TypeParameterizedTestSuiteRegistry@internal@testing@@@std@@PEAX@std@@@std@@@std@@QEAA@AEAV?$allocator@U?$_Tree_node@U?$pair@$$CBV?$basic_string@DU?$char_traits@D@std@@V?$allocator@D@2@@std@@UTypeParameterizedTestSuiteInfo@TypeParameterizedTestSuiteRegistry@internal@testing@@@std@@PEAX@std@@@1@@Z
	??0?$_Alloc_construct_ptr@V?$allocator@U?$_Tree_node@U?$pair@$$CBV?$basic_string@DU?$char_traits@D@std@@V?$allocator@D@2@@std@@_K@std@@PEAX@std@@@std@@@std@@QEAA@AEAV?$allocator@U?$_Tree_node@U?$pair@$$CBV?$basic_string@DU?$char_traits@D@std@@V?$allocator@D@2@@std@@_K@std@@PEAX@std@@@1@@Z
	??0?$_Alloc_construct_ptr@V?$allocator@U?$_Tree_node@U?$pair@QEBVThreadLocalBase@internal@testing@@V?$shared_ptr@VThreadLocalValueHolderBase@internal@testing@@@std@@@std@@PEAX@std@@@std@@@std@@QEAA@AEAV?$allocator@U?$_Tree_node@U?$pair@QEBVThreadLocalBase@internal@testing@@V?$shared_ptr@VThreadLocalValueHolderBase@internal@testing@@@std@@@std@@PEAX@std@@@1@@Z
	??0?$_Alloc_construct_ptr@V?$allocator@U?$_Tree_node@V?$basic_string@DU?$char_traits@D@std@@V?$allocator@D@2@@std@@PEAX@std@@@std@@@std@@QEAA@AEAV?$allocator@U?$_Tree_node@V?$basic_string@DU?$char_traits@D@std@@V?$allocator@D@2@@std@@PEAX@std@@@1@@Z
	??0?$_Alloc_construct_ptr@V?$allocator@U?$_Tree_node@VExpectation@testing@@PEAX@std@@@std@@@std@@QEAA@AEAV?$allocator@U?$_Tree_node@VExpectation@testing@@PEAX@std@@@1@@Z
	??0?$_Atomic_integral@H$03@std@@QEAA@AEBH@Z
	??0?$_Atomic_integral_facade@H@std@@QEAA@AEBH@Z
	??0?$_Atomic_storage@H$03@std@@QEAA@AEBH@Z
	??0?$_Fillobj@D@std@@QEAA@D@Z
	??0?$_Hash@V?$_Umap_traits@V?$basic_string@DU?$char_traits@D@std@@V?$allocator@D@2@@std@@PEAVTestSuite@testing@@V?$_Uhash_compare@V?$basic_string@DU?$char_traits@D@std@@V?$allocator@D@2@@std@@U?$hash@V?$basic_string@DU?$char_traits@D@std@@V?$allocator@D@2@@std@@@2@U?$equal_to@V?$basic_string@DU?$char_traits@D@std@@V?$allocator@D@2@@std@@@2@@2@V?$allocator@U?$pair@$$CBV?$basic_string@DU?$char_traits@D@std@@V?$allocator@D@2@@std@@PEAVTestSuite@testing@@@std@@@2@$0A@@std@@@std@@IEAA@AEBV?$_Uhash_compare@V?$basic_string@DU?$char_traits@D@std@@V?$allocator@D@2@@std@@U?$hash@V?$basic_string@DU?$char_traits@D@std@@V?$allocator@D@2@@std@@@2@U?$equal_to@V?$basic_string@DU?$char_traits@D@std@@V?$allocator@D@2@@std@@@2@@1@AEBV?$allocator@U?$pair@$$CBV?$basic_string@DU?$char_traits@D@std@@V?$allocator@D@2@@std@@PEAVTestSuite@testing@@@std@@@1@@Z
	??0?$_Hash@V?$_Umap_traits@V?$basic_string@DU?$char_traits@D@std@@V?$allocator@D@2@@std@@_KV?$_Uhash_compare@V?$basic_string@DU?$char_traits@D@std@@V?$allocator@D@2@@std@@U?$hash@V?$basic_string@DU?$char_traits@D@std@@V?$allocator@D@2@@std@@@2@U?$equal_to@V?$basic_string@DU?$char_traits@D@std@@V?$allocator@D@2@@std@@@2@@2@V?$allocator@U?$pair@$$CBV?$basic_string@DU?$char_traits@D@std@@V?$allocator@D@2@@std@@_K@std@@@2@$0A@@std@@@std@@IEAA@AEBV?$_Uhash_compare@V?$basic_string@DU?$char_traits@D@std@@V?$allocator@D@2@@std@@U?$hash@V?$basic_string@DU?$char_traits@D@std@@V?$allocator@D@2@@std@@@2@U?$equal_to@V?$basic_string@DU?$char_traits@D@std@@V?$allocator@D@2@@std@@@2@@1@AEBV?$allocator@U?$pair@$$CBV?$basic_string@DU?$char_traits@D@std@@V?$allocator@D@2@@std@@_K@std@@@1@@Z
	??0?$_Hash@V?$_Umap_traits@_KW4CallReaction@internal@testing@@V?$_Uhash_compare@_KU?$hash@_K@std@@U?$equal_to@_K@2@@std@@V?$allocator@U?$pair@$$CB_KW4CallReaction@internal@testing@@@std@@@5@$0A@@std@@@std@@IEAA@AEBV?$_Uhash_compare@_KU?$hash@_K@std@@U?$equal_to@_K@2@@1@AEBV?$allocator@U?$pair@$$CB_KW4CallReaction@internal@testing@@@std@@@1@@Z
	??0?$_Hash@V?$_Uset_traits@V?$basic_string@DU?$char_traits@D@std@@V?$allocator@D@2@@std@@V?$_Uhash_compare@V?$basic_string@DU?$char_traits@D@std@@V?$allocator@D@2@@std@@U?$hash@V?$basic_string@DU?$char_traits@D@std@@V?$allocator@D@2@@std@@@2@U?$equal_to@V?$basic_string@DU?$char_traits@D@std@@V?$allocator@D@2@@std@@@2@@2@V?$allocator@V?$basic_string@DU?$char_traits@D@std@@V?$allocator@D@2@@std@@@2@$0A@@std@@@std@@IEAA@AEBV?$_Uhash_compare@V?$basic_string@DU?$char_traits@D@std@@V?$allocator@D@2@@std@@U?$hash@V?$basic_string@DU?$char_traits@D@std@@V?$allocator@D@2@@std@@@2@U?$equal_to@V?$basic_string@DU?$char_traits@D@std@@V?$allocator@D@2@@std@@@2@@1@AEBV?$allocator@V?$basic_string@DU?$char_traits@D@std@@V?$allocator@D@2@@std@@@1@@Z
	??0?$_List_const_iterator@V?$_List_val@U?$_List_simple_types@U?$pair@$$CBV?$basic_string@DU?$char_traits@D@std@@V?$allocator@D@2@@std@@PEAVTestSuite@testing@@@std@@@std@@@std@@@std@@QEAA@PEAU?$_List_node@U?$pair@$$CBV?$basic_string@DU?$char_traits@D@std@@V?$allocator@D@2@@std@@PEAVTestSuite@testing@@@std@@PEAX@1@PEBV?$_List_val@U?$_List_simple_types@U?$pair@$$CBV?$basic_string@DU?$char_traits@D@std@@V?$allocator@D@2@@std@@PEAVTestSuite@testing@@@std@@@std@@@1@@Z
	??0?$_List_const_iterator@V?$_List_val@U?$_List_simple_types@U?$pair@DPEBD@std@@@std@@@std@@@std@@QEAA@PEAU?$_List_node@U?$pair@DPEBD@std@@PEAX@1@PEBV?$_List_val@U?$_List_simple_types@U?$pair@DPEBD@std@@@std@@@1@@Z
	??0?$_List_const_iterator@V?$_List_val@U?$_List_simple_types@V?$basic_string@DU?$char_traits@D@std@@V?$allocator@D@2@@std@@@std@@@std@@@std@@QEAA@PEAU?$_List_node@V?$basic_string@DU?$char_traits@D@std@@V?$allocator@D@2@@std@@PEAX@1@PEBV?$_List_val@U?$_List_simple_types@V?$basic_string@DU?$char_traits@D@std@@V?$allocator@D@2@@std@@@std@@@1@@Z
	??0?$_List_iterator@V?$_List_val@U?$_List_simple_types@U?$pair@$$CBV?$basic_string@DU?$char_traits@D@std@@V?$allocator@D@2@@std@@PEAVTestSuite@testing@@@std@@@std@@@std@@@std@@QEAA@PEAU?$_List_node@U?$pair@$$CBV?$basic_string@DU?$char_traits@D@std@@V?$allocator@D@2@@std@@PEAVTestSuite@testing@@@std@@PEAX@1@PEBV?$_List_val@U?$_List_simple_types@U?$pair@$$CBV?$basic_string@DU?$char_traits@D@std@@V?$allocator@D@2@@std@@PEAVTestSuite@testing@@@std@@@std@@@1@@Z
	??0?$_List_iterator@V?$_List_val@U?$_List_simple_types@U?$pair@DPEBD@std@@@std@@@std@@@std@@QEAA@PEAU?$_List_node@U?$pair@DPEBD@std@@PEAX@1@PEBV?$_List_val@U?$_List_simple_types@U?$pair@DPEBD@std@@@std@@@1@@Z
	??0?$_List_iterator@V?$_List_val@U?$_List_simple_types@V?$basic_string@DU?$char_traits@D@std@@V?$allocator@D@2@@std@@@std@@@std@@@std@@QEAA@PEAU?$_List_node@V?$basic_string@DU?$char_traits@D@std@@V?$allocator@D@2@@std@@PEAX@1@PEBV?$_List_val@U?$_List_simple_types@V?$basic_string@DU?$char_traits@D@std@@V?$allocator@D@2@@std@@@std@@@1@@Z
	??0?$_List_unchecked_const_iterator@V?$_List_val@U?$_List_simple_types@U?$pair@$$CBV?$basic_string@DU?$char_traits@D@std@@V?$allocator@D@2@@std@@PEAVTestSuite@testing@@@std@@@std@@@std@@U_Iterator_base0@2@@std@@QEAA@PEAU?$_List_node@U?$pair@$$CBV?$basic_string@DU?$char_traits@D@std@@V?$allocator@D@2@@std@@PEAVTestSuite@testing@@@std@@PEAX@1@PEBV?$_List_val@U?$_List_simple_types@U?$pair@$$CBV?$basic_string@DU?$char_traits@D@std@@V?$allocator@D@2@@std@@PEAVTestSuite@testing@@@std@@@std@@@1@@Z
	??0?$_List_unchecked_const_iterator@V?$_List_val@U?$_List_simple_types@U?$pair@$$CBV?$basic_string@DU?$char_traits@D@std@@V?$allocator@D@2@@std@@_K@std@@@std@@@std@@U_Iterator_base0@2@@std@@QEAA@PEAU?$_List_node@U?$pair@$$CBV?$basic_string@DU?$char_traits@D@std@@V?$allocator@D@2@@std@@_K@std@@PEAX@1@PEBV?$_List_val@U?$_List_simple_types@U?$pair@$$CBV?$basic_string@DU?$char_traits@D@std@@V?$allocator@D@2@@std@@_K@std@@@std@@@1@@Z
	??0?$_List_unchecked_const_iterator@V?$_List_val@U?$_List_simple_types@U?$pair@$$CB_KW4CallReaction@internal@testing@@@std@@@std@@@std@@U_Iterator_base0@2@@std@@QEAA@PEAU?$_List_node@U?$pair@$$CB_KW4CallReaction@internal@testing@@@std@@PEAX@1@PEBV?$_List_val@U?$_List_simple_types@U?$pair@$$CB_KW4CallReaction@internal@testing@@@std@@@std@@@1@@Z
	??0?$_List_unchecked_const_iterator@V?$_List_val@U?$_List_simple_types@U?$pair@DPEBD@std@@@std@@@std@@U_Iterator_base0@2@@std@@QEAA@PEAU?$_List_node@U?$pair@DPEBD@std@@PEAX@1@PEBV?$_List_val@U?$_List_simple_types@U?$pair@DPEBD@std@@@std@@@1@@Z
	??0?$_List_unchecked_const_iterator@V?$_List_val@U?$_List_simple_types@V?$basic_string@DU?$char_traits@D@std@@V?$allocator@D@2@@std@@@std@@@std@@U_Iterator_base0@2@@std@@QEAA@PEAU?$_List_node@V?$basic_string@DU?$char_traits@D@std@@V?$allocator@D@2@@std@@PEAX@1@PEBV?$_List_val@U?$_List_simple_types@V?$basic_string@DU?$char_traits@D@std@@V?$allocator@D@2@@std@@@std@@@1@@Z
	??0?$_List_unchecked_iterator@V?$_List_val@U?$_List_simple_types@U?$pair@$$CBV?$basic_string@DU?$char_traits@D@std@@V?$allocator@D@2@@std@@PEAVTestSuite@testing@@@std@@@std@@@std@@@std@@QEAA@PEAU?$_List_node@U?$pair@$$CBV?$basic_string@DU?$char_traits@D@std@@V?$allocator@D@2@@std@@PEAVTestSuite@testing@@@std@@PEAX@1@PEBV?$_List_val@U?$_List_simple_types@U?$pair@$$CBV?$basic_string@DU?$char_traits@D@std@@V?$allocator@D@2@@std@@PEAVTestSuite@testing@@@std@@@std@@@1@@Z
	??0?$_List_unchecked_iterator@V?$_List_val@U?$_List_simple_types@U?$pair@$$CBV?$basic_string@DU?$char_traits@D@std@@V?$allocator@D@2@@std@@_K@std@@@std@@@std@@@std@@QEAA@PEAU?$_List_node@U?$pair@$$CBV?$basic_string@DU?$char_traits@D@std@@V?$allocator@D@2@@std@@_K@std@@PEAX@1@PEBV?$_List_val@U?$_List_simple_types@U?$pair@$$CBV?$basic_string@DU?$char_traits@D@std@@V?$allocator@D@2@@std@@_K@std@@@std@@@1@@Z
	??0?$_List_unchecked_iterator@V?$_List_val@U?$_List_simple_types@U?$pair@$$CB_KW4CallReaction@internal@testing@@@std@@@std@@@std@@@std@@QEAA@PEAU?$_List_node@U?$pair@$$CB_KW4CallReaction@internal@testing@@@std@@PEAX@1@PEBV?$_List_val@U?$_List_simple_types@U?$pair@$$CB_KW4CallReaction@internal@testing@@@std@@@std@@@1@@Z
	??0?$_List_unchecked_iterator@V?$_List_val@U?$_List_simple_types@V?$basic_string@DU?$char_traits@D@std@@V?$allocator@D@2@@std@@@std@@@std@@@std@@QEAA@PEAU?$_List_node@V?$basic_string@DU?$char_traits@D@std@@V?$allocator@D@2@@std@@PEAX@1@PEBV?$_List_val@U?$_List_simple_types@V?$basic_string@DU?$char_traits@D@std@@V?$allocator@D@2@@std@@@std@@@1@@Z
	??0?$_List_val@U?$_List_simple_types@U?$pair@$$CBV?$basic_string@DU?$char_traits@D@std@@V?$allocator@D@2@@std@@PEAVTestSuite@testing@@@std@@@std@@@std@@QEAA@XZ
	??0?$_List_val@U?$_List_simple_types@U?$pair@$$CBV?$basic_string@DU?$char_traits@D@std@@V?$allocator@D@2@@std@@_K@std@@@std@@@std@@QEAA@XZ
	??0?$_List_val@U?$_List_simple_types@U?$pair@$$CB_KW4CallReaction@internal@testing@@@std@@@std@@@std@@QEAA@XZ
	??0?$_List_val@U?$_List_simple_types@U?$pair@DPEBD@std@@@std@@@std@@QEAA@XZ
	??0?$_List_val@U?$_List_simple_types@V?$basic_string@DU?$char_traits@D@std@@V?$allocator@D@2@@std@@@std@@@std@@QEAA@XZ
	??0?$_Ptr_base@$$CBVCardinalityInterface@testing@@@std@@IEAA@XZ
	??0?$_Ptr_base@VExpectation@testing@@@std@@IEAA@XZ
	??0?$_Ptr_base@VExpectationBase@internal@testing@@@std@@IEAA@XZ
	??0?$_Ptr_base@VThreadLocalValueHolderBase@internal@testing@@@std@@IEAA@XZ
	??0?$_Ref_count@$$CBVCardinalityInterface@testing@@@std@@QEAA@PEBVCardinalityInterface@testing@@@Z
	??0?$_Ref_count@VExpectation@testing@@@std@@QEAA@PEAVExpectation@testing@@@Z
	??0?$_Ref_count@VThreadLocalValueHolderBase@internal@testing@@@std@@QEAA@PEAVThreadLocalValueHolderBase@internal@testing@@@Z
	??0?$_String_const_iterator@V?$_String_val@U?$_Simple_types@D@std@@@std@@@std@@QEAA@PEBDPEBU_Container_base0@1@@Z
	??0?$_String_iterator@V?$_String_val@U?$_Simple_types@D@std@@@std@@@std@@QEAA@PEBDPEBU_Container_base0@1@@Z
	??0?$_String_val@U?$_Simple_types@D@std@@@std@@QEAA@XZ
	??0?$_String_val@U?$_Simple_types@_W@std@@@std@@QEAA@XZ
	??0?$_Temporary_owner@$$CBVCardinalityInterface@testing@@@std@@QEAA@QEBVCardinalityInterface@testing@@@Z
	??0?$_Temporary_owner@VExpectation@testing@@@std@@QEAA@QEAVExpectation@testing@@@Z
	??0?$_Temporary_owner@VThreadLocalValueHolderBase@internal@testing@@@std@@QEAA@QEAVThreadLocalValueHolderBase@internal@testing@@@Z
	??0?$_Tree@V?$_Tmap_traits@KV?$map@PEBVThreadLocalBase@internal@testing@@V?$shared_ptr@VThreadLocalValueHolderBase@internal@testing@@@std@@U?$less@PEBVThreadLocalBase@internal@testing@@@5@V?$allocator@U?$pair@QEBVThreadLocalBase@internal@testing@@V?$shared_ptr@VThreadLocalValueHolderBase@internal@testing@@@std@@@std@@@5@@std@@U?$less@K@2@V?$allocator@U?$pair@$$CBKV?$map@PEBVThreadLocalBase@internal@testing@@V?$shared_ptr@VThreadLocalValueHolderBase@internal@testing@@@std@@U?$less@PEBVThreadLocalBase@internal@testing@@@5@V?$allocator@U?$pair@QEBVThreadLocalBase@internal@testing@@V?$shared_ptr@VThreadLocalValueHolderBase@internal@testing@@@std@@@std@@@5@@std@@@std@@@2@$0A@@std@@@std@@QEAA@AEBU?$less@K@1@@Z
	??0?$_Tree@V?$_Tmap_traits@PEBVThreadLocalBase@internal@testing@@V?$shared_ptr@VThreadLocalValueHolderBase@internal@testing@@@std@@U?$less@PEBVThreadLocalBase@internal@testing@@@5@V?$allocator@U?$pair@QEBVThreadLocalBase@internal@testing@@V?$shared_ptr@VThreadLocalValueHolderBase@internal@testing@@@std@@@std@@@5@$0A@@std@@@std@@QEAA@$$QEAV01@@Z
	??0?$_Tree@V?$_Tmap_traits@PEBVThreadLocalBase@internal@testing@@V?$shared_ptr@VThreadLocalValueHolderBase@internal@testing@@@std@@U?$less@PEBVThreadLocalBase@internal@testing@@@5@V?$allocator@U?$pair@QEBVThreadLocalBase@internal@testing@@V?$shared_ptr@VThreadLocalValueHolderBase@internal@testing@@@std@@@std@@@5@$0A@@std@@@std@@QEAA@AEBU?$less@PEBVThreadLocalBase@internal@testing@@@1@@Z
	??0?$_Tree@V?$_Tmap_traits@V?$basic_string@DU?$char_traits@D@std@@V?$allocator@D@2@@std@@UTypeParameterizedTestSuiteInfo@TypeParameterizedTestSuiteRegistry@internal@testing@@U?$less@V?$basic_string@DU?$char_traits@D@std@@V?$allocator@D@2@@std@@@2@V?$allocator@U?$pair@$$CBV?$basic_string@DU?$char_traits@D@std@@V?$allocator@D@2@@std@@UTypeParameterizedTestSuiteInfo@TypeParameterizedTestSuiteRegistry@internal@testing@@@std@@@2@$0A@@std@@@std@@QEAA@AEBU?$less@V?$basic_string@DU?$char_traits@D@std@@V?$allocator@D@2@@std@@@1@@Z
	??0?$_Tree@V?$_Tmap_traits@V?$basic_string@DU?$char_traits@D@std@@V?$allocator@D@2@@std@@_KU?$less@V?$basic_string@DU?$char_traits@D@std@@V?$allocator@D@2@@std@@@2@V?$allocator@U?$pair@$$CBV?$basic_string@DU?$char_traits@D@std@@V?$allocator@D@2@@std@@_K@std@@@2@$0A@@std@@@std@@QEAA@AEBU?$less@V?$basic_string@DU?$char_traits@D@std@@V?$allocator@D@2@@std@@@1@@Z
	??0?$_Tree@V?$_Tset_traits@PEAVUntypedFunctionMockerBase@internal@testing@@U?$less@PEAVUntypedFunctionMockerBase@internal@testing@@@std@@V?$allocator@PEAVUntypedFunctionMockerBase@internal@testing@@@5@$0A@@std@@@std@@QEAA@AEBU?$less@PEAVUntypedFunctionMockerBase@internal@testing@@@1@@Z
	??0?$_Tree@V?$_Tset_traits@V?$basic_string@DU?$char_traits@D@std@@V?$allocator@D@2@@std@@U?$less@V?$basic_string@DU?$char_traits@D@std@@V?$allocator@D@2@@std@@@2@V?$allocator@V?$basic_string@DU?$char_traits@D@std@@V?$allocator@D@2@@std@@@2@$0A@@std@@@std@@QEAA@AEBU?$less@V?$basic_string@DU?$char_traits@D@std@@V?$allocator@D@2@@std@@@1@@Z
	??0?$_Tree@V?$_Tset_traits@VExpectation@testing@@VLess@12@V?$allocator@VExpectation@testing@@@std@@$0A@@std@@@std@@QEAA@AEBVLess@Expectation@testing@@@Z
	??0?$_Tree_const_iterator@V?$_Tree_val@U?$_Tree_simple_types@PEAVUntypedFunctionMockerBase@internal@testing@@@std@@@std@@@std@@QEAA@PEAU?$_Tree_node@PEAVUntypedFunctionMockerBase@internal@testing@@PEAX@1@PEBV?$_Tree_val@U?$_Tree_simple_types@PEAVUntypedFunctionMockerBase@internal@testing@@@std@@@1@@Z
	??0?$_Tree_const_iterator@V?$_Tree_val@U?$_Tree_simple_types@U?$pair@$$CBKV?$map@PEBVThreadLocalBase@internal@testing@@V?$shared_ptr@VThreadLocalValueHolderBase@internal@testing@@@std@@U?$less@PEBVThreadLocalBase@internal@testing@@@5@V?$allocator@U?$pair@QEBVThreadLocalBase@internal@testing@@V?$shared_ptr@VThreadLocalValueHolderBase@internal@testing@@@std@@@std@@@5@@std@@@std@@@std@@@std@@@std@@QEAA@PEAU?$_Tree_node@U?$pair@$$CBKV?$map@PEBVThreadLocalBase@internal@testing@@V?$shared_ptr@VThreadLocalValueHolderBase@internal@testing@@@std@@U?$less@PEBVThreadLocalBase@internal@testing@@@5@V?$allocator@U?$pair@QEBVThreadLocalBase@internal@testing@@V?$shared_ptr@VThreadLocalValueHolderBase@internal@testing@@@std@@@std@@@5@@std@@@std@@PEAX@1@PEBV?$_Tree_val@U?$_Tree_simple_types@U?$pair@$$CBKV?$map@PEBVThreadLocalBase@internal@testing@@V?$shared_ptr@VThreadLocalValueHolderBase@internal@testing@@@std@@U?$less@PEBVThreadLocalBase@internal@testing@@@5@V?$allocator@U?$pair@QEBVThreadLocalBase@internal@testing@@V?$shared_ptr@VThreadLocalValueHolderBase@internal@testing@@@std@@@std@@@5@@std@@@std@@@std@@@1@@Z
	??0?$_Tree_const_iterator@V?$_Tree_val@U?$_Tree_simple_types@U?$pair@$$CBV?$basic_string@DU?$char_traits@D@std@@V?$allocator@D@2@@std@@UCodeLocation@internal@testing@@@std@@@std@@@std@@@std@@QEAA@PEAU?$_Tree_node@U?$pair@$$CBV?$basic_string@DU?$char_traits@D@std@@V?$allocator@D@2@@std@@UCodeLocation@internal@testing@@@std@@PEAX@1@PEBV?$_Tree_val@U?$_Tree_simple_types@U?$pair@$$CBV?$basic_string@DU?$char_traits@D@std@@V?$allocator@D@2@@std@@UCodeLocation@internal@testing@@@std@@@std@@@1@@Z
	??0?$_Tree_const_iterator@V?$_Tree_val@U?$_Tree_simple_types@U?$pair@$$CBV?$basic_string@DU?$char_traits@D@std@@V?$allocator@D@2@@std@@UTypeParameterizedTestSuiteInfo@TypeParameterizedTestSuiteRegistry@internal@testing@@@std@@@std@@@std@@@std@@QEAA@PEAU?$_Tree_node@U?$pair@$$CBV?$basic_string@DU?$char_traits@D@std@@V?$allocator@D@2@@std@@UTypeParameterizedTestSuiteInfo@TypeParameterizedTestSuiteRegistry@internal@testing@@@std@@PEAX@1@PEBV?$_Tree_val@U?$_Tree_simple_types@U?$pair@$$CBV?$basic_string@DU?$char_traits@D@std@@V?$allocator@D@2@@std@@UTypeParameterizedTestSuiteInfo@TypeParameterizedTestSuiteRegistry@internal@testing@@@std@@@std@@@1@@Z
	??0?$_Tree_const_iterator@V?$_Tree_val@U?$_Tree_simple_types@U?$pair@$$CBV?$basic_string@DU?$char_traits@D@std@@V?$allocator@D@2@@std@@_K@std@@@std@@@std@@@std@@QEAA@PEAU?$_Tree_node@U?$pair@$$CBV?$basic_string@DU?$char_traits@D@std@@V?$allocator@D@2@@std@@_K@std@@PEAX@1@PEBV?$_Tree_val@U?$_Tree_simple_types@U?$pair@$$CBV?$basic_string@DU?$char_traits@D@std@@V?$allocator@D@2@@std@@_K@std@@@std@@@1@@Z
	??0?$_Tree_const_iterator@V?$_Tree_val@U?$_Tree_simple_types@U?$pair@QEBVThreadLocalBase@internal@testing@@V?$shared_ptr@VThreadLocalValueHolderBase@internal@testing@@@std@@@std@@@std@@@std@@@std@@QEAA@PEAU?$_Tree_node@U?$pair@QEBVThreadLocalBase@internal@testing@@V?$shared_ptr@VThreadLocalValueHolderBase@internal@testing@@@std@@@std@@PEAX@1@PEBV?$_Tree_val@U?$_Tree_simple_types@U?$pair@QEBVThreadLocalBase@internal@testing@@V?$shared_ptr@VThreadLocalValueHolderBase@internal@testing@@@std@@@std@@@std@@@1@@Z
	??0?$_Tree_const_iterator@V?$_Tree_val@U?$_Tree_simple_types@V?$basic_string@DU?$char_traits@D@std@@V?$allocator@D@2@@std@@@std@@@std@@@std@@QEAA@PEAU?$_Tree_node@V?$basic_string@DU?$char_traits@D@std@@V?$allocator@D@2@@std@@PEAX@1@PEBV?$_Tree_val@U?$_Tree_simple_types@V?$basic_string@DU?$char_traits@D@std@@V?$allocator@D@2@@std@@@std@@@1@@Z
	??0?$_Tree_const_iterator@V?$_Tree_val@U?$_Tree_simple_types@VExpectation@testing@@@std@@@std@@@std@@QEAA@PEAU?$_Tree_node@VExpectation@testing@@PEAX@1@PEBV?$_Tree_val@U?$_Tree_simple_types@VExpectation@testing@@@std@@@1@@Z
	??0?$_Tree_iterator@V?$_Tree_val@U?$_Tree_simple_types@U?$pair@$$CBKV?$map@PEBVThreadLocalBase@internal@testing@@V?$shared_ptr@VThreadLocalValueHolderBase@internal@testing@@@std@@U?$less@PEBVThreadLocalBase@internal@testing@@@5@V?$allocator@U?$pair@QEBVThreadLocalBase@internal@testing@@V?$shared_ptr@VThreadLocalValueHolderBase@internal@testing@@@std@@@std@@@5@@std@@@std@@@std@@@std@@@std@@QEAA@PEAU?$_Tree_node@U?$pair@$$CBKV?$map@PEBVThreadLocalBase@internal@testing@@V?$shared_ptr@VThreadLocalValueHolderBase@internal@testing@@@std@@U?$less@PEBVThreadLocalBase@internal@testing@@@5@V?$allocator@U?$pair@QEBVThreadLocalBase@internal@testing@@V?$shared_ptr@VThreadLocalValueHolderBase@internal@testing@@@std@@@std@@@5@@std@@@std@@PEAX@1@PEBV?$_Tree_val@U?$_Tree_simple_types@U?$pair@$$CBKV?$map@PEBVThreadLocalBase@internal@testing@@V?$shared_ptr@VThreadLocalValueHolderBase@internal@testing@@@std@@U?$less@PEBVThreadLocalBase@internal@testing@@@5@V?$allocator@U?$pair@QEBVThreadLocalBase@internal@testing@@V?$shared_ptr@VThreadLocalValueHolderBase@internal@testing@@@std@@@std@@@5@@std@@@std@@@std@@@1@@Z
	??0?$_Tree_iterator@V?$_Tree_val@U?$_Tree_simple_types@U?$pair@$$CBV?$basic_string@DU?$char_traits@D@std@@V?$allocator@D@2@@std@@UCodeLocation@internal@testing@@@std@@@std@@@std@@@std@@QEAA@PEAU?$_Tree_node@U?$pair@$$CBV?$basic_string@DU?$char_traits@D@std@@V?$allocator@D@2@@std@@UCodeLocation@internal@testing@@@std@@PEAX@1@PEBV?$_Tree_val@U?$_Tree_simple_types@U?$pair@$$CBV?$basic_string@DU?$char_traits@D@std@@V?$allocator@D@2@@std@@UCodeLocation@internal@testing@@@std@@@std@@@1@@Z
	??0?$_Tree_iterator@V?$_Tree_val@U?$_Tree_simple_types@U?$pair@$$CBV?$basic_string@DU?$char_traits@D@std@@V?$allocator@D@2@@std@@UTypeParameterizedTestSuiteInfo@TypeParameterizedTestSuiteRegistry@internal@testing@@@std@@@std@@@std@@@std@@QEAA@PEAU?$_Tree_node@U?$pair@$$CBV?$basic_string@DU?$char_traits@D@std@@V?$allocator@D@2@@std@@UTypeParameterizedTestSuiteInfo@TypeParameterizedTestSuiteRegistry@internal@testing@@@std@@PEAX@1@PEBV?$_Tree_val@U?$_Tree_simple_types@U?$pair@$$CBV?$basic_string@DU?$char_traits@D@std@@V?$allocator@D@2@@std@@UTypeParameterizedTestSuiteInfo@TypeParameterizedTestSuiteRegistry@internal@testing@@@std@@@std@@@1@@Z
	??0?$_Tree_iterator@V?$_Tree_val@U?$_Tree_simple_types@U?$pair@$$CBV?$basic_string@DU?$char_traits@D@std@@V?$allocator@D@2@@std@@_K@std@@@std@@@std@@@std@@QEAA@PEAU?$_Tree_node@U?$pair@$$CBV?$basic_string@DU?$char_traits@D@std@@V?$allocator@D@2@@std@@_K@std@@PEAX@1@PEBV?$_Tree_val@U?$_Tree_simple_types@U?$pair@$$CBV?$basic_string@DU?$char_traits@D@std@@V?$allocator@D@2@@std@@_K@std@@@std@@@1@@Z
	??0?$_Tree_iterator@V?$_Tree_val@U?$_Tree_simple_types@U?$pair@QEBVThreadLocalBase@internal@testing@@V?$shared_ptr@VThreadLocalValueHolderBase@internal@testing@@@std@@@std@@@std@@@std@@@std@@QEAA@PEAU?$_Tree_node@U?$pair@QEBVThreadLocalBase@internal@testing@@V?$shared_ptr@VThreadLocalValueHolderBase@internal@testing@@@std@@@std@@PEAX@1@PEBV?$_Tree_val@U?$_Tree_simple_types@U?$pair@QEBVThreadLocalBase@internal@testing@@V?$shared_ptr@VThreadLocalValueHolderBase@internal@testing@@@std@@@std@@@std@@@1@@Z
	??0?$_Tree_temp_node_alloc@V?$allocator@U?$_Tree_node@PEAVUntypedFunctionMockerBase@internal@testing@@PEAX@std@@@std@@@std@@QEAA@AEAV?$allocator@U?$_Tree_node@PEAVUntypedFunctionMockerBase@internal@testing@@PEAX@std@@@1@@Z
	??0?$_Tree_temp_node_alloc@V?$allocator@U?$_Tree_node@U?$pair@$$CBKV?$map@PEBVThreadLocalBase@internal@testing@@V?$shared_ptr@VThreadLocalValueHolderBase@internal@testing@@@std@@U?$less@PEBVThreadLocalBase@internal@testing@@@5@V?$allocator@U?$pair@QEBVThreadLocalBase@internal@testing@@V?$shared_ptr@VThreadLocalValueHolderBase@internal@testing@@@std@@@std@@@5@@std@@@std@@PEAX@std@@@std@@@std@@QEAA@AEAV?$allocator@U?$_Tree_node@U?$pair@$$CBKV?$map@PEBVThreadLocalBase@internal@testing@@V?$shared_ptr@VThreadLocalValueHolderBase@internal@testing@@@std@@U?$less@PEBVThreadLocalBase@internal@testing@@@5@V?$allocator@U?$pair@QEBVThreadLocalBase@internal@testing@@V?$shared_ptr@VThreadLocalValueHolderBase@internal@testing@@@std@@@std@@@5@@std@@@std@@PEAX@std@@@1@@Z
	??0?$_Tree_temp_node_alloc@V?$allocator@U?$_Tree_node@U?$pair@$$CBV?$basic_string@DU?$char_traits@D@std@@V?$allocator@D@2@@std@@UTypeParameterizedTestSuiteInfo@TypeParameterizedTestSuiteRegistry@internal@testing@@@std@@PEAX@std@@@std@@@std@@QEAA@AEAV?$allocator@U?$_Tree_node@U?$pair@$$CBV?$basic_string@DU?$char_traits@D@std@@V?$allocator@D@2@@std@@UTypeParameterizedTestSuiteInfo@TypeParameterizedTestSuiteRegistry@internal@testing@@@std@@PEAX@std@@@1@@Z
	??0?$_Tree_temp_node_alloc@V?$allocator@U?$_Tree_node@U?$pair@$$CBV?$basic_string@DU?$char_traits@D@std@@V?$allocator@D@2@@std@@_K@std@@PEAX@std@@@std@@@std@@QEAA@AEAV?$allocator@U?$_Tree_node@U?$pair@$$CBV?$basic_string@DU?$char_traits@D@std@@V?$allocator@D@2@@std@@_K@std@@PEAX@std@@@1@@Z
	??0?$_Tree_temp_node_alloc@V?$allocator@U?$_Tree_node@U?$pair@QEBVThreadLocalBase@internal@testing@@V?$shared_ptr@VThreadLocalValueHolderBase@internal@testing@@@std@@@std@@PEAX@std@@@std@@@std@@QEAA@AEAV?$allocator@U?$_Tree_node@U?$pair@QEBVThreadLocalBase@internal@testing@@V?$shared_ptr@VThreadLocalValueHolderBase@internal@testing@@@std@@@std@@PEAX@std@@@1@@Z
	??0?$_Tree_temp_node_alloc@V?$allocator@U?$_Tree_node@V?$basic_string@DU?$char_traits@D@std@@V?$allocator@D@2@@std@@PEAX@std@@@std@@@std@@QEAA@AEAV?$allocator@U?$_Tree_node@V?$basic_string@DU?$char_traits@D@std@@V?$allocator@D@2@@std@@PEAX@std@@@1@@Z
	??0?$_Tree_temp_node_alloc@V?$allocator@U?$_Tree_node@VExpectation@testing@@PEAX@std@@@std@@@std@@QEAA@AEAV?$allocator@U?$_Tree_node@VExpectation@testing@@PEAX@std@@@1@@Z
	??0?$_Tree_unchecked_const_iterator@V?$_Tree_val@U?$_Tree_simple_types@PEAVUntypedFunctionMockerBase@internal@testing@@@std@@@std@@U_Iterator_base0@2@@std@@QEAA@PEAU?$_Tree_node@PEAVUntypedFunctionMockerBase@internal@testing@@PEAX@1@PEBV?$_Tree_val@U?$_Tree_simple_types@PEAVUntypedFunctionMockerBase@internal@testing@@@std@@@1@@Z
	??0?$_Tree_unchecked_const_iterator@V?$_Tree_val@U?$_Tree_simple_types@U?$pair@$$CBKV?$map@PEBVThreadLocalBase@internal@testing@@V?$shared_ptr@VThreadLocalValueHolderBase@internal@testing@@@std@@U?$less@PEBVThreadLocalBase@internal@testing@@@5@V?$allocator@U?$pair@QEBVThreadLocalBase@internal@testing@@V?$shared_ptr@VThreadLocalValueHolderBase@internal@testing@@@std@@@std@@@5@@std@@@std@@@std@@@std@@U_Iterator_base0@2@@std@@QEAA@PEAU?$_Tree_node@U?$pair@$$CBKV?$map@PEBVThreadLocalBase@internal@testing@@V?$shared_ptr@VThreadLocalValueHolderBase@internal@testing@@@std@@U?$less@PEBVThreadLocalBase@internal@testing@@@5@V?$allocator@U?$pair@QEBVThreadLocalBase@internal@testing@@V?$shared_ptr@VThreadLocalValueHolderBase@internal@testing@@@std@@@std@@@5@@std@@@std@@PEAX@1@PEBV?$_Tree_val@U?$_Tree_simple_types@U?$pair@$$CBKV?$map@PEBVThreadLocalBase@internal@testing@@V?$shared_ptr@VThreadLocalValueHolderBase@internal@testing@@@std@@U?$less@PEBVThreadLocalBase@internal@testing@@@5@V?$allocator@U?$pair@QEBVThreadLocalBase@internal@testing@@V?$shared_ptr@VThreadLocalValueHolderBase@internal@testing@@@std@@@std@@@5@@std@@@std@@@std@@@1@@Z
	??0?$_Tree_unchecked_const_iterator@V?$_Tree_val@U?$_Tree_simple_types@U?$pair@$$CBV?$basic_string@DU?$char_traits@D@std@@V?$allocator@D@2@@std@@UCodeLocation@internal@testing@@@std@@@std@@@std@@U_Iterator_base0@2@@std@@QEAA@PEAU?$_Tree_node@U?$pair@$$CBV?$basic_string@DU?$char_traits@D@std@@V?$allocator@D@2@@std@@UCodeLocation@internal@testing@@@std@@PEAX@1@PEBV?$_Tree_val@U?$_Tree_simple_types@U?$pair@$$CBV?$basic_string@DU?$char_traits@D@std@@V?$allocator@D@2@@std@@UCodeLocation@internal@testing@@@std@@@std@@@1@@Z
	??0?$_Tree_unchecked_const_iterator@V?$_Tree_val@U?$_Tree_simple_types@U?$pair@$$CBV?$basic_string@DU?$char_traits@D@std@@V?$allocator@D@2@@std@@UTypeParameterizedTestSuiteInfo@TypeParameterizedTestSuiteRegistry@internal@testing@@@std@@@std@@@std@@U_Iterator_base0@2@@std@@QEAA@PEAU?$_Tree_node@U?$pair@$$CBV?$basic_string@DU?$char_traits@D@std@@V?$allocator@D@2@@std@@UTypeParameterizedTestSuiteInfo@TypeParameterizedTestSuiteRegistry@internal@testing@@@std@@PEAX@1@PEBV?$_Tree_val@U?$_Tree_simple_types@U?$pair@$$CBV?$basic_string@DU?$char_traits@D@std@@V?$allocator@D@2@@std@@UTypeParameterizedTestSuiteInfo@TypeParameterizedTestSuiteRegistry@internal@testing@@@std@@@std@@@1@@Z
	??0?$_Tree_unchecked_const_iterator@V?$_Tree_val@U?$_Tree_simple_types@U?$pair@$$CBV?$basic_string@DU?$char_traits@D@std@@V?$allocator@D@2@@std@@_K@std@@@std@@@std@@U_Iterator_base0@2@@std@@QEAA@PEAU?$_Tree_node@U?$pair@$$CBV?$basic_string@DU?$char_traits@D@std@@V?$allocator@D@2@@std@@_K@std@@PEAX@1@PEBV?$_Tree_val@U?$_Tree_simple_types@U?$pair@$$CBV?$basic_string@DU?$char_traits@D@std@@V?$allocator@D@2@@std@@_K@std@@@std@@@1@@Z
	??0?$_Tree_unchecked_const_iterator@V?$_Tree_val@U?$_Tree_simple_types@U?$pair@QEBVThreadLocalBase@internal@testing@@V?$shared_ptr@VThreadLocalValueHolderBase@internal@testing@@@std@@@std@@@std@@@std@@U_Iterator_base0@2@@std@@QEAA@PEAU?$_Tree_node@U?$pair@QEBVThreadLocalBase@internal@testing@@V?$shared_ptr@VThreadLocalValueHolderBase@internal@testing@@@std@@@std@@PEAX@1@PEBV?$_Tree_val@U?$_Tree_simple_types@U?$pair@QEBVThreadLocalBase@internal@testing@@V?$shared_ptr@VThreadLocalValueHolderBase@internal@testing@@@std@@@std@@@std@@@1@@Z
	??0?$_Tree_unchecked_const_iterator@V?$_Tree_val@U?$_Tree_simple_types@V?$basic_string@DU?$char_traits@D@std@@V?$allocator@D@2@@std@@@std@@@std@@U_Iterator_base0@2@@std@@QEAA@PEAU?$_Tree_node@V?$basic_string@DU?$char_traits@D@std@@V?$allocator@D@2@@std@@PEAX@1@PEBV?$_Tree_val@U?$_Tree_simple_types@V?$basic_string@DU?$char_traits@D@std@@V?$allocator@D@2@@std@@@std@@@1@@Z
	??0?$_Tree_unchecked_const_iterator@V?$_Tree_val@U?$_Tree_simple_types@VExpectation@testing@@@std@@@std@@U_Iterator_base0@2@@std@@QEAA@PEAU?$_Tree_node@VExpectation@testing@@PEAX@1@PEBV?$_Tree_val@U?$_Tree_simple_types@VExpectation@testing@@@std@@@1@@Z
	??0?$_Tree_unchecked_iterator@V?$_Tree_val@U?$_Tree_simple_types@U?$pair@$$CBKV?$map@PEBVThreadLocalBase@internal@testing@@V?$shared_ptr@VThreadLocalValueHolderBase@internal@testing@@@std@@U?$less@PEBVThreadLocalBase@internal@testing@@@5@V?$allocator@U?$pair@QEBVThreadLocalBase@internal@testing@@V?$shared_ptr@VThreadLocalValueHolderBase@internal@testing@@@std@@@std@@@5@@std@@@std@@@std@@@std@@@std@@QEAA@PEAU?$_Tree_node@U?$pair@$$CBKV?$map@PEBVThreadLocalBase@internal@testing@@V?$shared_ptr@VThreadLocalValueHolderBase@internal@testing@@@std@@U?$less@PEBVThreadLocalBase@internal@testing@@@5@V?$allocator@U?$pair@QEBVThreadLocalBase@internal@testing@@V?$shared_ptr@VThreadLocalValueHolderBase@internal@testing@@@std@@@std@@@5@@std@@@std@@PEAX@1@PEBV?$_Tree_val@U?$_Tree_simple_types@U?$pair@$$CBKV?$map@PEBVThreadLocalBase@internal@testing@@V?$shared_ptr@VThreadLocalValueHolderBase@internal@testing@@@std@@U?$less@PEBVThreadLocalBase@internal@testing@@@5@V?$allocator@U?$pair@QEBVThreadLocalBase@internal@testing@@V?$shared_ptr@VThreadLocalValueHolderBase@internal@testing@@@std@@@std@@@5@@std@@@std@@@std@@@1@@Z
	??0?$_Tree_unchecked_iterator@V?$_Tree_val@U?$_Tree_simple_types@U?$pair@$$CBV?$basic_string@DU?$char_traits@D@std@@V?$allocator@D@2@@std@@UTypeParameterizedTestSuiteInfo@TypeParameterizedTestSuiteRegistry@internal@testing@@@std@@@std@@@std@@@std@@QEAA@PEAU?$_Tree_node@U?$pair@$$CBV?$basic_string@DU?$char_traits@D@std@@V?$allocator@D@2@@std@@UTypeParameterizedTestSuiteInfo@TypeParameterizedTestSuiteRegistry@internal@testing@@@std@@PEAX@1@PEBV?$_Tree_val@U?$_Tree_simple_types@U?$pair@$$CBV?$basic_string@DU?$char_traits@D@std@@V?$allocator@D@2@@std@@UTypeParameterizedTestSuiteInfo@TypeParameterizedTestSuiteRegistry@internal@testing@@@std@@@std@@@1@@Z
	??0?$_Tree_unchecked_iterator@V?$_Tree_val@U?$_Tree_simple_types@U?$pair@QEBVThreadLocalBase@internal@testing@@V?$shared_ptr@VThreadLocalValueHolderBase@internal@testing@@@std@@@std@@@std@@@std@@@std@@QEAA@PEAU?$_Tree_node@U?$pair@QEBVThreadLocalBase@internal@testing@@V?$shared_ptr@VThreadLocalValueHolderBase@internal@testing@@@std@@@std@@PEAX@1@PEBV?$_Tree_val@U?$_Tree_simple_types@U?$pair@QEBVThreadLocalBase@internal@testing@@V?$shared_ptr@VThreadLocalValueHolderBase@internal@testing@@@std@@@std@@@std@@@1@@Z
	??0?$_Tree_val@U?$_Tree_simple_types@PEAVUntypedFunctionMockerBase@internal@testing@@@std@@@std@@QEAA@XZ
	??0?$_Tree_val@U?$_Tree_simple_types@U?$pair@$$CBKV?$map@PEBVThreadLocalBase@internal@testing@@V?$shared_ptr@VThreadLocalValueHolderBase@internal@testing@@@std@@U?$less@PEBVThreadLocalBase@internal@testing@@@5@V?$allocator@U?$pair@QEBVThreadLocalBase@internal@testing@@V?$shared_ptr@VThreadLocalValueHolderBase@internal@testing@@@std@@@std@@@5@@std@@@std@@@std@@@std@@QEAA@XZ
	??0?$_Tree_val@U?$_Tree_simple_types@U?$pair@$$CBV?$basic_string@DU?$char_traits@D@std@@V?$allocator@D@2@@std@@UTypeParameterizedTestSuiteInfo@TypeParameterizedTestSuiteRegistry@internal@testing@@@std@@@std@@@std@@QEAA@XZ
	??0?$_Tree_val@U?$_Tree_simple_types@U?$pair@$$CBV?$basic_string@DU?$char_traits@D@std@@V?$allocator@D@2@@std@@_K@std@@@std@@@std@@QEAA@XZ
	??0?$_Tree_val@U?$_Tree_simple_types@U?$pair@QEBVThreadLocalBase@internal@testing@@V?$shared_ptr@VThreadLocalValueHolderBase@internal@testing@@@std@@@std@@@std@@@std@@QEAA@XZ
	??0?$_Tree_val@U?$_Tree_simple_types@V?$basic_string@DU?$char_traits@D@std@@V?$allocator@D@2@@std@@@std@@@std@@QEAA@XZ
	??0?$_Tree_val@U?$_Tree_simple_types@VExpectation@testing@@@std@@@std@@QEAA@XZ
	??0?$_Uhash_compare@V?$basic_string@DU?$char_traits@D@std@@V?$allocator@D@2@@std@@U?$hash@V?$basic_string@DU?$char_traits@D@std@@V?$allocator@D@2@@std@@@2@U?$equal_to@V?$basic_string@DU?$char_traits@D@std@@V?$allocator@D@2@@std@@@2@@std@@QEAA@XZ
	??0?$_Uhash_compare@_KU?$hash@_K@std@@U?$equal_to@_K@2@@std@@QEAA@XZ
	??0?$_Umap_traits@V?$basic_string@DU?$char_traits@D@std@@V?$allocator@D@2@@std@@PEAVTestSuite@testing@@V?$_Uhash_compare@V?$basic_string@DU?$char_traits@D@std@@V?$allocator@D@2@@std@@U?$hash@V?$basic_string@DU?$char_traits@D@std@@V?$allocator@D@2@@std@@@2@U?$equal_to@V?$basic_string@DU?$char_traits@D@std@@V?$allocator@D@2@@std@@@2@@2@V?$allocator@U?$pair@$$CBV?$basic_string@DU?$char_traits@D@std@@V?$allocator@D@2@@std@@PEAVTestSuite@testing@@@std@@@2@$0A@@std@@QEAA@AEBV?$_Uhash_compare@V?$basic_string@DU?$char_traits@D@std@@V?$allocator@D@2@@std@@U?$hash@V?$basic_string@DU?$char_traits@D@std@@V?$allocator@D@2@@std@@@2@U?$equal_to@V?$basic_string@DU?$char_traits@D@std@@V?$allocator@D@2@@std@@@2@@1@@Z
	??0?$_Umap_traits@V?$basic_string@DU?$char_traits@D@std@@V?$allocator@D@2@@std@@_KV?$_Uhash_compare@V?$basic_string@DU?$char_traits@D@std@@V?$allocator@D@2@@std@@U?$hash@V?$basic_string@DU?$char_traits@D@std@@V?$allocator@D@2@@std@@@2@U?$equal_to@V?$basic_string@DU?$char_traits@D@std@@V?$allocator@D@2@@std@@@2@@2@V?$allocator@U?$pair@$$CBV?$basic_string@DU?$char_traits@D@std@@V?$allocator@D@2@@std@@_K@std@@@2@$0A@@std@@QEAA@AEBV?$_Uhash_compare@V?$basic_string@DU?$char_traits@D@std@@V?$allocator@D@2@@std@@U?$hash@V?$basic_string@DU?$char_traits@D@std@@V?$allocator@D@2@@std@@@2@U?$equal_to@V?$basic_string@DU?$char_traits@D@std@@V?$allocator@D@2@@std@@@2@@1@@Z
	??0?$_Umap_traits@_KW4CallReaction@internal@testing@@V?$_Uhash_compare@_KU?$hash@_K@std@@U?$equal_to@_K@2@@std@@V?$allocator@U?$pair@$$CB_KW4CallReaction@internal@testing@@@std@@@5@$0A@@std@@QEAA@AEBV?$_Uhash_compare@_KU?$hash@_K@std@@U?$equal_to@_K@2@@1@@Z
	??0?$_Uninitialized_backout@PEAPEAVTestInfo@testing@@@std@@QEAA@PEAPEAVTestInfo@testing@@0@Z
	??0?$_Uninitialized_backout@PEAPEAVTestInfo@testing@@@std@@QEAA@PEAPEAVTestInfo@testing@@@Z
	??0?$_Uninitialized_backout@PEAV?$_List_unchecked_const_iterator@V?$_List_val@U?$_List_simple_types@V?$basic_string@DU?$char_traits@D@std@@V?$allocator@D@2@@std@@@std@@@std@@U_Iterator_base0@2@@std@@@std@@QEAA@PEAV?$_List_unchecked_const_iterator@V?$_List_val@U?$_List_simple_types@V?$basic_string@DU?$char_traits@D@std@@V?$allocator@D@2@@std@@@std@@@std@@U_Iterator_base0@2@@1@@Z
	??0?$_Uninitialized_backout@PEAV?$_List_unchecked_iterator@V?$_List_val@U?$_List_simple_types@U?$pair@$$CBV?$basic_string@DU?$char_traits@D@std@@V?$allocator@D@2@@std@@PEAVTestSuite@testing@@@std@@@std@@@std@@@std@@@std@@QEAA@PEAV?$_List_unchecked_iterator@V?$_List_val@U?$_List_simple_types@U?$pair@$$CBV?$basic_string@DU?$char_traits@D@std@@V?$allocator@D@2@@std@@PEAVTestSuite@testing@@@std@@@std@@@std@@@1@@Z
	??0?$_Uninitialized_backout@PEAV?$_List_unchecked_iterator@V?$_List_val@U?$_List_simple_types@U?$pair@$$CBV?$basic_string@DU?$char_traits@D@std@@V?$allocator@D@2@@std@@_K@std@@@std@@@std@@@std@@@std@@QEAA@PEAV?$_List_unchecked_iterator@V?$_List_val@U?$_List_simple_types@U?$pair@$$CBV?$basic_string@DU?$char_traits@D@std@@V?$allocator@D@2@@std@@_K@std@@@std@@@std@@@1@@Z
	??0?$_Uninitialized_backout@PEAV?$_List_unchecked_iterator@V?$_List_val@U?$_List_simple_types@U?$pair@$$CB_KW4CallReaction@internal@testing@@@std@@@std@@@std@@@std@@@std@@QEAA@PEAV?$_List_unchecked_iterator@V?$_List_val@U?$_List_simple_types@U?$pair@$$CB_KW4CallReaction@internal@testing@@@std@@@std@@@std@@@1@@Z
	??0?$_Uninitialized_backout_al@V?$allocator@D@std@@@std@@QEAA@PEADAEAV?$allocator@D@1@@Z
	??0?$_Uninitialized_backout_al@V?$allocator@H@std@@@std@@QEAA@PEAHAEAV?$allocator@H@1@@Z
	??0?$_Uninitialized_backout_al@V?$allocator@N@std@@@std@@QEAA@PEANAEAV?$allocator@N@1@@Z
	??0?$_Uninitialized_backout_al@V?$allocator@PEAVEnvironment@testing@@@std@@@std@@QEAA@PEAPEAVEnvironment@testing@@AEAV?$allocator@PEAVEnvironment@testing@@@1@@Z
	??0?$_Uninitialized_backout_al@V?$allocator@PEAVExpectationBase@internal@testing@@@std@@@std@@QEAA@PEAPEAVExpectationBase@internal@testing@@AEAV?$allocator@PEAVExpectationBase@internal@testing@@@1@@Z
	??0?$_Uninitialized_backout_al@V?$allocator@PEAVTestEventListener@testing@@@std@@@std@@QEAA@PEAPEAVTestEventListener@testing@@AEAV?$allocator@PEAVTestEventListener@testing@@@1@@Z
	??0?$_Uninitialized_backout_al@V?$allocator@PEAVTestInfo@testing@@@std@@@std@@QEAA@PEAPEAVTestInfo@testing@@AEAV?$allocator@PEAVTestInfo@testing@@@1@@Z
	??0?$_Uninitialized_backout_al@V?$allocator@PEAVTestSuite@testing@@@std@@@std@@QEAA@PEAPEAVTestSuite@testing@@AEAV?$allocator@PEAVTestSuite@testing@@@1@@Z
	??0?$_Uninitialized_backout_al@V?$allocator@PEBVExpectationBase@internal@testing@@@std@@@std@@QEAA@PEAPEBVExpectationBase@internal@testing@@AEAV?$allocator@PEBVExpectationBase@internal@testing@@@1@@Z
	??0?$_Uninitialized_backout_al@V?$allocator@U?$pair@_K_K@std@@@std@@@std@@QEAA@PEAU?$pair@_K_K@1@AEAV?$allocator@U?$pair@_K_K@std@@@1@@Z
	??0?$_Uninitialized_backout_al@V?$allocator@UTraceInfo@internal@testing@@@std@@@std@@QEAA@PEAUTraceInfo@internal@testing@@AEAV?$allocator@UTraceInfo@internal@testing@@@1@@Z
	??0?$_Uninitialized_backout_al@V?$allocator@V?$basic_string@DU?$char_traits@D@std@@V?$allocator@D@2@@std@@@std@@@std@@QEAA@PEAV?$basic_string@DU?$char_traits@D@std@@V?$allocator@D@2@@1@AEAV?$allocator@V?$basic_string@DU?$char_traits@D@std@@V?$allocator@D@2@@std@@@1@@Z
	??0?$_Uninitialized_backout_al@V?$allocator@V?$shared_ptr@VThreadLocalValueHolderBase@internal@testing@@@std@@@std@@@std@@QEAA@PEAV?$shared_ptr@VThreadLocalValueHolderBase@internal@testing@@@1@AEAV?$allocator@V?$shared_ptr@VThreadLocalValueHolderBase@internal@testing@@@std@@@1@@Z
	??0?$_Uninitialized_backout_al@V?$allocator@V?$vector@NV?$allocator@N@std@@@std@@@std@@@std@@QEAA@PEAV?$vector@NV?$allocator@N@std@@@1@AEAV?$allocator@V?$vector@NV?$allocator@N@std@@@std@@@1@@Z
	??0?$_Uninitialized_backout_al@V?$allocator@V?$vector@W4EditType@edit_distance@internal@testing@@V?$allocator@W4EditType@edit_distance@internal@testing@@@std@@@std@@@std@@@std@@QEAA@PEAV?$vector@W4EditType@edit_distance@internal@testing@@V?$allocator@W4EditType@edit_distance@internal@testing@@@std@@@1@AEAV?$allocator@V?$vector@W4EditType@edit_distance@internal@testing@@V?$allocator@W4EditType@edit_distance@internal@testing@@@std@@@std@@@1@@Z
	??0?$_Uninitialized_backout_al@V?$allocator@VTestPartResult@testing@@@std@@@std@@QEAA@PEAVTestPartResult@testing@@AEAV?$allocator@VTestPartResult@testing@@@1@@Z
	??0?$_Uninitialized_backout_al@V?$allocator@VTestProperty@testing@@@std@@@std@@QEAA@PEAVTestProperty@testing@@AEAV?$allocator@VTestProperty@testing@@@1@@Z
	??0?$_Uninitialized_backout_al@V?$allocator@W4EditType@edit_distance@internal@testing@@@std@@@std@@QEAA@PEAW4EditType@edit_distance@internal@testing@@AEAV?$allocator@W4EditType@edit_distance@internal@testing@@@1@@Z
	??0?$_Uninitialized_backout_al@V?$allocator@_K@std@@@std@@QEAA@PEA_KAEAV?$allocator@_K@1@@Z
	??0?$_Uset_traits@V?$basic_string@DU?$char_traits@D@std@@V?$allocator@D@2@@std@@V?$_Uhash_compare@V?$basic_string@DU?$char_traits@D@std@@V?$allocator@D@2@@std@@U?$hash@V?$basic_string@DU?$char_traits@D@std@@V?$allocator@D@2@@std@@@2@U?$equal_to@V?$basic_string@DU?$char_traits@D@std@@V?$allocator@D@2@@std@@@2@@2@V?$allocator@V?$basic_string@DU?$char_traits@D@std@@V?$allocator@D@2@@std@@@2@$0A@@std@@QEAA@AEBV?$_Uhash_compare@V?$basic_string@DU?$char_traits@D@std@@V?$allocator@D@2@@std@@U?$hash@V?$basic_string@DU?$char_traits@D@std@@V?$allocator@D@2@@std@@@2@U?$equal_to@V?$basic_string@DU?$char_traits@D@std@@V?$allocator@D@2@@std@@@2@@1@@Z
	??0?$_Vector_const_iterator@V?$_Vector_val@U?$_Simple_types@PEAVEnvironment@testing@@@std@@@std@@@std@@QEAA@PEAPEAVEnvironment@testing@@PEBU_Container_base0@1@@Z
	??0?$_Vector_const_iterator@V?$_Vector_val@U?$_Simple_types@PEAVTestEventListener@testing@@@std@@@std@@@std@@QEAA@PEAPEAVTestEventListener@testing@@PEBU_Container_base0@1@@Z
	??0?$_Vector_const_iterator@V?$_Vector_val@U?$_Simple_types@PEAVTestInfo@testing@@@std@@@std@@@std@@QEAA@PEAPEAVTestInfo@testing@@PEBU_Container_base0@1@@Z
	??0?$_Vector_const_iterator@V?$_Vector_val@U?$_Simple_types@PEAVTestSuite@testing@@@std@@@std@@@std@@QEAA@PEAPEAVTestSuite@testing@@PEBU_Container_base0@1@@Z
	??0?$_Vector_const_iterator@V?$_Vector_val@U?$_Simple_types@U?$pair@_K_K@std@@@std@@@std@@@std@@QEAA@PEAU?$pair@_K_K@1@PEBU_Container_base0@1@@Z
	??0?$_Vector_const_iterator@V?$_Vector_val@U?$_Simple_types@V?$basic_string@DU?$char_traits@D@std@@V?$allocator@D@2@@std@@@std@@@std@@@std@@QEAA@PEAV?$basic_string@DU?$char_traits@D@std@@V?$allocator@D@2@@1@PEBU_Container_base0@1@@Z
	??0?$_Vector_const_iterator@V?$_Vector_val@U?$_Simple_types@V?$shared_ptr@VExpectationBase@internal@testing@@@std@@@std@@@std@@@std@@QEAA@PEAV?$shared_ptr@VExpectationBase@internal@testing@@@1@PEBU_Container_base0@1@@Z
	??0?$_Vector_const_iterator@V?$_Vector_val@U?$_Simple_types@VTestPartResult@testing@@@std@@@std@@@std@@QEAA@PEAVTestPartResult@testing@@PEBU_Container_base0@1@@Z
	??0?$_Vector_const_iterator@V?$_Vector_val@U?$_Simple_types@VTestProperty@testing@@@std@@@std@@@std@@QEAA@PEAVTestProperty@testing@@PEBU_Container_base0@1@@Z
	??0?$_Vector_const_iterator@V?$_Vector_val@U?$_Simple_types@W4EditType@edit_distance@internal@testing@@@std@@@std@@@std@@QEAA@PEAW4EditType@edit_distance@internal@testing@@PEBU_Container_base0@1@@Z
	??0?$_Vector_iterator@V?$_Vector_val@U?$_Simple_types@PEAVEnvironment@testing@@@std@@@std@@@std@@QEAA@PEAPEAVEnvironment@testing@@PEBU_Container_base0@1@@Z
	??0?$_Vector_iterator@V?$_Vector_val@U?$_Simple_types@PEAVTestEventListener@testing@@@std@@@std@@@std@@QEAA@PEAPEAVTestEventListener@testing@@PEBU_Container_base0@1@@Z
	??0?$_Vector_iterator@V?$_Vector_val@U?$_Simple_types@PEAVTestInfo@testing@@@std@@@std@@@std@@QEAA@PEAPEAVTestInfo@testing@@PEBU_Container_base0@1@@Z
	??0?$_Vector_iterator@V?$_Vector_val@U?$_Simple_types@PEAVTestSuite@testing@@@std@@@std@@@std@@QEAA@PEAPEAVTestSuite@testing@@PEBU_Container_base0@1@@Z
	??0?$_Vector_iterator@V?$_Vector_val@U?$_Simple_types@V?$basic_string@DU?$char_traits@D@std@@V?$allocator@D@2@@std@@@std@@@std@@@std@@QEAA@PEAV?$basic_string@DU?$char_traits@D@std@@V?$allocator@D@2@@1@PEBU_Container_base0@1@@Z
	??0?$_Vector_iterator@V?$_Vector_val@U?$_Simple_types@V?$shared_ptr@VExpectationBase@internal@testing@@@std@@@std@@@std@@@std@@QEAA@PEAV?$shared_ptr@VExpectationBase@internal@testing@@@1@PEBU_Container_base0@1@@Z
	??0?$_Vector_iterator@V?$_Vector_val@U?$_Simple_types@VTestProperty@testing@@@std@@@std@@@std@@QEAA@PEAVTestProperty@testing@@PEBU_Container_base0@1@@Z
	??0?$_Vector_iterator@V?$_Vector_val@U?$_Simple_types@W4EditType@edit_distance@internal@testing@@@std@@@std@@@std@@QEAA@PEAW4EditType@edit_distance@internal@testing@@PEBU_Container_base0@1@@Z
	??0?$_Vector_val@U?$_Simple_types@D@std@@@std@@QEAA@XZ
	??0?$_Vector_val@U?$_Simple_types@H@std@@@std@@QEAA@XZ
	??0?$_Vector_val@U?$_Simple_types@N@std@@@std@@QEAA@XZ
	??0?$_Vector_val@U?$_Simple_types@PEAVEnvironment@testing@@@std@@@std@@QEAA@XZ
	??0?$_Vector_val@U?$_Simple_types@PEAVExpectationBase@internal@testing@@@std@@@std@@QEAA@XZ
	??0?$_Vector_val@U?$_Simple_types@PEAVParameterizedTestSuiteInfoBase@internal@testing@@@std@@@std@@QEAA@XZ
	??0?$_Vector_val@U?$_Simple_types@PEAVTestEventListener@testing@@@std@@@std@@QEAA@XZ
	??0?$_Vector_val@U?$_Simple_types@PEAVTestInfo@testing@@@std@@@std@@QEAA@XZ
	??0?$_Vector_val@U?$_Simple_types@PEAVTestSuite@testing@@@std@@@std@@QEAA@XZ
	??0?$_Vector_val@U?$_Simple_types@PEBVExpectationBase@internal@testing@@@std@@@std@@QEAA@XZ
	??0?$_Vector_val@U?$_Simple_types@PEBX@std@@@std@@QEAA@XZ
	??0?$_Vector_val@U?$_Simple_types@U?$pair@_K_K@std@@@std@@@std@@QEAA@PEAU?$pair@_K_K@1@00@Z
	??0?$_Vector_val@U?$_Simple_types@U?$pair@_K_K@std@@@std@@@std@@QEAA@XZ
	??0?$_Vector_val@U?$_Simple_types@UTraceInfo@internal@testing@@@std@@@std@@QEAA@XZ
	??0?$_Vector_val@U?$_Simple_types@V?$_List_unchecked_const_iterator@V?$_List_val@U?$_List_simple_types@V?$basic_string@DU?$char_traits@D@std@@V?$allocator@D@2@@std@@@std@@@std@@U_Iterator_base0@2@@std@@@std@@@std@@QEAA@XZ
	??0?$_Vector_val@U?$_Simple_types@V?$_List_unchecked_iterator@V?$_List_val@U?$_List_simple_types@U?$pair@$$CBV?$basic_string@DU?$char_traits@D@std@@V?$allocator@D@2@@std@@PEAVTestSuite@testing@@@std@@@std@@@std@@@std@@@std@@@std@@QEAA@XZ
	??0?$_Vector_val@U?$_Simple_types@V?$_List_unchecked_iterator@V?$_List_val@U?$_List_simple_types@U?$pair@$$CBV?$basic_string@DU?$char_traits@D@std@@V?$allocator@D@2@@std@@_K@std@@@std@@@std@@@std@@@std@@@std@@QEAA@XZ
	??0?$_Vector_val@U?$_Simple_types@V?$_List_unchecked_iterator@V?$_List_val@U?$_List_simple_types@U?$pair@$$CB_KW4CallReaction@internal@testing@@@std@@@std@@@std@@@std@@@std@@@std@@QEAA@XZ
	??0?$_Vector_val@U?$_Simple_types@V?$basic_string@DU?$char_traits@D@std@@V?$allocator@D@2@@std@@@std@@@std@@QEAA@PEAV?$basic_string@DU?$char_traits@D@std@@V?$allocator@D@2@@1@00@Z
	??0?$_Vector_val@U?$_Simple_types@V?$basic_string@DU?$char_traits@D@std@@V?$allocator@D@2@@std@@@std@@@std@@QEAA@XZ
	??0?$_Vector_val@U?$_Simple_types@V?$shared_ptr@VExpectationBase@internal@testing@@@std@@@std@@@std@@QEAA@XZ
	??0?$_Vector_val@U?$_Simple_types@V?$shared_ptr@VThreadLocalValueHolderBase@internal@testing@@@std@@@std@@@std@@QEAA@XZ
	??0?$_Vector_val@U?$_Simple_types@V?$vector@NV?$allocator@N@std@@@std@@@std@@@std@@QEAA@XZ
	??0?$_Vector_val@U?$_Simple_types@V?$vector@W4EditType@edit_distance@internal@testing@@V?$allocator@W4EditType@edit_distance@internal@testing@@@std@@@std@@@std@@@std@@QEAA@XZ
	??0?$_Vector_val@U?$_Simple_types@VTestPartResult@testing@@@std@@@std@@QEAA@XZ
	??0?$_Vector_val@U?$_Simple_types@VTestProperty@testing@@@std@@@std@@QEAA@XZ
	??0?$_Vector_val@U?$_Simple_types@W4EditType@edit_distance@internal@testing@@@std@@@std@@QEAA@PEAW4EditType@edit_distance@internal@testing@@00@Z
	??0?$_Vector_val@U?$_Simple_types@W4EditType@edit_distance@internal@testing@@@std@@@std@@QEAA@XZ
	??0?$_Vector_val@U?$_Simple_types@_K@std@@@std@@QEAA@XZ
	??0?$allocator@D@std@@QEAA@XZ
	??0?$allocator@H@std@@QEAA@XZ
	??0?$allocator@N@std@@QEAA@XZ
	??0?$allocator@PEAVEnvironment@testing@@@std@@QEAA@XZ
	??0?$allocator@PEAVExpectationBase@internal@testing@@@std@@QEAA@XZ
	??0?$allocator@PEAVParameterizedTestSuiteInfoBase@internal@testing@@@std@@QEAA@XZ
	??0?$allocator@PEAVTestEventListener@testing@@@std@@QEAA@XZ
	??0?$allocator@PEAVTestInfo@testing@@@std@@QEAA@XZ
	??0?$allocator@PEAVTestSuite@testing@@@std@@QEAA@XZ
	??0?$allocator@PEBVExpectationBase@internal@testing@@@std@@QEAA@XZ
	??0?$allocator@PEBX@std@@QEAA@XZ
	??0?$allocator@U?$_List_node@U?$pair@DPEBD@std@@PEAX@std@@@std@@QEAA@XZ
	??0?$allocator@U?$_Tree_node@PEAVUntypedFunctionMockerBase@internal@testing@@PEAX@std@@@std@@QEAA@XZ
	??0?$allocator@U?$_Tree_node@U?$pair@$$CBKV?$map@PEBVThreadLocalBase@internal@testing@@V?$shared_ptr@VThreadLocalValueHolderBase@internal@testing@@@std@@U?$less@PEBVThreadLocalBase@internal@testing@@@5@V?$allocator@U?$pair@QEBVThreadLocalBase@internal@testing@@V?$shared_ptr@VThreadLocalValueHolderBase@internal@testing@@@std@@@std@@@5@@std@@@std@@PEAX@std@@@std@@QEAA@XZ
	??0?$allocator@U?$_Tree_node@U?$pair@$$CBV?$basic_string@DU?$char_traits@D@std@@V?$allocator@D@2@@std@@UTypeParameterizedTestSuiteInfo@TypeParameterizedTestSuiteRegistry@internal@testing@@@std@@PEAX@std@@@std@@QEAA@XZ
	??0?$allocator@U?$_Tree_node@U?$pair@$$CBV?$basic_string@DU?$char_traits@D@std@@V?$allocator@D@2@@std@@_K@std@@PEAX@std@@@std@@QEAA@XZ
	??0?$allocator@U?$_Tree_node@U?$pair@QEBVThreadLocalBase@internal@testing@@V?$shared_ptr@VThreadLocalValueHolderBase@internal@testing@@@std@@@std@@PEAX@std@@@std@@QEAA@XZ
	??0?$allocator@U?$_Tree_node@V?$basic_string@DU?$char_traits@D@std@@V?$allocator@D@2@@std@@PEAX@std@@@std@@QEAA@XZ
	??0?$allocator@U?$_Tree_node@VExpectation@testing@@PEAX@std@@@std@@QEAA@XZ
	??0?$allocator@U?$pair@$$CBV?$basic_string@DU?$char_traits@D@std@@V?$allocator@D@2@@std@@PEAVTestSuite@testing@@@std@@@std@@QEAA@XZ
	??0?$allocator@U?$pair@$$CBV?$basic_string@DU?$char_traits@D@std@@V?$allocator@D@2@@std@@_K@std@@@std@@QEAA@XZ
	??0?$allocator@U?$pair@$$CB_KW4CallReaction@internal@testing@@@std@@@std@@QEAA@XZ
	??0?$allocator@U?$pair@_K_K@std@@@std@@QEAA@XZ
	??0?$allocator@UTraceInfo@internal@testing@@@std@@QEAA@XZ
	??0?$allocator@V?$basic_string@DU?$char_traits@D@std@@V?$allocator@D@2@@std@@@std@@QEAA@XZ
	??0?$allocator@V?$shared_ptr@VExpectationBase@internal@testing@@@std@@@std@@QEAA@XZ
	??0?$allocator@V?$shared_ptr@VThreadLocalValueHolderBase@internal@testing@@@std@@@std@@QEAA@XZ
	??0?$allocator@V?$vector@NV?$allocator@N@std@@@std@@@std@@QEAA@XZ
	??0?$allocator@V?$vector@W4EditType@edit_distance@internal@testing@@V?$allocator@W4EditType@edit_distance@internal@testing@@@std@@@std@@@std@@QEAA@XZ
	??0?$allocator@VTestPartResult@testing@@@std@@QEAA@XZ
	??0?$allocator@VTestProperty@testing@@@std@@QEAA@XZ
	??0?$allocator@W4EditType@edit_distance@internal@testing@@@std@@QEAA@XZ
	??0?$allocator@_K@std@@QEAA@XZ
	??0?$allocator@_W@std@@QEAA@XZ
	??0?$atomic@H@std@@QEAA@H@Z
	??0?$basic_ostringstream@DU?$char_traits@D@std@@V?$allocator@D@2@@std@@QEAA@XZ
	??0?$basic_string@DU?$char_traits@D@std@@V?$allocator@D@2@@std@@QEAA@$$QEAV01@@Z
	??0?$basic_string@DU?$char_traits@D@std@@V?$allocator@D@2@@std@@QEAA@AEBV01@@Z
	??0?$basic_string@DU?$char_traits@D@std@@V?$allocator@D@2@@std@@QEAA@AEBV01@_K1AEBV?$allocator@D@1@@Z
	??0?$basic_string@DU?$char_traits@D@std@@V?$allocator@D@2@@std@@QEAA@AEBV?$allocator@D@1@@Z
	??0?$basic_string@DU?$char_traits@D@std@@V?$allocator@D@2@@std@@QEAA@QEBD@Z
	??0?$basic_string@DU?$char_traits@D@std@@V?$allocator@D@2@@std@@QEAA@QEBD_K@Z
	??0?$basic_string@DU?$char_traits@D@std@@V?$allocator@D@2@@std@@QEAA@U_String_constructor_concat_tag@1@AEAV01@1@Z
	??0?$basic_string@DU?$char_traits@D@std@@V?$allocator@D@2@@std@@QEAA@U_String_constructor_concat_tag@1@AEBV01@QEBD_K23@Z
	??0?$basic_string@DU?$char_traits@D@std@@V?$allocator@D@2@@std@@QEAA@XZ
	??0?$basic_string@DU?$char_traits@D@std@@V?$allocator@D@2@@std@@QEAA@_KD@Z
	??0?$basic_string@_WU?$char_traits@_W@std@@V?$allocator@_W@2@@std@@QEAA@$$QEAV01@@Z
	??0?$basic_string@_WU?$char_traits@_W@std@@V?$allocator@_W@2@@std@@QEAA@AEBV01@@Z
	??0?$basic_string@_WU?$char_traits@_W@std@@V?$allocator@_W@2@@std@@QEAA@QEB_W@Z
	??0?$basic_string@_WU?$char_traits@_W@std@@V?$allocator@_W@2@@std@@QEAA@XZ
	??0?$basic_string_view@DU?$char_traits@D@std@@@std@@QEAA@QEBD_K@Z
	??0?$basic_stringbuf@DU?$char_traits@D@std@@V?$allocator@D@2@@std@@QEAA@H@Z
	??0?$basic_stringstream@DU?$char_traits@D@std@@V?$allocator@D@2@@std@@QEAA@XZ
	??0?$fpos@U_Mbstatet@@@std@@QEAA@_J@Z
	??0?$initializer_list@PEBD@std@@QEAA@PEBQEBD0@Z
	??0?$insert_iterator@V?$unordered_set@V?$basic_string@DU?$char_traits@D@std@@V?$allocator@D@2@@std@@U?$hash@V?$basic_string@DU?$char_traits@D@std@@V?$allocator@D@2@@std@@@2@U?$equal_to@V?$basic_string@DU?$char_traits@D@std@@V?$allocator@D@2@@std@@@2@V?$allocator@V?$basic_string@DU?$char_traits@D@std@@V?$allocator@D@2@@std@@@2@@std@@@std@@QEAA@AEAV?$unordered_set@V?$basic_string@DU?$char_traits@D@std@@V?$allocator@D@2@@std@@U?$hash@V?$basic_string@DU?$char_traits@D@std@@V?$allocator@D@2@@std@@@2@U?$equal_to@V?$basic_string@DU?$char_traits@D@std@@V?$allocator@D@2@@std@@@2@V?$allocator@V?$basic_string@DU?$char_traits@D@std@@V?$allocator@D@2@@std@@@2@@1@V?$_List_const_iterator@V?$_List_val@U?$_List_simple_types@V?$basic_string@DU?$char_traits@D@std@@V?$allocator@D@2@@std@@@std@@@std@@@1@@Z
	??0?$insert_iterator@V?$vector@V?$basic_string@DU?$char_traits@D@std@@V?$allocator@D@2@@std@@V?$allocator@V?$basic_string@DU?$char_traits@D@std@@V?$allocator@D@2@@std@@@2@@std@@@std@@QEAA@AEAV?$vector@V?$basic_string@DU?$char_traits@D@std@@V?$allocator@D@2@@std@@V?$allocator@V?$basic_string@DU?$char_traits@D@std@@V?$allocator@D@2@@std@@@2@@1@V?$_Vector_iterator@V?$_Vector_val@U?$_Simple_types@V?$basic_string@DU?$char_traits@D@std@@V?$allocator@D@2@@std@@@std@@@std@@@1@@Z
	??0?$list@U?$pair@$$CBV?$basic_string@DU?$char_traits@D@std@@V?$allocator@D@2@@std@@PEAVTestSuite@testing@@@std@@V?$allocator@U?$pair@$$CBV?$basic_string@DU?$char_traits@D@std@@V?$allocator@D@2@@std@@PEAVTestSuite@testing@@@std@@@2@@std@@QEAA@AEBV?$allocator@U?$pair@$$CBV?$basic_string@DU?$char_traits@D@std@@V?$allocator@D@2@@std@@PEAVTestSuite@testing@@@std@@@1@@Z
	??0?$list@U?$pair@$$CBV?$basic_string@DU?$char_traits@D@std@@V?$allocator@D@2@@std@@_K@std@@V?$allocator@U?$pair@$$CBV?$basic_string@DU?$char_traits@D@std@@V?$allocator@D@2@@std@@_K@std@@@2@@std@@QEAA@AEBV?$allocator@U?$pair@$$CBV?$basic_string@DU?$char_traits@D@std@@V?$allocator@D@2@@std@@_K@std@@@1@@Z
	??0?$list@U?$pair@$$CB_KW4CallReaction@internal@testing@@@std@@V?$allocator@U?$pair@$$CB_KW4CallReaction@internal@testing@@@std@@@2@@std@@QEAA@AEBV?$allocator@U?$pair@$$CB_KW4CallReaction@internal@testing@@@std@@@1@@Z
	??0?$list@U?$pair@DPEBD@std@@V?$allocator@U?$pair@DPEBD@std@@@2@@std@@QEAA@XZ
	??0?$list@V?$basic_string@DU?$char_traits@D@std@@V?$allocator@D@2@@std@@V?$allocator@V?$basic_string@DU?$char_traits@D@std@@V?$allocator@D@2@@std@@@2@@std@@QEAA@AEBV?$allocator@V?$basic_string@DU?$char_traits@D@std@@V?$allocator@D@2@@std@@@1@@Z
	??0?$lock_guard@Vmutex@std@@@std@@QEAA@AEAVmutex@1@@Z
	??0?$map@KV?$map@PEBVThreadLocalBase@internal@testing@@V?$shared_ptr@VThreadLocalValueHolderBase@internal@testing@@@std@@U?$less@PEBVThreadLocalBase@internal@testing@@@5@V?$allocator@U?$pair@QEBVThreadLocalBase@internal@testing@@V?$shared_ptr@VThreadLocalValueHolderBase@internal@testing@@@std@@@std@@@5@@std@@U?$less@K@2@V?$allocator@U?$pair@$$CBKV?$map@PEBVThreadLocalBase@internal@testing@@V?$shared_ptr@VThreadLocalValueHolderBase@internal@testing@@@std@@U?$less@PEBVThreadLocalBase@internal@testing@@@5@V?$allocator@U?$pair@QEBVThreadLocalBase@internal@testing@@V?$shared_ptr@VThreadLocalValueHolderBase@internal@testing@@@std@@@std@@@5@@std@@@std@@@2@@std@@QEAA@XZ
	??0?$map@PEBVThreadLocalBase@internal@testing@@V?$shared_ptr@VThreadLocalValueHolderBase@internal@testing@@@std@@U?$less@PEBVThreadLocalBase@internal@testing@@@5@V?$allocator@U?$pair@QEBVThreadLocalBase@internal@testing@@V?$shared_ptr@VThreadLocalValueHolderBase@internal@testing@@@std@@@std@@@5@@std@@QEAA@$$QEAV01@@Z
	??0?$map@PEBVThreadLocalBase@internal@testing@@V?$shared_ptr@VThreadLocalValueHolderBase@internal@testing@@@std@@U?$less@PEBVThreadLocalBase@internal@testing@@@5@V?$allocator@U?$pair@QEBVThreadLocalBase@internal@testing@@V?$shared_ptr@VThreadLocalValueHolderBase@internal@testing@@@std@@@std@@@5@@std@@QEAA@XZ
	??0?$map@V?$basic_string@DU?$char_traits@D@std@@V?$allocator@D@2@@std@@UTypeParameterizedTestSuiteInfo@TypeParameterizedTestSuiteRegistry@internal@testing@@U?$less@V?$basic_string@DU?$char_traits@D@std@@V?$allocator@D@2@@std@@@2@V?$allocator@U?$pair@$$CBV?$basic_string@DU?$char_traits@D@std@@V?$allocator@D@2@@std@@UTypeParameterizedTestSuiteInfo@TypeParameterizedTestSuiteRegistry@internal@testing@@@std@@@2@@std@@QEAA@XZ
	??0?$map@V?$basic_string@DU?$char_traits@D@std@@V?$allocator@D@2@@std@@_KU?$less@V?$basic_string@DU?$char_traits@D@std@@V?$allocator@D@2@@std@@@2@V?$allocator@U?$pair@$$CBV?$basic_string@DU?$char_traits@D@std@@V?$allocator@D@2@@std@@_K@std@@@2@@std@@QEAA@XZ
	??0?$pair@$$CBV?$basic_string@DU?$char_traits@D@std@@V?$allocator@D@2@@std@@UTypeParameterizedTestSuiteInfo@TypeParameterizedTestSuiteRegistry@internal@testing@@@std@@QEAA@AEBU01@@Z
	??0?$reverse_iterator@PEAPEAVEnvironment@testing@@@std@@QEAA@PEAPEAVEnvironment@testing@@@Z
	??0?$reverse_iterator@V?$_String_const_iterator@V?$_String_val@U?$_Simple_types@D@std@@@std@@@std@@@std@@QEAA@V?$_String_const_iterator@V?$_String_val@U?$_Simple_types@D@std@@@std@@@1@@Z
	??0?$reverse_iterator@V?$_Vector_iterator@V?$_Vector_val@U?$_Simple_types@PEAVEnvironment@testing@@@std@@@std@@@std@@@std@@QEAA@V?$_Vector_iterator@V?$_Vector_val@U?$_Simple_types@PEAVEnvironment@testing@@@std@@@std@@@1@@Z
	??0?$reverse_iterator@V?$_Vector_iterator@V?$_Vector_val@U?$_Simple_types@PEAVTestSuite@testing@@@std@@@std@@@std@@@std@@QEAA@V?$_Vector_iterator@V?$_Vector_val@U?$_Simple_types@PEAVTestSuite@testing@@@std@@@std@@@1@@Z
	??0?$set@PEAVUntypedFunctionMockerBase@internal@testing@@U?$less@PEAVUntypedFunctionMockerBase@internal@testing@@@std@@V?$allocator@PEAVUntypedFunctionMockerBase@internal@testing@@@5@@std@@QEAA@XZ
	??0?$set@V?$basic_string@DU?$char_traits@D@std@@V?$allocator@D@2@@std@@U?$less@V?$basic_string@DU?$char_traits@D@std@@V?$allocator@D@2@@std@@@2@V?$allocator@V?$basic_string@DU?$char_traits@D@std@@V?$allocator@D@2@@std@@@2@@std@@QEAA@XZ
	??0?$set@VExpectation@testing@@VLess@12@V?$allocator@VExpectation@testing@@@std@@@std@@QEAA@XZ
	??0?$shared_ptr@$$CBVCardinalityInterface@testing@@@std@@QEAA@AEBV01@@Z
	??0?$shared_ptr@VExpectationBase@internal@testing@@@std@@QEAA@AEBV01@@Z
	??0?$shared_ptr@VExpectationBase@internal@testing@@@std@@QEAA@XZ
	??0?$shared_ptr@VThreadLocalValueHolderBase@internal@testing@@@std@@QEAA@$$QEAV01@@Z
	??0?$shared_ptr@VThreadLocalValueHolderBase@internal@testing@@@std@@QEAA@AEBV01@@Z
	??0?$time_point@Usteady_clock@chrono@std@@V?$duration@_JU?$ratio@$00$0DLJKMKAA@@std@@@23@@chrono@std@@QEAA@AEBV?$duration@_JU?$ratio@$00$0DLJKMKAA@@std@@@12@@Z
	??0?$time_point@Usystem_clock@chrono@std@@V?$duration@_JU?$ratio@$00$0JIJGIA@@std@@@23@@chrono@std@@QEAA@AEBV?$duration@_JU?$ratio@$00$0JIJGIA@@std@@@12@@Z
	??0?$tuple@$$QEA_K@std@@QEAA@$$QEAV01@@Z
	??0?$tuple@$$V@std@@QEAA@AEBV01@@Z
	??0?$tuple@AEBQEBX@std@@QEAA@$$QEAV01@@Z
	??0?$tuple@AEBV?$basic_string@DU?$char_traits@D@std@@V?$allocator@D@2@@std@@@std@@QEAA@$$QEAV01@@Z
	??0?$tuple@AEB_K@std@@QEAA@$$QEAV01@@Z
	??0?$unique_lock@Vmutex@std@@@std@@QEAA@AEAVmutex@1@@Z
	??0?$unordered_map@V?$basic_string@DU?$char_traits@D@std@@V?$allocator@D@2@@std@@PEAVTestSuite@testing@@U?$hash@V?$basic_string@DU?$char_traits@D@std@@V?$allocator@D@2@@std@@@2@U?$equal_to@V?$basic_string@DU?$char_traits@D@std@@V?$allocator@D@2@@std@@@2@V?$allocator@U?$pair@$$CBV?$basic_string@DU?$char_traits@D@std@@V?$allocator@D@2@@std@@PEAVTestSuite@testing@@@std@@@2@@std@@QEAA@XZ
	??0?$unordered_map@V?$basic_string@DU?$char_traits@D@std@@V?$allocator@D@2@@std@@_KU?$hash@V?$basic_string@DU?$char_traits@D@std@@V?$allocator@D@2@@std@@@2@U?$equal_to@V?$basic_string@DU?$char_traits@D@std@@V?$allocator@D@2@@std@@@2@V?$allocator@U?$pair@$$CBV?$basic_string@DU?$char_traits@D@std@@V?$allocator@D@2@@std@@_K@std@@@2@@std@@QEAA@XZ
	??0?$unordered_map@_KW4CallReaction@internal@testing@@U?$hash@_K@std@@U?$equal_to@_K@5@V?$allocator@U?$pair@$$CB_KW4CallReaction@internal@testing@@@std@@@5@@std@@QEAA@XZ
	??0?$unordered_set@V?$basic_string@DU?$char_traits@D@std@@V?$allocator@D@2@@std@@U?$hash@V?$basic_string@DU?$char_traits@D@std@@V?$allocator@D@2@@std@@@2@U?$equal_to@V?$basic_string@DU?$char_traits@D@std@@V?$allocator@D@2@@std@@@2@V?$allocator@V?$basic_string@DU?$char_traits@D@std@@V?$allocator@D@2@@std@@@2@@std@@QEAA@XZ
	??0?$vector@DV?$allocator@D@std@@@std@@QEAA@XZ
	??0?$vector@HV?$allocator@H@std@@@std@@QEAA@XZ
	??0?$vector@NV?$allocator@N@std@@@std@@QEAA@AEBV01@@Z
	??0?$vector@NV?$allocator@N@std@@@std@@QEAA@_KAEBV?$allocator@N@1@@Z
	??0?$vector@PEAVEnvironment@testing@@V?$allocator@PEAVEnvironment@testing@@@std@@@std@@QEAA@XZ
	??0?$vector@PEAVParameterizedTestSuiteInfoBase@internal@testing@@V?$allocator@PEAVParameterizedTestSuiteInfoBase@internal@testing@@@std@@@std@@QEAA@XZ
	??0?$vector@PEAVTestEventListener@testing@@V?$allocator@PEAVTestEventListener@testing@@@std@@@std@@QEAA@XZ
	??0?$vector@PEAVTestInfo@testing@@V?$allocator@PEAVTestInfo@testing@@@std@@@std@@QEAA@XZ
	??0?$vector@PEAVTestSuite@testing@@V?$allocator@PEAVTestSuite@testing@@@std@@@std@@QEAA@XZ
	??0?$vector@PEBXV?$allocator@PEBX@std@@@std@@QEAA@XZ
	??0?$vector@U?$pair@_K_K@std@@V?$allocator@U?$pair@_K_K@std@@@2@@std@@QEAA@$$QEAV01@@Z
	??0?$vector@U?$pair@_K_K@std@@V?$allocator@U?$pair@_K_K@std@@@2@@std@@QEAA@XZ
	??0?$vector@UTraceInfo@internal@testing@@V?$allocator@UTraceInfo@internal@testing@@@std@@@std@@QEAA@XZ
	??0?$vector@V?$basic_string@DU?$char_traits@D@std@@V?$allocator@D@2@@std@@V?$allocator@V?$basic_string@DU?$char_traits@D@std@@V?$allocator@D@2@@std@@@2@@std@@QEAA@$$QEAV01@@Z
	??0?$vector@V?$basic_string@DU?$char_traits@D@std@@V?$allocator@D@2@@std@@V?$allocator@V?$basic_string@DU?$char_traits@D@std@@V?$allocator@D@2@@std@@@2@@std@@QEAA@AEBV01@@Z
	??0?$vector@V?$basic_string@DU?$char_traits@D@std@@V?$allocator@D@2@@std@@V?$allocator@V?$basic_string@DU?$char_traits@D@std@@V?$allocator@D@2@@std@@@2@@std@@QEAA@XZ
	??0?$vector@V?$shared_ptr@VExpectationBase@internal@testing@@@std@@V?$allocator@V?$shared_ptr@VExpectationBase@internal@testing@@@std@@@2@@std@@QEAA@XZ
	??0?$vector@V?$shared_ptr@VThreadLocalValueHolderBase@internal@testing@@@std@@V?$allocator@V?$shared_ptr@VThreadLocalValueHolderBase@internal@testing@@@std@@@2@@std@@QEAA@XZ
	??0?$vector@VTestPartResult@testing@@V?$allocator@VTestPartResult@testing@@@std@@@std@@QEAA@XZ
	??0?$vector@VTestProperty@testing@@V?$allocator@VTestProperty@testing@@@std@@@std@@QEAA@XZ
	??0?$vector@W4EditType@edit_distance@internal@testing@@V?$allocator@W4EditType@edit_distance@internal@testing@@@std@@@std@@QEAA@$$QEAV01@@Z
	??0?$vector@W4EditType@edit_distance@internal@testing@@V?$allocator@W4EditType@edit_distance@internal@testing@@@std@@@std@@QEAA@AEBV01@@Z
	??0?$vector@W4EditType@edit_distance@internal@testing@@V?$allocator@W4EditType@edit_distance@internal@testing@@@std@@@std@@QEAA@XZ
	??0?$vector@W4EditType@edit_distance@internal@testing@@V?$allocator@W4EditType@edit_distance@internal@testing@@@std@@@std@@QEAA@_KAEBV?$allocator@W4EditType@edit_distance@internal@testing@@@1@@Z
	??0?$vector@_KV?$allocator@_K@std@@@std@@QEAA@XZ
	??0?$wstring_convert@Uwchar_codecvt@?1??FOpen@posix@internal@testing@@YAPEAU_iobuf@@PEBD0@Z@_WV?$allocator@_W@std@@V?$allocator@D@8@@std@@QEAA@XZ
	??0AssertHelper@internal@testing@@QEAA@W4Type@TestPartResult@2@PEBDH1@Z
	??0AssertHelperData@AssertHelper@internal@testing@@QEAA@W4Type@TestPartResult@3@PEBDH1@Z
	??0AssertionResult@testing@@QEAA@AEBV01@@Z
	??0AutoHandle@internal@testing@@QEAA@PEAX@Z
	??0AutoHandle@internal@testing@@QEAA@XZ
	??0BriefUnitTestResultPrinter@internal@testing@@QEAA@XZ
	??0CapturedStream@internal@testing@@QEAA@H@Z
	??0Cardinality@testing@@QEAA@PEBVCardinalityInterface@1@@Z
	??0CardinalityInterface@testing@@QEAA@XZ
	??0CodeLocation@internal@testing@@QEAA@$$QEAU012@@Z
	??0CodeLocation@internal@testing@@QEAA@AEBU012@@Z
	??0CodeLocation@internal@testing@@QEAA@V?$basic_string@DU?$char_traits@D@std@@V?$allocator@D@2@@std@@H@Z
	??0DeathTest@internal@testing@@QEAA@XZ
	??0DeathTestFactory@internal@testing@@QEAA@XZ
	??0DeathTestImpl@internal@testing@@IEAA@PEBDV?$Matcher@AEBV?$basic_string@DU?$char_traits@D@std@@V?$allocator@D@2@@std@@@2@@Z
	??0DefaultDeathTestFactory@internal@testing@@QEAA@XZ
	??0DefaultGlobalTestPartResultReporter@internal@testing@@QEAA@PEAVUnitTestImpl@12@@Z
	??0DefaultPerThreadTestPartResultReporter@internal@testing@@QEAA@PEAVUnitTestImpl@12@@Z
	??0DefaultValueHolderFactory@?$ThreadLocal@PEAVSequence@testing@@@internal@testing@@QEAA@XZ
	??0DefaultValueHolderFactory@?$ThreadLocal@V?$vector@UTraceInfo@internal@testing@@V?$allocator@UTraceInfo@internal@testing@@@std@@@std@@@internal@testing@@QEAA@XZ
	??0DummyMatchResultListener@internal@testing@@QEAA@XZ
	??0EmptyTestEventListener@testing@@QEAA@XZ
	??0ExitedWithCode@testing@@QEAA@H@Z
	??0Expectation@testing@@AEAA@AEBV?$shared_ptr@VExpectationBase@internal@testing@@@std@@@Z
	??0Expectation@testing@@QEAA@AEBV01@@Z
	??0Expectation@testing@@QEAA@XZ
	??0ExpectationBase@internal@testing@@QEAA@PEBDHAEBV?$basic_string@DU?$char_traits@D@std@@V?$allocator@D@2@@std@@@Z
	??0ExpectationSet@testing@@QEAA@XZ
	??0FailureReporterInterface@internal@testing@@QEAA@XZ
	??0FilePath@internal@testing@@QEAA@$$QEAV012@@Z
	??0FilePath@internal@testing@@QEAA@AEBV012@@Z
	??0FilePath@internal@testing@@QEAA@V?$basic_string@DU?$char_traits@D@std@@V?$allocator@D@2@@std@@@Z
	??0FilePath@internal@testing@@QEAA@XZ
	??0GTestFlagSaver@internal@testing@@QEAA@XZ
	??0GTestLog@internal@testing@@QEAA@W4GTestLogSeverity@12@PEBDH@Z
	??0GTestMutexLock@internal@testing@@QEAA@PEAVMutex@12@@Z
	??0GoogleTestFailureException@internal@testing@@QEAA@AEBV012@@Z
	??0GoogleTestFailureException@internal@testing@@QEAA@AEBVTestPartResult@2@@Z
	??0GoogleTestFailureReporter@internal@testing@@QEAA@XZ
	??0HasNewFatalFailureHelper@internal@testing@@QEAA@XZ
	??0InSequence@testing@@QEAA@XZ
	??0InstanceValueHolderFactory@?$ThreadLocal@PEAVTestPartResultReporterInterface@testing@@@internal@testing@@QEAA@AEBQEAVTestPartResultReporterInterface@3@@Z
	??0InternalRunDeathTestFlag@internal@testing@@QEAA@AEBV?$basic_string@DU?$char_traits@D@std@@V?$allocator@D@2@@std@@HHH@Z
	??0JsonUnitTestResultPrinter@internal@testing@@QEAA@PEBD@Z
	??0MarkAsIgnored@internal@testing@@QEAA@PEBD@Z
	??0MatchResultListener@testing@@QEAA@PEAV?$basic_ostream@DU?$char_traits@D@std@@@std@@@Z
	??0MatcherDescriberInterface@testing@@QEAA@XZ
	??0MaxBipartiteMatchState@internal@testing@@QEAA@AEBVMatchMatrix@12@@Z
	??0Message@testing@@QEAA@AEBV01@@Z
	??0Message@testing@@QEAA@XZ
	??0Mutex@internal@testing@@QEAA@W4StaticConstructorSelector@012@@Z
	??0Mutex@internal@testing@@QEAA@XZ
	??0Notification@internal@testing@@QEAA@XZ
	??0OsStackTraceGetter@internal@testing@@QEAA@XZ
	??0OsStackTraceGetterInterface@internal@testing@@QEAA@XZ
	??0ParameterizedTestSuiteRegistry@internal@testing@@QEAA@XZ
	??0PrettyUnitTestResultPrinter@internal@testing@@QEAA@XZ
	??0Random@internal@testing@@QEAA@I@Z
	??0ScopedFakeTestPartResultReporter@testing@@QEAA@PEAVTestPartResultArray@1@@Z
	??0ScopedFakeTestPartResultReporter@testing@@QEAA@W4InterceptMode@01@PEAVTestPartResultArray@1@@Z
	??0ScopedPrematureExitFile@internal@testing@@QEAA@PEBD@Z
	??0Sequence@testing@@QEAA@XZ
	??0SharedPayloadBase@internal@testing@@QEAA@XZ
	??0SingleFailureChecker@internal@testing@@QEAA@PEBVTestPartResultArray@2@W4Type@TestPartResult@2@AEBV?$basic_string@DU?$char_traits@D@std@@V?$allocator@D@2@@std@@@Z
	??0Test@testing@@IEAA@XZ
	??0TestEventListener@testing@@QEAA@XZ
	??0TestEventListeners@testing@@QEAA@XZ
	??0TestEventRepeater@internal@testing@@QEAA@XZ
	??0TestFactoryBase@internal@testing@@IEAA@XZ
	??0TestInfo@testing@@AEAA@V?$basic_string@DU?$char_traits@D@std@@V?$allocator@D@2@@std@@0PEBD1UCodeLocation@internal@1@PEBXPEAVTestFactoryBase@51@@Z
	??0TestPartResult@testing@@QEAA@$$QEAV01@@Z
	??0TestPartResult@testing@@QEAA@AEBV01@@Z
	??0TestPartResult@testing@@QEAA@W4Type@01@PEBDH1@Z
	??0TestPartResultReporterInterface@testing@@QEAA@XZ
	??0TestProperty@testing@@QEAA@$$QEAV01@@Z
	??0TestProperty@testing@@QEAA@AEBV01@@Z
	??0TestProperty@testing@@QEAA@AEBV?$basic_string@DU?$char_traits@D@std@@V?$allocator@D@2@@std@@0@Z
	??0TestPropertyKeyIs@internal@testing@@QEAA@AEBV?$basic_string@DU?$char_traits@D@std@@V?$allocator@D@2@@std@@@Z
	??0TestResult@testing@@QEAA@XZ
	??0TestSuite@testing@@QEAA@AEBV?$basic_string@DU?$char_traits@D@std@@V?$allocator@D@2@@std@@PEBDP6AXXZ2@Z
	??0ThreadLocalBase@internal@testing@@IEAA@XZ
	??0ThreadLocalValueHolderBase@internal@testing@@QEAA@XZ
	??0ThreadWithParamBase@internal@testing@@IEAA@PEAVRunnable@012@PEAVNotification@12@@Z
	??0Timer@internal@testing@@QEAA@XZ
	??0TraceInfo@internal@testing@@QEAA@$$QEAU012@@Z
	??0TraceInfo@internal@testing@@QEAA@AEBU012@@Z
	??0TraceInfo@internal@testing@@QEAA@XZ
	??0TypeParameterizedTestSuiteInfo@TypeParameterizedTestSuiteRegistry@internal@testing@@QEAA@$$QEAU0123@@Z
	??0TypeParameterizedTestSuiteInfo@TypeParameterizedTestSuiteRegistry@internal@testing@@QEAA@AEBU0123@@Z
	??0TypeParameterizedTestSuiteInfo@TypeParameterizedTestSuiteRegistry@internal@testing@@QEAA@UCodeLocation@23@@Z
	??0TypeParameterizedTestSuiteRegistry@internal@testing@@QEAA@XZ
	??0UnitTest@testing@@AEAA@XZ
	??0UnitTestImpl@internal@testing@@QEAA@PEAVUnitTest@2@@Z
	??0UntypedFunctionMockerBase@internal@testing@@QEAA@XZ
	??0ValueHolder@?$ThreadLocal@PEAVSequence@testing@@@internal@testing@@QEAA@XZ
	??0ValueHolder@?$ThreadLocal@PEAVTestPartResultReporterInterface@testing@@@internal@testing@@QEAA@AEBQEAVTestPartResultReporterInterface@3@@Z
	??0ValueHolder@?$ThreadLocal@V?$vector@UTraceInfo@internal@testing@@V?$allocator@UTraceInfo@internal@testing@@@std@@@std@@@internal@testing@@QEAA@XZ
	??0ValueHolderFactory@?$ThreadLocal@PEAVSequence@testing@@@internal@testing@@QEAA@XZ
	??0ValueHolderFactory@?$ThreadLocal@PEAVTestPartResultReporterInterface@testing@@@internal@testing@@QEAA@XZ
	??0ValueHolderFactory@?$ThreadLocal@V?$vector@UTraceInfo@internal@testing@@V?$allocator@UTraceInfo@internal@testing@@@std@@@std@@@internal@testing@@QEAA@XZ
	??0WatcherThreadParams@ThreadLocalRegistryImpl@internal@testing@@QEAA@XZ
	??0WindowsDeathTest@internal@testing@@QEAA@PEBDV?$Matcher@AEBV?$basic_string@DU?$char_traits@D@std@@V?$allocator@D@2@@std@@@2@0H@Z
	??0WithoutMatchers@internal@testing@@AEAA@XZ
	??0XmlUnitTestResultPrinter@internal@testing@@QEAA@PEBD@Z
	??0_Bxty@?$_String_val@U?$_Simple_types@D@std@@@std@@QEAA@XZ
	??0_Bxty@?$_String_val@U?$_Simple_types@_W@std@@@std@@QEAA@XZ
	??0_Clear_guard@?$_Hash@V?$_Umap_traits@V?$basic_string@DU?$char_traits@D@std@@V?$allocator@D@2@@std@@PEAVTestSuite@testing@@V?$_Uhash_compare@V?$basic_string@DU?$char_traits@D@std@@V?$allocator@D@2@@std@@U?$hash@V?$basic_string@DU?$char_traits@D@std@@V?$allocator@D@2@@std@@@2@U?$equal_to@V?$basic_string@DU?$char_traits@D@std@@V?$allocator@D@2@@std@@@2@@2@V?$allocator@U?$pair@$$CBV?$basic_string@DU?$char_traits@D@std@@V?$allocator@D@2@@std@@PEAVTestSuite@testing@@@std@@@2@$0A@@std@@@std@@QEAA@QEAV12@@Z
	??0_Clear_guard@?$_Hash@V?$_Umap_traits@_KW4CallReaction@internal@testing@@V?$_Uhash_compare@_KU?$hash@_K@std@@U?$equal_to@_K@2@@std@@V?$allocator@U?$pair@$$CB_KW4CallReaction@internal@testing@@@std@@@5@$0A@@std@@@std@@QEAA@QEAV12@@Z
	??0_Clear_guard@?$_Hash@V?$_Uset_traits@V?$basic_string@DU?$char_traits@D@std@@V?$allocator@D@2@@std@@V?$_Uhash_compare@V?$basic_string@DU?$char_traits@D@std@@V?$allocator@D@2@@std@@U?$hash@V?$basic_string@DU?$char_traits@D@std@@V?$allocator@D@2@@std@@@2@U?$equal_to@V?$basic_string@DU?$char_traits@D@std@@V?$allocator@D@2@@std@@@2@@2@V?$allocator@V?$basic_string@DU?$char_traits@D@std@@V?$allocator@D@2@@std@@@2@$0A@@std@@@std@@QEAA@QEAV12@@Z
	??0_Fake_proxy_ptr_impl@std@@QEAA@AEBU_Fake_allocator@1@AEBU_Container_base0@1@@Z
	??0_Mutex_base@std@@QEAA@H@Z
	??0_Range_eraser@?$_Hash@V?$_Umap_traits@V?$basic_string@DU?$char_traits@D@std@@V?$allocator@D@2@@std@@PEAVTestSuite@testing@@V?$_Uhash_compare@V?$basic_string@DU?$char_traits@D@std@@V?$allocator@D@2@@std@@U?$hash@V?$basic_string@DU?$char_traits@D@std@@V?$allocator@D@2@@std@@@2@U?$equal_to@V?$basic_string@DU?$char_traits@D@std@@V?$allocator@D@2@@std@@@2@@2@V?$allocator@U?$pair@$$CBV?$basic_string@DU?$char_traits@D@std@@V?$allocator@D@2@@std@@PEAVTestSuite@testing@@@std@@@2@$0A@@std@@@std@@QEAA@AEAV?$list@U?$pair@$$CBV?$basic_string@DU?$char_traits@D@std@@V?$allocator@D@2@@std@@PEAVTestSuite@testing@@@std@@V?$allocator@U?$pair@$$CBV?$basic_string@DU?$char_traits@D@std@@V?$allocator@D@2@@std@@PEAVTestSuite@testing@@@std@@@2@@2@QEAU?$_List_node@U?$pair@$$CBV?$basic_string@DU?$char_traits@D@std@@V?$allocator@D@2@@std@@PEAVTestSuite@testing@@@std@@PEAX@2@@Z
	??0_Range_eraser@?$_Hash@V?$_Umap_traits@_KW4CallReaction@internal@testing@@V?$_Uhash_compare@_KU?$hash@_K@std@@U?$equal_to@_K@2@@std@@V?$allocator@U?$pair@$$CB_KW4CallReaction@internal@testing@@@std@@@5@$0A@@std@@@std@@QEAA@AEAV?$list@U?$pair@$$CB_KW4CallReaction@internal@testing@@@std@@V?$allocator@U?$pair@$$CB_KW4CallReaction@internal@testing@@@std@@@2@@2@QEAU?$_List_node@U?$pair@$$CB_KW4CallReaction@internal@testing@@@std@@PEAX@2@@Z
	??0_Range_eraser@?$_Hash@V?$_Uset_traits@V?$basic_string@DU?$char_traits@D@std@@V?$allocator@D@2@@std@@V?$_Uhash_compare@V?$basic_string@DU?$char_traits@D@std@@V?$allocator@D@2@@std@@U?$hash@V?$basic_string@DU?$char_traits@D@std@@V?$allocator@D@2@@std@@@2@U?$equal_to@V?$basic_string@DU?$char_traits@D@std@@V?$allocator@D@2@@std@@@2@@2@V?$allocator@V?$basic_string@DU?$char_traits@D@std@@V?$allocator@D@2@@std@@@2@$0A@@std@@@std@@QEAA@AEAV?$list@V?$basic_string@DU?$char_traits@D@std@@V?$allocator@D@2@@std@@V?$allocator@V?$basic_string@DU?$char_traits@D@std@@V?$allocator@D@2@@std@@@2@@2@QEAU?$_List_node@V?$basic_string@DU?$char_traits@D@std@@V?$allocator@D@2@@std@@PEAX@2@@Z
	??0_Ref_count_base@std@@IEAA@XZ
	??0_Sentry_base@?$basic_ostream@DU?$char_traits@D@std@@@std@@QEAA@AEAV12@@Z
	??0bad_alloc@std@@AEAA@QEBD@Z
	??0bad_alloc@std@@QEAA@AEBV01@@Z
	??0bad_array_new_length@std@@QEAA@AEBV01@@Z
	??0bad_array_new_length@std@@QEAA@XZ
	??0condition_variable@std@@QEAA@XZ
	??0exception@std@@QEAA@AEBV01@@Z
	??0exception@std@@QEAA@QEBD@Z
	??0exception@std@@QEAA@QEBDH@Z
	??0locale@std@@QEAA@XZ
	??0mutex@std@@QEAA@XZ
	??0range_error@std@@QEAA@AEBV01@@Z
	??0range_error@std@@QEAA@PEBD@Z
	??0runtime_error@std@@QEAA@AEBV01@@Z
	??0runtime_error@std@@QEAA@PEBD@Z
	??0sentry@?$basic_ostream@DU?$char_traits@D@std@@@std@@QEAA@AEAV12@@Z
	??0wchar_codecvt@?1??FOpen@posix@internal@testing@@YAPEAU_iobuf@@PEBD0@Z@QEAA@XZ
	??1?$ComparisonBase@V?$EqMatcher@V?$basic_string@DU?$char_traits@D@std@@V?$allocator@D@2@@std@@@internal@testing@@V?$basic_string@DU?$char_traits@D@std@@V?$allocator@D@2@@std@@U?$equal_to@X@5@@internal@testing@@QEAA@XZ
	??1?$EqMatcher@V?$basic_string@DU?$char_traits@D@std@@V?$allocator@D@2@@std@@@internal@testing@@QEAA@XZ
	??1?$Matcher@AEBV?$basic_string@DU?$char_traits@D@std@@V?$allocator@D@2@@std@@@testing@@UEAA@XZ
	??1?$Matcher@AEBV?$basic_string_view@DU?$char_traits@D@std@@@std@@@testing@@UEAA@XZ
	??1?$Matcher@V?$basic_string@DU?$char_traits@D@std@@V?$allocator@D@2@@std@@@testing@@UEAA@XZ
	??1?$Matcher@V?$basic_string_view@DU?$char_traits@D@std@@@std@@@testing@@UEAA@XZ
	??1?$MatcherBase@AEBV?$basic_string@DU?$char_traits@D@std@@V?$allocator@D@2@@std@@@internal@testing@@MEAA@XZ
	??1?$MatcherBase@AEBV?$basic_string_view@DU?$char_traits@D@std@@@std@@@internal@testing@@MEAA@XZ
	??1?$MatcherBase@V?$basic_string@DU?$char_traits@D@std@@V?$allocator@D@2@@std@@@internal@testing@@MEAA@XZ
	??1?$MatcherBase@V?$basic_string_view@DU?$char_traits@D@std@@@std@@@internal@testing@@MEAA@XZ
	??1?$SharedPayload@V?$EqMatcher@V?$basic_string@DU?$char_traits@D@std@@V?$allocator@D@2@@std@@@internal@testing@@@internal@testing@@QEAA@XZ
	??1?$ThreadLocal@PEAVSequence@testing@@@internal@testing@@UEAA@XZ
	??1?$ThreadLocal@PEAVTestPartResultReporterInterface@testing@@@internal@testing@@UEAA@XZ
	??1?$ThreadLocal@V?$vector@UTraceInfo@internal@testing@@V?$allocator@UTraceInfo@internal@testing@@@std@@@std@@@internal@testing@@UEAA@XZ
	??1?$_Alloc_construct_ptr@V?$allocator@U?$_List_node@U?$pair@$$CBV?$basic_string@DU?$char_traits@D@std@@V?$allocator@D@2@@std@@PEAVTestSuite@testing@@@std@@PEAX@std@@@std@@@std@@QEAA@XZ
	??1?$_Alloc_construct_ptr@V?$allocator@U?$_List_node@U?$pair@$$CB_KW4CallReaction@internal@testing@@@std@@PEAX@std@@@std@@@std@@QEAA@XZ
	??1?$_Alloc_construct_ptr@V?$allocator@U?$_List_node@U?$pair@DPEBD@std@@PEAX@std@@@std@@@std@@QEAA@XZ
	??1?$_Alloc_construct_ptr@V?$allocator@U?$_List_node@V?$basic_string@DU?$char_traits@D@std@@V?$allocator@D@2@@std@@PEAX@std@@@std@@@std@@QEAA@XZ
	??1?$_Alloc_construct_ptr@V?$allocator@U?$_Tree_node@PEAVUntypedFunctionMockerBase@internal@testing@@PEAX@std@@@std@@@std@@QEAA@XZ
	??1?$_Alloc_construct_ptr@V?$allocator@U?$_Tree_node@U?$pair@$$CBKV?$map@PEBVThreadLocalBase@internal@testing@@V?$shared_ptr@VThreadLocalValueHolderBase@internal@testing@@@std@@U?$less@PEBVThreadLocalBase@internal@testing@@@5@V?$allocator@U?$pair@QEBVThreadLocalBase@internal@testing@@V?$shared_ptr@VThreadLocalValueHolderBase@internal@testing@@@std@@@std@@@5@@std@@@std@@PEAX@std@@@std@@@std@@QEAA@XZ
	??1?$_Alloc_construct_ptr@V?$allocator@U?$_Tree_node@U?$pair@$$CBV?$basic_string@DU?$char_traits@D@std@@V?$allocator@D@2@@std@@UTypeParameterizedTestSuiteInfo@TypeParameterizedTestSuiteRegistry@internal@testing@@@std@@PEAX@std@@@std@@@std@@QEAA@XZ
	??1?$_Alloc_construct_ptr@V?$allocator@U?$_Tree_node@U?$pair@$$CBV?$basic_string@DU?$char_traits@D@std@@V?$allocator@D@2@@std@@_K@std@@PEAX@std@@@std@@@std@@QEAA@XZ
	??1?$_Alloc_construct_ptr@V?$allocator@U?$_Tree_node@U?$pair@QEBVThreadLocalBase@internal@testing@@V?$shared_ptr@VThreadLocalValueHolderBase@internal@testing@@@std@@@std@@PEAX@std@@@std@@@std@@QEAA@XZ
	??1?$_Alloc_construct_ptr@V?$allocator@U?$_Tree_node@V?$basic_string@DU?$char_traits@D@std@@V?$allocator@D@2@@std@@PEAX@std@@@std@@@std@@QEAA@XZ
	??1?$_Alloc_construct_ptr@V?$allocator@U?$_Tree_node@VExpectation@testing@@PEAX@std@@@std@@@std@@QEAA@XZ
	??1?$_Alloc_temporary2@V?$allocator@PEAVTestSuite@testing@@@std@@@std@@QEAA@XZ
	??1?$_Alloc_temporary2@V?$allocator@V?$basic_string@DU?$char_traits@D@std@@V?$allocator@D@2@@std@@@std@@@std@@QEAA@XZ
	??1?$_Compressed_pair@V?$allocator@D@std@@V?$_String_val@U?$_Simple_types@D@std@@@2@$00@std@@QEAA@XZ
	??1?$_Compressed_pair@V?$allocator@_W@std@@V?$_String_val@U?$_Simple_types@_W@std@@@2@$00@std@@QEAA@XZ
	??1?$_Hash@V?$_Umap_traits@V?$basic_string@DU?$char_traits@D@std@@V?$allocator@D@2@@std@@PEAVTestSuite@testing@@V?$_Uhash_compare@V?$basic_string@DU?$char_traits@D@std@@V?$allocator@D@2@@std@@U?$hash@V?$basic_string@DU?$char_traits@D@std@@V?$allocator@D@2@@std@@@2@U?$equal_to@V?$basic_string@DU?$char_traits@D@std@@V?$allocator@D@2@@std@@@2@@2@V?$allocator@U?$pair@$$CBV?$basic_string@DU?$char_traits@D@std@@V?$allocator@D@2@@std@@PEAVTestSuite@testing@@@std@@@2@$0A@@std@@@std@@QEAA@XZ
	??1?$_Hash@V?$_Umap_traits@V?$basic_string@DU?$char_traits@D@std@@V?$allocator@D@2@@std@@_KV?$_Uhash_compare@V?$basic_string@DU?$char_traits@D@std@@V?$allocator@D@2@@std@@U?$hash@V?$basic_string@DU?$char_traits@D@std@@V?$allocator@D@2@@std@@@2@U?$equal_to@V?$basic_string@DU?$char_traits@D@std@@V?$allocator@D@2@@std@@@2@@2@V?$allocator@U?$pair@$$CBV?$basic_string@DU?$char_traits@D@std@@V?$allocator@D@2@@std@@_K@std@@@2@$0A@@std@@@std@@QEAA@XZ
	??1?$_Hash@V?$_Uset_traits@V?$basic_string@DU?$char_traits@D@std@@V?$allocator@D@2@@std@@V?$_Uhash_compare@V?$basic_string@DU?$char_traits@D@std@@V?$allocator@D@2@@std@@U?$hash@V?$basic_string@DU?$char_traits@D@std@@V?$allocator@D@2@@std@@@2@U?$equal_to@V?$basic_string@DU?$char_traits@D@std@@V?$allocator@D@2@@std@@@2@@2@V?$allocator@V?$basic_string@DU?$char_traits@D@std@@V?$allocator@D@2@@std@@@2@$0A@@std@@@std@@QEAA@XZ
	??1?$_Hash_vec@V?$allocator@V?$_List_unchecked_const_iterator@V?$_List_val@U?$_List_simple_types@V?$basic_string@DU?$char_traits@D@std@@V?$allocator@D@2@@std@@@std@@@std@@U_Iterator_base0@2@@std@@@std@@@std@@QEAA@XZ
	??1?$_Hash_vec@V?$allocator@V?$_List_unchecked_iterator@V?$_List_val@U?$_List_simple_types@U?$pair@$$CBV?$basic_string@DU?$char_traits@D@std@@V?$allocator@D@2@@std@@PEAVTestSuite@testing@@@std@@@std@@@std@@@std@@@std@@@std@@QEAA@XZ
	??1?$_Hash_vec@V?$allocator@V?$_List_unchecked_iterator@V?$_List_val@U?$_List_simple_types@U?$pair@$$CBV?$basic_string@DU?$char_traits@D@std@@V?$allocator@D@2@@std@@_K@std@@@std@@@std@@@std@@@std@@@std@@QEAA@XZ
	??1?$_Hash_vec@V?$allocator@V?$_List_unchecked_iterator@V?$_List_val@U?$_List_simple_types@U?$pair@$$CB_KW4CallReaction@internal@testing@@@std@@@std@@@std@@@std@@@std@@@std@@QEAA@XZ
	??1?$_List_node_emplace_op2@V?$allocator@U?$_List_node@U?$pair@$$CBV?$basic_string@DU?$char_traits@D@std@@V?$allocator@D@2@@std@@PEAVTestSuite@testing@@@std@@PEAX@std@@@std@@@std@@QEAA@XZ
	??1?$_List_node_emplace_op2@V?$allocator@U?$_List_node@U?$pair@$$CB_KW4CallReaction@internal@testing@@@std@@PEAX@std@@@std@@@std@@QEAA@XZ
	??1?$_List_node_emplace_op2@V?$allocator@U?$_List_node@U?$pair@DPEBD@std@@PEAX@std@@@std@@@std@@QEAA@XZ
	??1?$_List_node_emplace_op2@V?$allocator@U?$_List_node@V?$basic_string@DU?$char_traits@D@std@@V?$allocator@D@2@@std@@PEAX@std@@@std@@@std@@QEAA@XZ
	??1?$_Optimistic_temporary_buffer@PEAVTestInfo@testing@@@std@@QEAA@XZ
	??1?$_Ref_count@$$CBVCardinalityInterface@testing@@@std@@UEAA@XZ
	??1?$_Ref_count@VExpectation@testing@@@std@@UEAA@XZ
	??1?$_Ref_count@VThreadLocalValueHolderBase@internal@testing@@@std@@UEAA@XZ
	??1?$_String_val@U?$_Simple_types@D@std@@@std@@QEAA@XZ
	??1?$_String_val@U?$_Simple_types@_W@std@@@std@@QEAA@XZ
	??1?$_Temporary_owner@$$CBVCardinalityInterface@testing@@@std@@QEAA@XZ
	??1?$_Temporary_owner@VExpectation@testing@@@std@@QEAA@XZ
	??1?$_Temporary_owner@VThreadLocalValueHolderBase@internal@testing@@@std@@QEAA@XZ
	??1?$_Tidy_guard@V?$vector@DV?$allocator@D@std@@@std@@@std@@QEAA@XZ
	??1?$_Tidy_guard@V?$vector@NV?$allocator@N@std@@@std@@@std@@QEAA@XZ
	??1?$_Tidy_guard@V?$vector@PEAVExpectationBase@internal@testing@@V?$allocator@PEAVExpectationBase@internal@testing@@@std@@@std@@@std@@QEAA@XZ
	??1?$_Tidy_guard@V?$vector@PEBVExpectationBase@internal@testing@@V?$allocator@PEBVExpectationBase@internal@testing@@@std@@@std@@@std@@QEAA@XZ
	??1?$_Tidy_guard@V?$vector@V?$basic_string@DU?$char_traits@D@std@@V?$allocator@D@2@@std@@V?$allocator@V?$basic_string@DU?$char_traits@D@std@@V?$allocator@D@2@@std@@@2@@std@@@std@@QEAA@XZ
	??1?$_Tidy_guard@V?$vector@V?$vector@NV?$allocator@N@std@@@std@@V?$allocator@V?$vector@NV?$allocator@N@std@@@std@@@2@@std@@@std@@QEAA@XZ
	??1?$_Tidy_guard@V?$vector@V?$vector@W4EditType@edit_distance@internal@testing@@V?$allocator@W4EditType@edit_distance@internal@testing@@@std@@@std@@V?$allocator@V?$vector@W4EditType@edit_distance@internal@testing@@V?$allocator@W4EditType@edit_distance@internal@testing@@@std@@@std@@@2@@std@@@std@@QEAA@XZ
	??1?$_Tidy_guard@V?$vector@W4EditType@edit_distance@internal@testing@@V?$allocator@W4EditType@edit_distance@internal@testing@@@std@@@std@@@std@@QEAA@XZ
	??1?$_Tidy_guard@V?$vector@_KV?$allocator@_K@std@@@std@@@std@@QEAA@XZ
	??1?$_Tree@V?$_Tmap_traits@PEBVThreadLocalBase@internal@testing@@V?$shared_ptr@VThreadLocalValueHolderBase@internal@testing@@@std@@U?$less@PEBVThreadLocalBase@internal@testing@@@5@V?$allocator@U?$pair@QEBVThreadLocalBase@internal@testing@@V?$shared_ptr@VThreadLocalValueHolderBase@internal@testing@@@std@@@std@@@5@$0A@@std@@@std@@QEAA@XZ
	??1?$_Tree@V?$_Tmap_traits@V?$basic_string@DU?$char_traits@D@std@@V?$allocator@D@2@@std@@UTypeParameterizedTestSuiteInfo@TypeParameterizedTestSuiteRegistry@internal@testing@@U?$less@V?$basic_string@DU?$char_traits@D@std@@V?$allocator@D@2@@std@@@2@V?$allocator@U?$pair@$$CBV?$basic_string@DU?$char_traits@D@std@@V?$allocator@D@2@@std@@UTypeParameterizedTestSuiteInfo@TypeParameterizedTestSuiteRegistry@internal@testing@@@std@@@2@$0A@@std@@@std@@QEAA@XZ
	??1?$_Tree@V?$_Tmap_traits@V?$basic_string@DU?$char_traits@D@std@@V?$allocator@D@2@@std@@_KU?$less@V?$basic_string@DU?$char_traits@D@std@@V?$allocator@D@2@@std@@@2@V?$allocator@U?$pair@$$CBV?$basic_string@DU?$char_traits@D@std@@V?$allocator@D@2@@std@@_K@std@@@2@$0A@@std@@@std@@QEAA@XZ
	??1?$_Tree@V?$_Tset_traits@PEAVUntypedFunctionMockerBase@internal@testing@@U?$less@PEAVUntypedFunctionMockerBase@internal@testing@@@std@@V?$allocator@PEAVUntypedFunctionMockerBase@internal@testing@@@5@$0A@@std@@@std@@QEAA@XZ
	??1?$_Tree@V?$_Tset_traits@V?$basic_string@DU?$char_traits@D@std@@V?$allocator@D@2@@std@@U?$less@V?$basic_string@DU?$char_traits@D@std@@V?$allocator@D@2@@std@@@2@V?$allocator@V?$basic_string@DU?$char_traits@D@std@@V?$allocator@D@2@@std@@@2@$0A@@std@@@std@@QEAA@XZ
	??1?$_Tree@V?$_Tset_traits@VExpectation@testing@@VLess@12@V?$allocator@VExpectation@testing@@@std@@$0A@@std@@@std@@QEAA@XZ
	??1?$_Tree_temp_node@V?$allocator@U?$_Tree_node@PEAVUntypedFunctionMockerBase@internal@testing@@PEAX@std@@@std@@@std@@QEAA@XZ
	??1?$_Tree_temp_node@V?$allocator@U?$_Tree_node@U?$pair@$$CBKV?$map@PEBVThreadLocalBase@internal@testing@@V?$shared_ptr@VThreadLocalValueHolderBase@internal@testing@@@std@@U?$less@PEBVThreadLocalBase@internal@testing@@@5@V?$allocator@U?$pair@QEBVThreadLocalBase@internal@testing@@V?$shared_ptr@VThreadLocalValueHolderBase@internal@testing@@@std@@@std@@@5@@std@@@std@@PEAX@std@@@std@@@std@@QEAA@XZ
	??1?$_Tree_temp_node@V?$allocator@U?$_Tree_node@U?$pair@$$CBV?$basic_string@DU?$char_traits@D@std@@V?$allocator@D@2@@std@@UTypeParameterizedTestSuiteInfo@TypeParameterizedTestSuiteRegistry@internal@testing@@@std@@PEAX@std@@@std@@@std@@QEAA@XZ
	??1?$_Tree_temp_node@V?$allocator@U?$_Tree_node@U?$pair@$$CBV?$basic_string@DU?$char_traits@D@std@@V?$allocator@D@2@@std@@_K@std@@PEAX@std@@@std@@@std@@QEAA@XZ
	??1?$_Tree_temp_node@V?$allocator@U?$_Tree_node@U?$pair@QEBVThreadLocalBase@internal@testing@@V?$shared_ptr@VThreadLocalValueHolderBase@internal@testing@@@std@@@std@@PEAX@std@@@std@@@std@@QEAA@XZ
	??1?$_Tree_temp_node@V?$allocator@U?$_Tree_node@V?$basic_string@DU?$char_traits@D@std@@V?$allocator@D@2@@std@@PEAX@std@@@std@@@std@@QEAA@XZ
	??1?$_Tree_temp_node@V?$allocator@U?$_Tree_node@VExpectation@testing@@PEAX@std@@@std@@@std@@QEAA@XZ
	??1?$_Tree_temp_node_alloc@V?$allocator@U?$_Tree_node@PEAVUntypedFunctionMockerBase@internal@testing@@PEAX@std@@@std@@@std@@QEAA@XZ
	??1?$_Tree_temp_node_alloc@V?$allocator@U?$_Tree_node@U?$pair@$$CBKV?$map@PEBVThreadLocalBase@internal@testing@@V?$shared_ptr@VThreadLocalValueHolderBase@internal@testing@@@std@@U?$less@PEBVThreadLocalBase@internal@testing@@@5@V?$allocator@U?$pair@QEBVThreadLocalBase@internal@testing@@V?$shared_ptr@VThreadLocalValueHolderBase@internal@testing@@@std@@@std@@@5@@std@@@std@@PEAX@std@@@std@@@std@@QEAA@XZ
	??1?$_Tree_temp_node_alloc@V?$allocator@U?$_Tree_node@U?$pair@$$CBV?$basic_string@DU?$char_traits@D@std@@V?$allocator@D@2@@std@@UTypeParameterizedTestSuiteInfo@TypeParameterizedTestSuiteRegistry@internal@testing@@@std@@PEAX@std@@@std@@@std@@QEAA@XZ
	??1?$_Tree_temp_node_alloc@V?$allocator@U?$_Tree_node@U?$pair@$$CBV?$basic_string@DU?$char_traits@D@std@@V?$allocator@D@2@@std@@_K@std@@PEAX@std@@@std@@@std@@QEAA@XZ
	??1?$_Tree_temp_node_alloc@V?$allocator@U?$_Tree_node@U?$pair@QEBVThreadLocalBase@internal@testing@@V?$shared_ptr@VThreadLocalValueHolderBase@internal@testing@@@std@@@std@@PEAX@std@@@std@@@std@@QEAA@XZ
	??1?$_Tree_temp_node_alloc@V?$allocator@U?$_Tree_node@V?$basic_string@DU?$char_traits@D@std@@V?$allocator@D@2@@std@@PEAX@std@@@std@@@std@@QEAA@XZ
	??1?$_Tree_temp_node_alloc@V?$allocator@U?$_Tree_node@VExpectation@testing@@PEAX@std@@@std@@@std@@QEAA@XZ
	??1?$_Uninitialized_backout@PEAPEAVTestInfo@testing@@@std@@QEAA@XZ
	??1?$_Uninitialized_backout@PEAV?$_List_unchecked_const_iterator@V?$_List_val@U?$_List_simple_types@V?$basic_string@DU?$char_traits@D@std@@V?$allocator@D@2@@std@@@std@@@std@@U_Iterator_base0@2@@std@@@std@@QEAA@XZ
	??1?$_Uninitialized_backout@PEAV?$_List_unchecked_iterator@V?$_List_val@U?$_List_simple_types@U?$pair@$$CBV?$basic_string@DU?$char_traits@D@std@@V?$allocator@D@2@@std@@PEAVTestSuite@testing@@@std@@@std@@@std@@@std@@@std@@QEAA@XZ
	??1?$_Uninitialized_backout@PEAV?$_List_unchecked_iterator@V?$_List_val@U?$_List_simple_types@U?$pair@$$CBV?$basic_string@DU?$char_traits@D@std@@V?$allocator@D@2@@std@@_K@std@@@std@@@std@@@std@@@std@@QEAA@XZ
	??1?$_Uninitialized_backout@PEAV?$_List_unchecked_iterator@V?$_List_val@U?$_List_simple_types@U?$pair@$$CB_KW4CallReaction@internal@testing@@@std@@@std@@@std@@@std@@@std@@QEAA@XZ
	??1?$_Uninitialized_backout_al@V?$allocator@D@std@@@std@@QEAA@XZ
	??1?$_Uninitialized_backout_al@V?$allocator@H@std@@@std@@QEAA@XZ
	??1?$_Uninitialized_backout_al@V?$allocator@N@std@@@std@@QEAA@XZ
	??1?$_Uninitialized_backout_al@V?$allocator@PEAVEnvironment@testing@@@std@@@std@@QEAA@XZ
	??1?$_Uninitialized_backout_al@V?$allocator@PEAVExpectationBase@internal@testing@@@std@@@std@@QEAA@XZ
	??1?$_Uninitialized_backout_al@V?$allocator@PEAVTestEventListener@testing@@@std@@@std@@QEAA@XZ
	??1?$_Uninitialized_backout_al@V?$allocator@PEAVTestInfo@testing@@@std@@@std@@QEAA@XZ
	??1?$_Uninitialized_backout_al@V?$allocator@PEAVTestSuite@testing@@@std@@@std@@QEAA@XZ
	??1?$_Uninitialized_backout_al@V?$allocator@PEBVExpectationBase@internal@testing@@@std@@@std@@QEAA@XZ
	??1?$_Uninitialized_backout_al@V?$allocator@U?$pair@_K_K@std@@@std@@@std@@QEAA@XZ
	??1?$_Uninitialized_backout_al@V?$allocator@UTraceInfo@internal@testing@@@std@@@std@@QEAA@XZ
	??1?$_Uninitialized_backout_al@V?$allocator@V?$basic_string@DU?$char_traits@D@std@@V?$allocator@D@2@@std@@@std@@@std@@QEAA@XZ
	??1?$_Uninitialized_backout_al@V?$allocator@V?$shared_ptr@VThreadLocalValueHolderBase@internal@testing@@@std@@@std@@@std@@QEAA@XZ
	??1?$_Uninitialized_backout_al@V?$allocator@V?$vector@NV?$allocator@N@std@@@std@@@std@@@std@@QEAA@XZ
	??1?$_Uninitialized_backout_al@V?$allocator@V?$vector@W4EditType@edit_distance@internal@testing@@V?$allocator@W4EditType@edit_distance@internal@testing@@@std@@@std@@@std@@@std@@QEAA@XZ
	??1?$_Uninitialized_backout_al@V?$allocator@VTestPartResult@testing@@@std@@@std@@QEAA@XZ
	??1?$_Uninitialized_backout_al@V?$allocator@VTestProperty@testing@@@std@@@std@@QEAA@XZ
	??1?$_Uninitialized_backout_al@V?$allocator@W4EditType@edit_distance@internal@testing@@@std@@@std@@QEAA@XZ
	??1?$_Uninitialized_backout_al@V?$allocator@_K@std@@@std@@QEAA@XZ
	??1?$basic_ostringstream@DU?$char_traits@D@std@@V?$allocator@D@2@@std@@UEAA@XZ
	??1?$basic_string@DU?$char_traits@D@std@@V?$allocator@D@2@@std@@QEAA@XZ
	??1?$basic_string@_WU?$char_traits@_W@std@@V?$allocator@_W@2@@std@@QEAA@XZ
	??1?$basic_stringbuf@DU?$char_traits@D@std@@V?$allocator@D@2@@std@@UEAA@XZ
	??1?$basic_stringstream@DU?$char_traits@D@std@@V?$allocator@D@2@@std@@UEAA@XZ
	??1?$list@U?$pair@$$CBV?$basic_string@DU?$char_traits@D@std@@V?$allocator@D@2@@std@@PEAVTestSuite@testing@@@std@@V?$allocator@U?$pair@$$CBV?$basic_string@DU?$char_traits@D@std@@V?$allocator@D@2@@std@@PEAVTestSuite@testing@@@std@@@2@@std@@QEAA@XZ
	??1?$list@U?$pair@$$CBV?$basic_string@DU?$char_traits@D@std@@V?$allocator@D@2@@std@@_K@std@@V?$allocator@U?$pair@$$CBV?$basic_string@DU?$char_traits@D@std@@V?$allocator@D@2@@std@@_K@std@@@2@@std@@QEAA@XZ
	??1?$list@U?$pair@$$CB_KW4CallReaction@internal@testing@@@std@@V?$allocator@U?$pair@$$CB_KW4CallReaction@internal@testing@@@std@@@2@@std@@QEAA@XZ
	??1?$list@U?$pair@DPEBD@std@@V?$allocator@U?$pair@DPEBD@std@@@2@@std@@QEAA@XZ
	??1?$list@V?$basic_string@DU?$char_traits@D@std@@V?$allocator@D@2@@std@@V?$allocator@V?$basic_string@DU?$char_traits@D@std@@V?$allocator@D@2@@std@@@2@@std@@QEAA@XZ
	??1?$lock_guard@Vmutex@std@@@std@@QEAA@XZ
	??1?$map@PEBVThreadLocalBase@internal@testing@@V?$shared_ptr@VThreadLocalValueHolderBase@internal@testing@@@std@@U?$less@PEBVThreadLocalBase@internal@testing@@@5@V?$allocator@U?$pair@QEBVThreadLocalBase@internal@testing@@V?$shared_ptr@VThreadLocalValueHolderBase@internal@testing@@@std@@@std@@@5@@std@@QEAA@XZ
	??1?$map@V?$basic_string@DU?$char_traits@D@std@@V?$allocator@D@2@@std@@UTypeParameterizedTestSuiteInfo@TypeParameterizedTestSuiteRegistry@internal@testing@@U?$less@V?$basic_string@DU?$char_traits@D@std@@V?$allocator@D@2@@std@@@2@V?$allocator@U?$pair@$$CBV?$basic_string@DU?$char_traits@D@std@@V?$allocator@D@2@@std@@UTypeParameterizedTestSuiteInfo@TypeParameterizedTestSuiteRegistry@internal@testing@@@std@@@2@@std@@QEAA@XZ
	??1?$map@V?$basic_string@DU?$char_traits@D@std@@V?$allocator@D@2@@std@@_KU?$less@V?$basic_string@DU?$char_traits@D@std@@V?$allocator@D@2@@std@@@2@V?$allocator@U?$pair@$$CBV?$basic_string@DU?$char_traits@D@std@@V?$allocator@D@2@@std@@_K@std@@@2@@std@@QEAA@XZ
	??1?$pair@$$CBKV?$map@PEBVThreadLocalBase@internal@testing@@V?$shared_ptr@VThreadLocalValueHolderBase@internal@testing@@@std@@U?$less@PEBVThreadLocalBase@internal@testing@@@5@V?$allocator@U?$pair@QEBVThreadLocalBase@internal@testing@@V?$shared_ptr@VThreadLocalValueHolderBase@internal@testing@@@std@@@std@@@5@@std@@@std@@QEAA@XZ
	??1?$pair@$$CBV?$basic_string@DU?$char_traits@D@std@@V?$allocator@D@2@@std@@PEAVTestSuite@testing@@@std@@QEAA@XZ
	??1?$pair@$$CBV?$basic_string@DU?$char_traits@D@std@@V?$allocator@D@2@@std@@UTypeParameterizedTestSuiteInfo@TypeParameterizedTestSuiteRegistry@internal@testing@@@std@@QEAA@XZ
	??1?$pair@$$CBV?$basic_string@DU?$char_traits@D@std@@V?$allocator@D@2@@std@@_K@std@@QEAA@XZ
	??1?$pair@KV?$map@PEBVThreadLocalBase@internal@testing@@V?$shared_ptr@VThreadLocalValueHolderBase@internal@testing@@@std@@U?$less@PEBVThreadLocalBase@internal@testing@@@5@V?$allocator@U?$pair@QEBVThreadLocalBase@internal@testing@@V?$shared_ptr@VThreadLocalValueHolderBase@internal@testing@@@std@@@std@@@5@@std@@@std@@QEAA@XZ
	??1?$pair@PEBVThreadLocalBase@internal@testing@@V?$shared_ptr@VThreadLocalValueHolderBase@internal@testing@@@std@@@std@@QEAA@XZ
	??1?$pair@QEBVThreadLocalBase@internal@testing@@V?$shared_ptr@VThreadLocalValueHolderBase@internal@testing@@@std@@@std@@QEAA@XZ
	??1?$set@PEAVUntypedFunctionMockerBase@internal@testing@@U?$less@PEAVUntypedFunctionMockerBase@internal@testing@@@std@@V?$allocator@PEAVUntypedFunctionMockerBase@internal@testing@@@5@@std@@QEAA@XZ
	??1?$set@V?$basic_string@DU?$char_traits@D@std@@V?$allocator@D@2@@std@@U?$less@V?$basic_string@DU?$char_traits@D@std@@V?$allocator@D@2@@std@@@2@V?$allocator@V?$basic_string@DU?$char_traits@D@std@@V?$allocator@D@2@@std@@@2@@std@@QEAA@XZ
	??1?$set@VExpectation@testing@@VLess@12@V?$allocator@VExpectation@testing@@@std@@@std@@QEAA@XZ
	??1?$shared_ptr@$$CBVCardinalityInterface@testing@@@std@@QEAA@XZ
	??1?$shared_ptr@VExpectation@testing@@@std@@QEAA@XZ
	??1?$shared_ptr@VExpectationBase@internal@testing@@@std@@QEAA@XZ
	??1?$shared_ptr@VThreadLocalValueHolderBase@internal@testing@@@std@@QEAA@XZ
	??1?$unique_lock@Vmutex@std@@@std@@QEAA@XZ
	??1?$unique_ptr@$$CBV?$basic_string@DU?$char_traits@D@std@@V?$allocator@D@2@@std@@U?$default_delete@$$CBV?$basic_string@DU?$char_traits@D@std@@V?$allocator@D@2@@std@@@2@@std@@QEAA@XZ
	??1?$unique_ptr@V?$basic_string@DU?$char_traits@D@std@@V?$allocator@D@2@@std@@U?$default_delete@V?$basic_string@DU?$char_traits@D@std@@V?$allocator@D@2@@std@@@2@@std@@QEAA@XZ
	??1?$unique_ptr@V?$basic_stringstream@DU?$char_traits@D@std@@V?$allocator@D@2@@std@@U?$default_delete@V?$basic_stringstream@DU?$char_traits@D@std@@V?$allocator@D@2@@std@@@2@@std@@QEAA@XZ
	??1?$unique_ptr@VDeathTestFactory@internal@testing@@U?$default_delete@VDeathTestFactory@internal@testing@@@std@@@std@@QEAA@XZ
	??1?$unique_ptr@VGTestFlagSaver@internal@testing@@U?$default_delete@VGTestFlagSaver@internal@testing@@@std@@@std@@QEAA@XZ
	??1?$unique_ptr@VInternalRunDeathTestFlag@internal@testing@@U?$default_delete@VInternalRunDeathTestFlag@internal@testing@@@std@@@std@@QEAA@XZ
	??1?$unique_ptr@VRunnable@ThreadWithParamBase@internal@testing@@U?$default_delete@VRunnable@ThreadWithParamBase@internal@testing@@@std@@@std@@QEAA@XZ
	??1?$unique_ptr@VValueHolderFactory@?$ThreadLocal@PEAVSequence@testing@@@internal@testing@@U?$default_delete@VValueHolderFactory@?$ThreadLocal@PEAVSequence@testing@@@internal@testing@@@std@@@std@@QEAA@XZ
	??1?$unique_ptr@VValueHolderFactory@?$ThreadLocal@PEAVTestPartResultReporterInterface@testing@@@internal@testing@@U?$default_delete@VValueHolderFactory@?$ThreadLocal@PEAVTestPartResultReporterInterface@testing@@@internal@testing@@@std@@@std@@QEAA@XZ
	??1?$unique_ptr@VValueHolderFactory@?$ThreadLocal@V?$vector@UTraceInfo@internal@testing@@V?$allocator@UTraceInfo@internal@testing@@@std@@@std@@@internal@testing@@U?$default_delete@VValueHolderFactory@?$ThreadLocal@V?$vector@UTraceInfo@internal@testing@@V?$allocator@UTraceInfo@internal@testing@@@std@@@std@@@internal@testing@@@std@@@std@@QEAA@XZ
	??1?$unordered_map@V?$basic_string@DU?$char_traits@D@std@@V?$allocator@D@2@@std@@PEAVTestSuite@testing@@U?$hash@V?$basic_string@DU?$char_traits@D@std@@V?$allocator@D@2@@std@@@2@U?$equal_to@V?$basic_string@DU?$char_traits@D@std@@V?$allocator@D@2@@std@@@2@V?$allocator@U?$pair@$$CBV?$basic_string@DU?$char_traits@D@std@@V?$allocator@D@2@@std@@PEAVTestSuite@testing@@@std@@@2@@std@@QEAA@XZ
	??1?$unordered_map@V?$basic_string@DU?$char_traits@D@std@@V?$allocator@D@2@@std@@_KU?$hash@V?$basic_string@DU?$char_traits@D@std@@V?$allocator@D@2@@std@@@2@U?$equal_to@V?$basic_string@DU?$char_traits@D@std@@V?$allocator@D@2@@std@@@2@V?$allocator@U?$pair@$$CBV?$basic_string@DU?$char_traits@D@std@@V?$allocator@D@2@@std@@_K@std@@@2@@std@@QEAA@XZ
	??1?$unordered_set@V?$basic_string@DU?$char_traits@D@std@@V?$allocator@D@2@@std@@U?$hash@V?$basic_string@DU?$char_traits@D@std@@V?$allocator@D@2@@std@@@2@U?$equal_to@V?$basic_string@DU?$char_traits@D@std@@V?$allocator@D@2@@std@@@2@V?$allocator@V?$basic_string@DU?$char_traits@D@std@@V?$allocator@D@2@@std@@@2@@std@@QEAA@XZ
	??1?$vector@DV?$allocator@D@std@@@std@@QEAA@XZ
	??1?$vector@HV?$allocator@H@std@@@std@@QEAA@XZ
	??1?$vector@NV?$allocator@N@std@@@std@@QEAA@XZ
	??1?$vector@PEAVEnvironment@testing@@V?$allocator@PEAVEnvironment@testing@@@std@@@std@@QEAA@XZ
	??1?$vector@PEAVExpectationBase@internal@testing@@V?$allocator@PEAVExpectationBase@internal@testing@@@std@@@std@@QEAA@XZ
	??1?$vector@PEAVParameterizedTestSuiteInfoBase@internal@testing@@V?$allocator@PEAVParameterizedTestSuiteInfoBase@internal@testing@@@std@@@std@@QEAA@XZ
	??1?$vector@PEAVTestEventListener@testing@@V?$allocator@PEAVTestEventListener@testing@@@std@@@std@@QEAA@XZ
	??1?$vector@PEAVTestInfo@testing@@V?$allocator@PEAVTestInfo@testing@@@std@@@std@@QEAA@XZ
	??1?$vector@PEAVTestSuite@testing@@V?$allocator@PEAVTestSuite@testing@@@std@@@std@@QEAA@XZ
	??1?$vector@PEBVExpectationBase@internal@testing@@V?$allocator@PEBVExpectationBase@internal@testing@@@std@@@std@@QEAA@XZ
	??1?$vector@PEBXV?$allocator@PEBX@std@@@std@@QEAA@XZ
	??1?$vector@U?$pair@_K_K@std@@V?$allocator@U?$pair@_K_K@std@@@2@@std@@QEAA@XZ
	??1?$vector@UTraceInfo@internal@testing@@V?$allocator@UTraceInfo@internal@testing@@@std@@@std@@QEAA@XZ
	??1?$vector@V?$basic_string@DU?$char_traits@D@std@@V?$allocator@D@2@@std@@V?$allocator@V?$basic_string@DU?$char_traits@D@std@@V?$allocator@D@2@@std@@@2@@std@@QEAA@XZ
	??1?$vector@V?$shared_ptr@VExpectationBase@internal@testing@@@std@@V?$allocator@V?$shared_ptr@VExpectationBase@internal@testing@@@std@@@2@@std@@QEAA@XZ
	??1?$vector@V?$shared_ptr@VThreadLocalValueHolderBase@internal@testing@@@std@@V?$allocator@V?$shared_ptr@VThreadLocalValueHolderBase@internal@testing@@@std@@@2@@std@@QEAA@XZ
	??1?$vector@V?$vector@NV?$allocator@N@std@@@std@@V?$allocator@V?$vector@NV?$allocator@N@std@@@std@@@2@@std@@QEAA@XZ
	??1?$vector@V?$vector@W4EditType@edit_distance@internal@testing@@V?$allocator@W4EditType@edit_distance@internal@testing@@@std@@@std@@V?$allocator@V?$vector@W4EditType@edit_distance@internal@testing@@V?$allocator@W4EditType@edit_distance@internal@testing@@@std@@@std@@@2@@std@@QEAA@XZ
	??1?$vector@VTestPartResult@testing@@V?$allocator@VTestPartResult@testing@@@std@@@std@@QEAA@XZ
	??1?$vector@VTestProperty@testing@@V?$allocator@VTestProperty@testing@@@std@@@std@@QEAA@XZ
	??1?$vector@W4EditType@edit_distance@internal@testing@@V?$allocator@W4EditType@edit_distance@internal@testing@@@std@@@std@@QEAA@XZ
	??1?$vector@_KV?$allocator@_K@std@@@std@@QEAA@XZ
	??1?$wstring_convert@Uwchar_codecvt@?1??FOpen@posix@internal@testing@@YAPEAU_iobuf@@PEBD0@Z@_WV?$allocator@_W@std@@V?$allocator@D@8@@std@@UEAA@XZ
	??1AssertHelper@internal@testing@@QEAA@XZ
	??1AssertHelperData@AssertHelper@internal@testing@@QEAA@XZ
	??1AssertionResult@testing@@QEAA@XZ
	??1AutoHandle@internal@testing@@QEAA@XZ
	??1BriefUnitTestResultPrinter@internal@testing@@UEAA@XZ
	??1CapturedStream@internal@testing@@QEAA@XZ
	??1Cardinality@testing@@QEAA@XZ
	??1CardinalityInterface@testing@@UEAA@XZ
	??1CodeLocation@internal@testing@@QEAA@XZ
	??1DeathTest@internal@testing@@UEAA@XZ
	??1DeathTestFactory@internal@testing@@UEAA@XZ
	??1DeathTestImpl@internal@testing@@MEAA@XZ
	??1DefaultDeathTestFactory@internal@testing@@UEAA@XZ
	??1DefaultGlobalTestPartResultReporter@internal@testing@@UEAA@XZ
	??1DefaultPerThreadTestPartResultReporter@internal@testing@@UEAA@XZ
	??1DefaultValueHolderFactory@?$ThreadLocal@PEAVSequence@testing@@@internal@testing@@UEAA@XZ
	??1DefaultValueHolderFactory@?$ThreadLocal@V?$vector@UTraceInfo@internal@testing@@V?$allocator@UTraceInfo@internal@testing@@@std@@@std@@@internal@testing@@UEAA@XZ
	??1DummyMatchResultListener@internal@testing@@UEAA@XZ
	??1EmptyTestEventListener@testing@@UEAA@XZ
	??1Expectation@testing@@QEAA@XZ
	??1ExpectationBase@internal@testing@@UEAA@XZ
	??1ExpectationSet@testing@@QEAA@XZ
	??1FailureReporterInterface@internal@testing@@UEAA@XZ
	??1FilePath@internal@testing@@QEAA@XZ
	??1GTestFlagSaver@internal@testing@@QEAA@XZ
	??1GTestLog@internal@testing@@QEAA@XZ
	??1GTestMutexLock@internal@testing@@QEAA@XZ
	??1GoogleTestFailureException@internal@testing@@UEAA@XZ
	??1GoogleTestFailureReporter@internal@testing@@UEAA@XZ
	??1HasNewFatalFailureHelper@internal@testing@@UEAA@XZ
	??1InSequence@testing@@QEAA@XZ
	??1InstanceValueHolderFactory@?$ThreadLocal@PEAVTestPartResultReporterInterface@testing@@@internal@testing@@UEAA@XZ
	??1InternalRunDeathTestFlag@internal@testing@@QEAA@XZ
	??1JsonUnitTestResultPrinter@internal@testing@@UEAA@XZ
	??1MatchResultListener@testing@@UEAA@XZ
	??1MatcherDescriberInterface@testing@@UEAA@XZ
	??1MaxBipartiteMatchState@internal@testing@@QEAA@XZ
	??1Message@testing@@QEAA@XZ
	??1Mutex@internal@testing@@QEAA@XZ
	??1OsStackTraceGetter@internal@testing@@UEAA@XZ
	??1OsStackTraceGetterInterface@internal@testing@@UEAA@XZ
	??1ParameterizedTestSuiteRegistry@internal@testing@@QEAA@XZ
	??1PrettyUnitTestResultPrinter@internal@testing@@UEAA@XZ
	??1RE@internal@testing@@QEAA@XZ
	??1ScopedFakeTestPartResultReporter@testing@@UEAA@XZ
	??1ScopedPrematureExitFile@internal@testing@@QEAA@XZ
	??1ScopedTrace@testing@@QEAA@XZ
	??1Sequence@testing@@QEAA@XZ
	??1SingleFailureChecker@internal@testing@@QEAA@XZ
	??1Test@testing@@UEAA@XZ
	??1TestEventListener@testing@@UEAA@XZ
	??1TestEventListeners@testing@@QEAA@XZ
	??1TestEventRepeater@internal@testing@@UEAA@XZ
	??1TestFactoryBase@internal@testing@@UEAA@XZ
	??1TestInfo@testing@@QEAA@XZ
	??1TestPartResult@testing@@QEAA@XZ
	??1TestPartResultReporterInterface@testing@@UEAA@XZ
	??1TestProperty@testing@@QEAA@XZ
	??1TestPropertyKeyIs@internal@testing@@QEAA@XZ
	??1TestResult@testing@@QEAA@XZ
	??1TestSuite@testing@@UEAA@XZ
	??1ThreadLocalBase@internal@testing@@MEAA@XZ
	??1ThreadLocalValueHolderBase@internal@testing@@UEAA@XZ
	??1ThreadWithParamBase@internal@testing@@MEAA@XZ
	??1TraceInfo@internal@testing@@QEAA@XZ
	??1TypeParameterizedTestSuiteInfo@TypeParameterizedTestSuiteRegistry@internal@testing@@QEAA@XZ
	??1TypeParameterizedTestSuiteRegistry@internal@testing@@QEAA@XZ
	??1UnitTest@testing@@EEAA@XZ
	??1UnitTestImpl@internal@testing@@UEAA@XZ
	??1UntypedFunctionMockerBase@internal@testing@@UEAA@XZ
	??1ValueHolder@?$ThreadLocal@PEAVSequence@testing@@@internal@testing@@UEAA@XZ
	??1ValueHolder@?$ThreadLocal@PEAVTestPartResultReporterInterface@testing@@@internal@testing@@UEAA@XZ
	??1ValueHolder@?$ThreadLocal@V?$vector@UTraceInfo@internal@testing@@V?$allocator@UTraceInfo@internal@testing@@@std@@@std@@@internal@testing@@UEAA@XZ
	??1ValueHolderFactory@?$ThreadLocal@PEAVSequence@testing@@@internal@testing@@UEAA@XZ
	??1ValueHolderFactory@?$ThreadLocal@PEAVTestPartResultReporterInterface@testing@@@internal@testing@@UEAA@XZ
	??1ValueHolderFactory@?$ThreadLocal@V?$vector@UTraceInfo@internal@testing@@V?$allocator@UTraceInfo@internal@testing@@@std@@@std@@@internal@testing@@UEAA@XZ
	??1WindowsDeathTest@internal@testing@@UEAA@XZ
	??1XmlUnitTestResultPrinter@internal@testing@@UEAA@XZ
	??1_Bxty@?$_String_val@U?$_Simple_types@D@std@@@std@@QEAA@XZ
	??1_Bxty@?$_String_val@U?$_Simple_types@_W@std@@@std@@QEAA@XZ
	??1_Clear_guard@?$_Hash@V?$_Umap_traits@V?$basic_string@DU?$char_traits@D@std@@V?$allocator@D@2@@std@@PEAVTestSuite@testing@@V?$_Uhash_compare@V?$basic_string@DU?$char_traits@D@std@@V?$allocator@D@2@@std@@U?$hash@V?$basic_string@DU?$char_traits@D@std@@V?$allocator@D@2@@std@@@2@U?$equal_to@V?$basic_string@DU?$char_traits@D@std@@V?$allocator@D@2@@std@@@2@@2@V?$allocator@U?$pair@$$CBV?$basic_string@DU?$char_traits@D@std@@V?$allocator@D@2@@std@@PEAVTestSuite@testing@@@std@@@2@$0A@@std@@@std@@QEAA@XZ
	??1_Clear_guard@?$_Hash@V?$_Umap_traits@_KW4CallReaction@internal@testing@@V?$_Uhash_compare@_KU?$hash@_K@std@@U?$equal_to@_K@2@@std@@V?$allocator@U?$pair@$$CB_KW4CallReaction@internal@testing@@@std@@@5@$0A@@std@@@std@@QEAA@XZ
	??1_Clear_guard@?$_Hash@V?$_Uset_traits@V?$basic_string@DU?$char_traits@D@std@@V?$allocator@D@2@@std@@V?$_Uhash_compare@V?$basic_string@DU?$char_traits@D@std@@V?$allocator@D@2@@std@@U?$hash@V?$basic_string@DU?$char_traits@D@std@@V?$allocator@D@2@@std@@@2@U?$equal_to@V?$basic_string@DU?$char_traits@D@std@@V?$allocator@D@2@@std@@@2@@2@V?$allocator@V?$basic_string@DU?$char_traits@D@std@@V?$allocator@D@2@@std@@@2@$0A@@std@@@std@@QEAA@XZ
	??1_Range_eraser@?$_Hash@V?$_Umap_traits@V?$basic_string@DU?$char_traits@D@std@@V?$allocator@D@2@@std@@PEAVTestSuite@testing@@V?$_Uhash_compare@V?$basic_string@DU?$char_traits@D@std@@V?$allocator@D@2@@std@@U?$hash@V?$basic_string@DU?$char_traits@D@std@@V?$allocator@D@2@@std@@@2@U?$equal_to@V?$basic_string@DU?$char_traits@D@std@@V?$allocator@D@2@@std@@@2@@2@V?$allocator@U?$pair@$$CBV?$basic_string@DU?$char_traits@D@std@@V?$allocator@D@2@@std@@PEAVTestSuite@testing@@@std@@@2@$0A@@std@@@std@@QEAA@XZ
	??1_Range_eraser@?$_Hash@V?$_Umap_traits@_KW4CallReaction@internal@testing@@V?$_Uhash_compare@_KU?$hash@_K@std@@U?$equal_to@_K@2@@std@@V?$allocator@U?$pair@$$CB_KW4CallReaction@internal@testing@@@std@@@5@$0A@@std@@@std@@QEAA@XZ
	??1_Range_eraser@?$_Hash@V?$_Uset_traits@V?$basic_string@DU?$char_traits@D@std@@V?$allocator@D@2@@std@@V?$_Uhash_compare@V?$basic_string@DU?$char_traits@D@std@@V?$allocator@D@2@@std@@U?$hash@V?$basic_string@DU?$char_traits@D@std@@V?$allocator@D@2@@std@@@2@U?$equal_to@V?$basic_string@DU?$char_traits@D@std@@V?$allocator@D@2@@std@@@2@@2@V?$allocator@V?$basic_string@DU?$char_traits@D@std@@V?$allocator@D@2@@std@@@2@$0A@@std@@@std@@QEAA@XZ
	??1_Reallocation_guard@?$vector@HV?$allocator@H@std@@@std@@QEAA@XZ
	??1_Reallocation_guard@?$vector@PEAVEnvironment@testing@@V?$allocator@PEAVEnvironment@testing@@@std@@@std@@QEAA@XZ
	??1_Reallocation_guard@?$vector@PEAVExpectationBase@internal@testing@@V?$allocator@PEAVExpectationBase@internal@testing@@@std@@@std@@QEAA@XZ
	??1_Reallocation_guard@?$vector@PEAVTestEventListener@testing@@V?$allocator@PEAVTestEventListener@testing@@@std@@@std@@QEAA@XZ
	??1_Reallocation_guard@?$vector@PEAVTestInfo@testing@@V?$allocator@PEAVTestInfo@testing@@@std@@@std@@QEAA@XZ
	??1_Reallocation_guard@?$vector@PEAVTestSuite@testing@@V?$allocator@PEAVTestSuite@testing@@@std@@@std@@QEAA@XZ
	??1_Reallocation_guard@?$vector@PEBVExpectationBase@internal@testing@@V?$allocator@PEBVExpectationBase@internal@testing@@@std@@@std@@QEAA@XZ
	??1_Reallocation_guard@?$vector@U?$pair@_K_K@std@@V?$allocator@U?$pair@_K_K@std@@@2@@std@@QEAA@XZ
	??1_Reallocation_guard@?$vector@UTraceInfo@internal@testing@@V?$allocator@UTraceInfo@internal@testing@@@std@@@std@@QEAA@XZ
	??1_Reallocation_guard@?$vector@V?$basic_string@DU?$char_traits@D@std@@V?$allocator@D@2@@std@@V?$allocator@V?$basic_string@DU?$char_traits@D@std@@V?$allocator@D@2@@std@@@2@@std@@QEAA@XZ
	??1_Reallocation_guard@?$vector@V?$shared_ptr@VThreadLocalValueHolderBase@internal@testing@@@std@@V?$allocator@V?$shared_ptr@VThreadLocalValueHolderBase@internal@testing@@@std@@@2@@std@@QEAA@XZ
	??1_Reallocation_guard@?$vector@VTestPartResult@testing@@V?$allocator@VTestPartResult@testing@@@std@@@std@@QEAA@XZ
	??1_Reallocation_guard@?$vector@VTestProperty@testing@@V?$allocator@VTestProperty@testing@@@std@@@std@@QEAA@XZ
	??1_Reallocation_guard@?$vector@W4EditType@edit_distance@internal@testing@@V?$allocator@W4EditType@edit_distance@internal@testing@@@std@@@std@@QEAA@XZ
	??1_Reallocation_guard@?$vector@_KV?$allocator@_K@std@@@std@@QEAA@XZ
	??1_Ref_count_base@std@@UEAA@XZ
	??1_Sentry_base@?$basic_ostream@DU?$char_traits@D@std@@@std@@QEAA@XZ
	??1_Simple_reallocation_guard@?$vector@V?$basic_string@DU?$char_traits@D@std@@V?$allocator@D@2@@std@@V?$allocator@V?$basic_string@DU?$char_traits@D@std@@V?$allocator@D@2@@std@@@2@@std@@QEAA@XZ
	??1bad_alloc@std@@UEAA@XZ
	??1bad_array_new_length@std@@UEAA@XZ
	??1exception@std@@UEAA@XZ
	??1locale@std@@QEAA@XZ
	??1range_error@std@@UEAA@XZ
	??1runtime_error@std@@UEAA@XZ
	??1sentry@?$basic_ostream@DU?$char_traits@D@std@@@std@@QEAA@XZ
	??1wchar_codecvt@?1??FOpen@posix@internal@testing@@YAPEAU_iobuf@@PEBD0@Z@UEAA@XZ
	??2@YAPEAX_KPEAX@Z
	??4?$Matcher@AEBV?$basic_string@DU?$char_traits@D@std@@V?$allocator@D@2@@std@@@testing@@QEAAAEAV01@$$QEAV01@@Z
	??4?$Matcher@AEBV?$basic_string_view@DU?$char_traits@D@std@@@std@@@testing@@QEAAAEAV01@$$QEAV01@@Z
	??4?$Matcher@V?$basic_string@DU?$char_traits@D@std@@V?$allocator@D@2@@std@@@testing@@QEAAAEAV01@$$QEAV01@@Z
	??4?$Matcher@V?$basic_string_view@DU?$char_traits@D@std@@@std@@@testing@@QEAAAEAV01@$$QEAV01@@Z
	??4?$MatcherBase@AEBV?$basic_string@DU?$char_traits@D@std@@V?$allocator@D@2@@std@@@internal@testing@@IEAAAEAV012@$$QEAV012@@Z
	??4?$MatcherBase@AEBV?$basic_string_view@DU?$char_traits@D@std@@@std@@@internal@testing@@IEAAAEAV012@$$QEAV012@@Z
	??4?$MatcherBase@V?$basic_string@DU?$char_traits@D@std@@V?$allocator@D@2@@std@@@internal@testing@@IEAAAEAV012@$$QEAV012@@Z
	??4?$MatcherBase@V?$basic_string_view@DU?$char_traits@D@std@@@std@@@internal@testing@@IEAAAEAV012@$$QEAV012@@Z
	??4?$_Hash@V?$_Uset_traits@V?$basic_string@DU?$char_traits@D@std@@V?$allocator@D@2@@std@@V?$_Uhash_compare@V?$basic_string@DU?$char_traits@D@std@@V?$allocator@D@2@@std@@U?$hash@V?$basic_string@DU?$char_traits@D@std@@V?$allocator@D@2@@std@@@2@U?$equal_to@V?$basic_string@DU?$char_traits@D@std@@V?$allocator@D@2@@std@@@2@@2@V?$allocator@V?$basic_string@DU?$char_traits@D@std@@V?$allocator@D@2@@std@@@2@$0A@@std@@@std@@QEAAAEAV01@$$QEAV01@@Z
	??4?$basic_string@DU?$char_traits@D@std@@V?$allocator@D@2@@std@@QEAAAEAV01@$$QEAV01@@Z
	??4?$basic_string@DU?$char_traits@D@std@@V?$allocator@D@2@@std@@QEAAAEAV01@AEBV01@@Z
	??4?$basic_string@DU?$char_traits@D@std@@V?$allocator@D@2@@std@@QEAAAEAV01@QEBD@Z
	??4?$insert_iterator@V?$unordered_set@V?$basic_string@DU?$char_traits@D@std@@V?$allocator@D@2@@std@@U?$hash@V?$basic_string@DU?$char_traits@D@std@@V?$allocator@D@2@@std@@@2@U?$equal_to@V?$basic_string@DU?$char_traits@D@std@@V?$allocator@D@2@@std@@@2@V?$allocator@V?$basic_string@DU?$char_traits@D@std@@V?$allocator@D@2@@std@@@2@@std@@@std@@QEAAAEAV01@$$QEAV?$basic_string@DU?$char_traits@D@std@@V?$allocator@D@2@@1@@Z
	??4?$insert_iterator@V?$vector@V?$basic_string@DU?$char_traits@D@std@@V?$allocator@D@2@@std@@V?$allocator@V?$basic_string@DU?$char_traits@D@std@@V?$allocator@D@2@@std@@@2@@std@@@std@@QEAAAEAV01@$$QEAV?$basic_string@DU?$char_traits@D@std@@V?$allocator@D@2@@1@@Z
	??4?$shared_ptr@$$CBVCardinalityInterface@testing@@@std@@QEAAAEAV01@AEBV01@@Z
	??4?$shared_ptr@VExpectationBase@internal@testing@@@std@@QEAAAEAV01@AEBV01@@Z
	??4?$unordered_set@V?$basic_string@DU?$char_traits@D@std@@V?$allocator@D@2@@std@@U?$hash@V?$basic_string@DU?$char_traits@D@std@@V?$allocator@D@2@@std@@@2@U?$equal_to@V?$basic_string@DU?$char_traits@D@std@@V?$allocator@D@2@@std@@@2@V?$allocator@V?$basic_string@DU?$char_traits@D@std@@V?$allocator@D@2@@std@@@2@@std@@QEAAAEAV01@$$QEAV01@@Z
	??4?$vector@V?$basic_string@DU?$char_traits@D@std@@V?$allocator@D@2@@std@@V?$allocator@V?$basic_string@DU?$char_traits@D@std@@V?$allocator@D@2@@std@@@2@@std@@QEAAAEAV01@$$QEAV01@@Z
	??4AssertHelper@internal@testing@@QEBAXAEBVMessage@2@@Z
	??4Cardinality@testing@@QEAAAEAV01@AEBV01@@Z
	??4Expectation@testing@@QEAAAEAV01@AEBV01@@Z
	??4FilePath@internal@testing@@QEAAAEAV012@$$QEAV012@@Z
	??4locale@std@@QEAAAEBV01@AEBV01@@Z
	??6Message@testing@@QEAAAEAV01@AEBV?$basic_string@_WU?$char_traits@_W@std@@V?$allocator@_W@2@@std@@@Z
	??6Message@testing@@QEAAAEAV01@PEA_W@Z
	??6Message@testing@@QEAAAEAV01@PEB_W@Z
	??6testing@@YAAEAV?$basic_ostream@DU?$char_traits@D@std@@@std@@AEAV12@AEBVMessage@0@@Z
	??6testing@@YAAEAV?$basic_ostream@DU?$char_traits@D@std@@@std@@AEAV12@AEBVTestPartResult@0@@Z
	??7AssertionResult@testing@@QEBA?AV01@XZ
	??8?$_List_const_iterator@V?$_List_val@U?$_List_simple_types@U?$pair@$$CBV?$basic_string@DU?$char_traits@D@std@@V?$allocator@D@2@@std@@PEAVTestSuite@testing@@@std@@@std@@@std@@@std@@QEBA_NAEBV01@@Z
	??8?$_List_const_iterator@V?$_List_val@U?$_List_simple_types@U?$pair@DPEBD@std@@@std@@@std@@@std@@QEBA_NAEBV01@@Z
	??8?$_List_const_iterator@V?$_List_val@U?$_List_simple_types@V?$basic_string@DU?$char_traits@D@std@@V?$allocator@D@2@@std@@@std@@@std@@@std@@QEBA_NAEBV01@@Z
	??8?$_List_unchecked_const_iterator@V?$_List_val@U?$_List_simple_types@U?$pair@$$CBV?$basic_string@DU?$char_traits@D@std@@V?$allocator@D@2@@std@@PEAVTestSuite@testing@@@std@@@std@@@std@@U_Iterator_base0@2@@std@@QEBA_NAEBV01@@Z
	??8?$_List_unchecked_const_iterator@V?$_List_val@U?$_List_simple_types@U?$pair@$$CB_KW4CallReaction@internal@testing@@@std@@@std@@@std@@U_Iterator_base0@2@@std@@QEBA_NAEBV01@@Z
	??8?$_List_unchecked_const_iterator@V?$_List_val@U?$_List_simple_types@V?$basic_string@DU?$char_traits@D@std@@V?$allocator@D@2@@std@@@std@@@std@@U_Iterator_base0@2@@std@@QEBA_NAEBV01@@Z
	??8?$_String_const_iterator@V?$_String_val@U?$_Simple_types@D@std@@@std@@@std@@QEBA_NAEBV01@@Z
	??8?$_Tree_const_iterator@V?$_Tree_val@U?$_Tree_simple_types@PEAVUntypedFunctionMockerBase@internal@testing@@@std@@@std@@@std@@QEBA_NAEBV01@@Z
	??8?$_Tree_const_iterator@V?$_Tree_val@U?$_Tree_simple_types@U?$pair@$$CBKV?$map@PEBVThreadLocalBase@internal@testing@@V?$shared_ptr@VThreadLocalValueHolderBase@internal@testing@@@std@@U?$less@PEBVThreadLocalBase@internal@testing@@@5@V?$allocator@U?$pair@QEBVThreadLocalBase@internal@testing@@V?$shared_ptr@VThreadLocalValueHolderBase@internal@testing@@@std@@@std@@@5@@std@@@std@@@std@@@std@@@std@@QEBA_NAEBV01@@Z
	??8?$_Tree_const_iterator@V?$_Tree_val@U?$_Tree_simple_types@U?$pair@$$CBV?$basic_string@DU?$char_traits@D@std@@V?$allocator@D@2@@std@@UCodeLocation@internal@testing@@@std@@@std@@@std@@@std@@QEBA_NAEBV01@@Z
	??8?$_Tree_const_iterator@V?$_Tree_val@U?$_Tree_simple_types@U?$pair@$$CBV?$basic_string@DU?$char_traits@D@std@@V?$allocator@D@2@@std@@UTypeParameterizedTestSuiteInfo@TypeParameterizedTestSuiteRegistry@internal@testing@@@std@@@std@@@std@@@std@@QEBA_NAEBV01@@Z
	??8?$_Tree_const_iterator@V?$_Tree_val@U?$_Tree_simple_types@U?$pair@$$CBV?$basic_string@DU?$char_traits@D@std@@V?$allocator@D@2@@std@@_K@std@@@std@@@std@@@std@@QEBA_NAEBV01@@Z
	??8?$_Tree_const_iterator@V?$_Tree_val@U?$_Tree_simple_types@U?$pair@QEBVThreadLocalBase@internal@testing@@V?$shared_ptr@VThreadLocalValueHolderBase@internal@testing@@@std@@@std@@@std@@@std@@@std@@QEBA_NAEBV01@@Z
	??8?$_Tree_const_iterator@V?$_Tree_val@U?$_Tree_simple_types@V?$basic_string@DU?$char_traits@D@std@@V?$allocator@D@2@@std@@@std@@@std@@@std@@QEBA_NAEBV01@@Z
	??8?$_Tree_const_iterator@V?$_Tree_val@U?$_Tree_simple_types@VExpectation@testing@@@std@@@std@@@std@@QEBA_NAEBV01@@Z
	??8?$_Tree_unchecked_const_iterator@V?$_Tree_val@U?$_Tree_simple_types@PEAVUntypedFunctionMockerBase@internal@testing@@@std@@@std@@U_Iterator_base0@2@@std@@QEBA_NAEBV01@@Z
	??8?$_Vector_const_iterator@V?$_Vector_val@U?$_Simple_types@PEAVTestInfo@testing@@@std@@@std@@@std@@QEBA_NAEBV01@@Z
	??8?$_Vector_const_iterator@V?$_Vector_val@U?$_Simple_types@PEAVTestSuite@testing@@@std@@@std@@@std@@QEBA_NAEBV01@@Z
	??8?$_Vector_const_iterator@V?$_Vector_val@U?$_Simple_types@U?$pair@_K_K@std@@@std@@@std@@@std@@QEBA_NAEBV01@@Z
	??8?$_Vector_const_iterator@V?$_Vector_val@U?$_Simple_types@V?$basic_string@DU?$char_traits@D@std@@V?$allocator@D@2@@std@@@std@@@std@@@std@@QEBA_NAEBV01@@Z
	??8?$_Vector_const_iterator@V?$_Vector_val@U?$_Simple_types@V?$shared_ptr@VExpectationBase@internal@testing@@@std@@@std@@@std@@@std@@QEBA_NAEBV01@@Z
